
BLE_Klient_dev.elf:     file format elf32-littlearm

Sections:
Idx Name          Size      VMA       LMA       File off  Algn
  0 .isr_vector   00000188  08000000  08000000  00010000  2**0
                  CONTENTS, ALLOC, LOAD, READONLY, DATA
  1 .text         0000b59c  08000190  08000190  00010190  2**4
                  CONTENTS, ALLOC, LOAD, READONLY, CODE
  2 .rodata       000007b8  0800b730  0800b730  0001b730  2**3
                  CONTENTS, ALLOC, LOAD, READONLY, DATA
  3 .ARM.extab    00000084  0800bee8  0800bee8  0001bee8  2**2
                  CONTENTS, ALLOC, LOAD, READONLY, DATA
  4 .ARM          00000118  0800bf6c  0800bf6c  0001bf6c  2**2
                  CONTENTS, ALLOC, LOAD, READONLY, DATA
  5 .init_array   00000004  0800c084  0800c084  0001c084  2**2
                  CONTENTS, ALLOC, LOAD, DATA
  6 .fini_array   00000004  0800c088  0800c088  0001c088  2**2
                  CONTENTS, ALLOC, LOAD, DATA
  7 .data         00000690  20000000  0800c08c  00020000  2**2
                  CONTENTS, ALLOC, LOAD, DATA
  8 .bss          00003ddc  20000690  0800c71c  00020690  2**2
                  ALLOC
  9 ._user_heap_stack 00001400  2000446c  0800c71c  0002446c  2**0
                  ALLOC
 10 .ARM.attributes 00000030  00000000  00000000  00020690  2**0
                  CONTENTS, READONLY
 11 .debug_info   00038443  00000000  00000000  000206c0  2**0
                  CONTENTS, READONLY, DEBUGGING
 12 .debug_abbrev 0000609f  00000000  00000000  00058b03  2**0
                  CONTENTS, READONLY, DEBUGGING
 13 .debug_loc    00014802  00000000  00000000  0005eba2  2**0
                  CONTENTS, READONLY, DEBUGGING
 14 .debug_aranges 00001aa8  00000000  00000000  000733a8  2**3
                  CONTENTS, READONLY, DEBUGGING
 15 .debug_ranges 000020d8  00000000  00000000  00074e50  2**3
                  CONTENTS, READONLY, DEBUGGING
 16 .debug_line   00011219  00000000  00000000  00076f28  2**0
                  CONTENTS, READONLY, DEBUGGING
 17 .debug_str    0000b7a5  00000000  00000000  00088141  2**0
                  CONTENTS, READONLY, DEBUGGING
 18 .comment      0000007c  00000000  00000000  000938e6  2**0
                  CONTENTS, READONLY
 19 .debug_frame  0000627c  00000000  00000000  00093964  2**2
                  CONTENTS, READONLY, DEBUGGING

Disassembly of section .text:

08000190 <__do_global_dtors_aux>:
 8000190:	b510      	push	{r4, lr}
 8000192:	4c05      	ldr	r4, [pc, #20]	; (80001a8 <__do_global_dtors_aux+0x18>)
 8000194:	7823      	ldrb	r3, [r4, #0]
 8000196:	b933      	cbnz	r3, 80001a6 <__do_global_dtors_aux+0x16>
 8000198:	4b04      	ldr	r3, [pc, #16]	; (80001ac <__do_global_dtors_aux+0x1c>)
 800019a:	b113      	cbz	r3, 80001a2 <__do_global_dtors_aux+0x12>
 800019c:	4804      	ldr	r0, [pc, #16]	; (80001b0 <__do_global_dtors_aux+0x20>)
 800019e:	f3af 8000 	nop.w
 80001a2:	2301      	movs	r3, #1
 80001a4:	7023      	strb	r3, [r4, #0]
 80001a6:	bd10      	pop	{r4, pc}
 80001a8:	20000690 	.word	0x20000690
 80001ac:	00000000 	.word	0x00000000
 80001b0:	0800b714 	.word	0x0800b714

080001b4 <frame_dummy>:
 80001b4:	b508      	push	{r3, lr}
 80001b6:	4b03      	ldr	r3, [pc, #12]	; (80001c4 <frame_dummy+0x10>)
 80001b8:	b11b      	cbz	r3, 80001c2 <frame_dummy+0xe>
 80001ba:	4903      	ldr	r1, [pc, #12]	; (80001c8 <frame_dummy+0x14>)
 80001bc:	4803      	ldr	r0, [pc, #12]	; (80001cc <frame_dummy+0x18>)
 80001be:	f3af 8000 	nop.w
 80001c2:	bd08      	pop	{r3, pc}
 80001c4:	00000000 	.word	0x00000000
 80001c8:	20000694 	.word	0x20000694
 80001cc:	0800b714 	.word	0x0800b714

080001d0 <strcmp>:
 80001d0:	f810 2b01 	ldrb.w	r2, [r0], #1
 80001d4:	f811 3b01 	ldrb.w	r3, [r1], #1
 80001d8:	2a01      	cmp	r2, #1
 80001da:	bf28      	it	cs
 80001dc:	429a      	cmpcs	r2, r3
 80001de:	d0f7      	beq.n	80001d0 <strcmp>
 80001e0:	1ad0      	subs	r0, r2, r3
 80001e2:	4770      	bx	lr

080001e4 <strlen>:
 80001e4:	4603      	mov	r3, r0
 80001e6:	f813 2b01 	ldrb.w	r2, [r3], #1
 80001ea:	2a00      	cmp	r2, #0
 80001ec:	d1fb      	bne.n	80001e6 <strlen+0x2>
 80001ee:	1a18      	subs	r0, r3, r0
 80001f0:	3801      	subs	r0, #1
 80001f2:	4770      	bx	lr
	...

08000200 <memchr>:
 8000200:	f001 01ff 	and.w	r1, r1, #255	; 0xff
 8000204:	2a10      	cmp	r2, #16
 8000206:	db2b      	blt.n	8000260 <memchr+0x60>
 8000208:	f010 0f07 	tst.w	r0, #7
 800020c:	d008      	beq.n	8000220 <memchr+0x20>
 800020e:	f810 3b01 	ldrb.w	r3, [r0], #1
 8000212:	3a01      	subs	r2, #1
 8000214:	428b      	cmp	r3, r1
 8000216:	d02d      	beq.n	8000274 <memchr+0x74>
 8000218:	f010 0f07 	tst.w	r0, #7
 800021c:	b342      	cbz	r2, 8000270 <memchr+0x70>
 800021e:	d1f6      	bne.n	800020e <memchr+0xe>
 8000220:	b4f0      	push	{r4, r5, r6, r7}
 8000222:	ea41 2101 	orr.w	r1, r1, r1, lsl #8
 8000226:	ea41 4101 	orr.w	r1, r1, r1, lsl #16
 800022a:	f022 0407 	bic.w	r4, r2, #7
 800022e:	f07f 0700 	mvns.w	r7, #0
 8000232:	2300      	movs	r3, #0
 8000234:	e8f0 5602 	ldrd	r5, r6, [r0], #8
 8000238:	3c08      	subs	r4, #8
 800023a:	ea85 0501 	eor.w	r5, r5, r1
 800023e:	ea86 0601 	eor.w	r6, r6, r1
 8000242:	fa85 f547 	uadd8	r5, r5, r7
 8000246:	faa3 f587 	sel	r5, r3, r7
 800024a:	fa86 f647 	uadd8	r6, r6, r7
 800024e:	faa5 f687 	sel	r6, r5, r7
 8000252:	b98e      	cbnz	r6, 8000278 <memchr+0x78>
 8000254:	d1ee      	bne.n	8000234 <memchr+0x34>
 8000256:	bcf0      	pop	{r4, r5, r6, r7}
 8000258:	f001 01ff 	and.w	r1, r1, #255	; 0xff
 800025c:	f002 0207 	and.w	r2, r2, #7
 8000260:	b132      	cbz	r2, 8000270 <memchr+0x70>
 8000262:	f810 3b01 	ldrb.w	r3, [r0], #1
 8000266:	3a01      	subs	r2, #1
 8000268:	ea83 0301 	eor.w	r3, r3, r1
 800026c:	b113      	cbz	r3, 8000274 <memchr+0x74>
 800026e:	d1f8      	bne.n	8000262 <memchr+0x62>
 8000270:	2000      	movs	r0, #0
 8000272:	4770      	bx	lr
 8000274:	3801      	subs	r0, #1
 8000276:	4770      	bx	lr
 8000278:	2d00      	cmp	r5, #0
 800027a:	bf06      	itte	eq
 800027c:	4635      	moveq	r5, r6
 800027e:	3803      	subeq	r0, #3
 8000280:	3807      	subne	r0, #7
 8000282:	f015 0f01 	tst.w	r5, #1
 8000286:	d107      	bne.n	8000298 <memchr+0x98>
 8000288:	3001      	adds	r0, #1
 800028a:	f415 7f80 	tst.w	r5, #256	; 0x100
 800028e:	bf02      	ittt	eq
 8000290:	3001      	addeq	r0, #1
 8000292:	f415 3fc0 	tsteq.w	r5, #98304	; 0x18000
 8000296:	3001      	addeq	r0, #1
 8000298:	bcf0      	pop	{r4, r5, r6, r7}
 800029a:	3801      	subs	r0, #1
 800029c:	4770      	bx	lr
 800029e:	bf00      	nop

080002a0 <__aeabi_drsub>:
 80002a0:	f081 4100 	eor.w	r1, r1, #2147483648	; 0x80000000
 80002a4:	e002      	b.n	80002ac <__adddf3>
 80002a6:	bf00      	nop

080002a8 <__aeabi_dsub>:
 80002a8:	f083 4300 	eor.w	r3, r3, #2147483648	; 0x80000000

080002ac <__adddf3>:
 80002ac:	b530      	push	{r4, r5, lr}
 80002ae:	ea4f 0441 	mov.w	r4, r1, lsl #1
 80002b2:	ea4f 0543 	mov.w	r5, r3, lsl #1
 80002b6:	ea94 0f05 	teq	r4, r5
 80002ba:	bf08      	it	eq
 80002bc:	ea90 0f02 	teqeq	r0, r2
 80002c0:	bf1f      	itttt	ne
 80002c2:	ea54 0c00 	orrsne.w	ip, r4, r0
 80002c6:	ea55 0c02 	orrsne.w	ip, r5, r2
 80002ca:	ea7f 5c64 	mvnsne.w	ip, r4, asr #21
 80002ce:	ea7f 5c65 	mvnsne.w	ip, r5, asr #21
 80002d2:	f000 80e2 	beq.w	800049a <__adddf3+0x1ee>
 80002d6:	ea4f 5454 	mov.w	r4, r4, lsr #21
 80002da:	ebd4 5555 	rsbs	r5, r4, r5, lsr #21
 80002de:	bfb8      	it	lt
 80002e0:	426d      	neglt	r5, r5
 80002e2:	dd0c      	ble.n	80002fe <__adddf3+0x52>
 80002e4:	442c      	add	r4, r5
 80002e6:	ea80 0202 	eor.w	r2, r0, r2
 80002ea:	ea81 0303 	eor.w	r3, r1, r3
 80002ee:	ea82 0000 	eor.w	r0, r2, r0
 80002f2:	ea83 0101 	eor.w	r1, r3, r1
 80002f6:	ea80 0202 	eor.w	r2, r0, r2
 80002fa:	ea81 0303 	eor.w	r3, r1, r3
 80002fe:	2d36      	cmp	r5, #54	; 0x36
 8000300:	bf88      	it	hi
 8000302:	bd30      	pophi	{r4, r5, pc}
 8000304:	f011 4f00 	tst.w	r1, #2147483648	; 0x80000000
 8000308:	ea4f 3101 	mov.w	r1, r1, lsl #12
 800030c:	f44f 1c80 	mov.w	ip, #1048576	; 0x100000
 8000310:	ea4c 3111 	orr.w	r1, ip, r1, lsr #12
 8000314:	d002      	beq.n	800031c <__adddf3+0x70>
 8000316:	4240      	negs	r0, r0
 8000318:	eb61 0141 	sbc.w	r1, r1, r1, lsl #1
 800031c:	f013 4f00 	tst.w	r3, #2147483648	; 0x80000000
 8000320:	ea4f 3303 	mov.w	r3, r3, lsl #12
 8000324:	ea4c 3313 	orr.w	r3, ip, r3, lsr #12
 8000328:	d002      	beq.n	8000330 <__adddf3+0x84>
 800032a:	4252      	negs	r2, r2
 800032c:	eb63 0343 	sbc.w	r3, r3, r3, lsl #1
 8000330:	ea94 0f05 	teq	r4, r5
 8000334:	f000 80a7 	beq.w	8000486 <__adddf3+0x1da>
 8000338:	f1a4 0401 	sub.w	r4, r4, #1
 800033c:	f1d5 0e20 	rsbs	lr, r5, #32
 8000340:	db0d      	blt.n	800035e <__adddf3+0xb2>
 8000342:	fa02 fc0e 	lsl.w	ip, r2, lr
 8000346:	fa22 f205 	lsr.w	r2, r2, r5
 800034a:	1880      	adds	r0, r0, r2
 800034c:	f141 0100 	adc.w	r1, r1, #0
 8000350:	fa03 f20e 	lsl.w	r2, r3, lr
 8000354:	1880      	adds	r0, r0, r2
 8000356:	fa43 f305 	asr.w	r3, r3, r5
 800035a:	4159      	adcs	r1, r3
 800035c:	e00e      	b.n	800037c <__adddf3+0xd0>
 800035e:	f1a5 0520 	sub.w	r5, r5, #32
 8000362:	f10e 0e20 	add.w	lr, lr, #32
 8000366:	2a01      	cmp	r2, #1
 8000368:	fa03 fc0e 	lsl.w	ip, r3, lr
 800036c:	bf28      	it	cs
 800036e:	f04c 0c02 	orrcs.w	ip, ip, #2
 8000372:	fa43 f305 	asr.w	r3, r3, r5
 8000376:	18c0      	adds	r0, r0, r3
 8000378:	eb51 71e3 	adcs.w	r1, r1, r3, asr #31
 800037c:	f001 4500 	and.w	r5, r1, #2147483648	; 0x80000000
 8000380:	d507      	bpl.n	8000392 <__adddf3+0xe6>
 8000382:	f04f 0e00 	mov.w	lr, #0
 8000386:	f1dc 0c00 	rsbs	ip, ip, #0
 800038a:	eb7e 0000 	sbcs.w	r0, lr, r0
 800038e:	eb6e 0101 	sbc.w	r1, lr, r1
 8000392:	f5b1 1f80 	cmp.w	r1, #1048576	; 0x100000
 8000396:	d31b      	bcc.n	80003d0 <__adddf3+0x124>
 8000398:	f5b1 1f00 	cmp.w	r1, #2097152	; 0x200000
 800039c:	d30c      	bcc.n	80003b8 <__adddf3+0x10c>
 800039e:	0849      	lsrs	r1, r1, #1
 80003a0:	ea5f 0030 	movs.w	r0, r0, rrx
 80003a4:	ea4f 0c3c 	mov.w	ip, ip, rrx
 80003a8:	f104 0401 	add.w	r4, r4, #1
 80003ac:	ea4f 5244 	mov.w	r2, r4, lsl #21
 80003b0:	f512 0f80 	cmn.w	r2, #4194304	; 0x400000
 80003b4:	f080 809a 	bcs.w	80004ec <__adddf3+0x240>
 80003b8:	f1bc 4f00 	cmp.w	ip, #2147483648	; 0x80000000
 80003bc:	bf08      	it	eq
 80003be:	ea5f 0c50 	movseq.w	ip, r0, lsr #1
 80003c2:	f150 0000 	adcs.w	r0, r0, #0
 80003c6:	eb41 5104 	adc.w	r1, r1, r4, lsl #20
 80003ca:	ea41 0105 	orr.w	r1, r1, r5
 80003ce:	bd30      	pop	{r4, r5, pc}
 80003d0:	ea5f 0c4c 	movs.w	ip, ip, lsl #1
 80003d4:	4140      	adcs	r0, r0
 80003d6:	eb41 0101 	adc.w	r1, r1, r1
 80003da:	f411 1f80 	tst.w	r1, #1048576	; 0x100000
 80003de:	f1a4 0401 	sub.w	r4, r4, #1
 80003e2:	d1e9      	bne.n	80003b8 <__adddf3+0x10c>
 80003e4:	f091 0f00 	teq	r1, #0
 80003e8:	bf04      	itt	eq
 80003ea:	4601      	moveq	r1, r0
 80003ec:	2000      	moveq	r0, #0
 80003ee:	fab1 f381 	clz	r3, r1
 80003f2:	bf08      	it	eq
 80003f4:	3320      	addeq	r3, #32
 80003f6:	f1a3 030b 	sub.w	r3, r3, #11
 80003fa:	f1b3 0220 	subs.w	r2, r3, #32
 80003fe:	da0c      	bge.n	800041a <__adddf3+0x16e>
 8000400:	320c      	adds	r2, #12
 8000402:	dd08      	ble.n	8000416 <__adddf3+0x16a>
 8000404:	f102 0c14 	add.w	ip, r2, #20
 8000408:	f1c2 020c 	rsb	r2, r2, #12
 800040c:	fa01 f00c 	lsl.w	r0, r1, ip
 8000410:	fa21 f102 	lsr.w	r1, r1, r2
 8000414:	e00c      	b.n	8000430 <__adddf3+0x184>
 8000416:	f102 0214 	add.w	r2, r2, #20
 800041a:	bfd8      	it	le
 800041c:	f1c2 0c20 	rsble	ip, r2, #32
 8000420:	fa01 f102 	lsl.w	r1, r1, r2
 8000424:	fa20 fc0c 	lsr.w	ip, r0, ip
 8000428:	bfdc      	itt	le
 800042a:	ea41 010c 	orrle.w	r1, r1, ip
 800042e:	4090      	lslle	r0, r2
 8000430:	1ae4      	subs	r4, r4, r3
 8000432:	bfa2      	ittt	ge
 8000434:	eb01 5104 	addge.w	r1, r1, r4, lsl #20
 8000438:	4329      	orrge	r1, r5
 800043a:	bd30      	popge	{r4, r5, pc}
 800043c:	ea6f 0404 	mvn.w	r4, r4
 8000440:	3c1f      	subs	r4, #31
 8000442:	da1c      	bge.n	800047e <__adddf3+0x1d2>
 8000444:	340c      	adds	r4, #12
 8000446:	dc0e      	bgt.n	8000466 <__adddf3+0x1ba>
 8000448:	f104 0414 	add.w	r4, r4, #20
 800044c:	f1c4 0220 	rsb	r2, r4, #32
 8000450:	fa20 f004 	lsr.w	r0, r0, r4
 8000454:	fa01 f302 	lsl.w	r3, r1, r2
 8000458:	ea40 0003 	orr.w	r0, r0, r3
 800045c:	fa21 f304 	lsr.w	r3, r1, r4
 8000460:	ea45 0103 	orr.w	r1, r5, r3
 8000464:	bd30      	pop	{r4, r5, pc}
 8000466:	f1c4 040c 	rsb	r4, r4, #12
 800046a:	f1c4 0220 	rsb	r2, r4, #32
 800046e:	fa20 f002 	lsr.w	r0, r0, r2
 8000472:	fa01 f304 	lsl.w	r3, r1, r4
 8000476:	ea40 0003 	orr.w	r0, r0, r3
 800047a:	4629      	mov	r1, r5
 800047c:	bd30      	pop	{r4, r5, pc}
 800047e:	fa21 f004 	lsr.w	r0, r1, r4
 8000482:	4629      	mov	r1, r5
 8000484:	bd30      	pop	{r4, r5, pc}
 8000486:	f094 0f00 	teq	r4, #0
 800048a:	f483 1380 	eor.w	r3, r3, #1048576	; 0x100000
 800048e:	bf06      	itte	eq
 8000490:	f481 1180 	eoreq.w	r1, r1, #1048576	; 0x100000
 8000494:	3401      	addeq	r4, #1
 8000496:	3d01      	subne	r5, #1
 8000498:	e74e      	b.n	8000338 <__adddf3+0x8c>
 800049a:	ea7f 5c64 	mvns.w	ip, r4, asr #21
 800049e:	bf18      	it	ne
 80004a0:	ea7f 5c65 	mvnsne.w	ip, r5, asr #21
 80004a4:	d029      	beq.n	80004fa <__adddf3+0x24e>
 80004a6:	ea94 0f05 	teq	r4, r5
 80004aa:	bf08      	it	eq
 80004ac:	ea90 0f02 	teqeq	r0, r2
 80004b0:	d005      	beq.n	80004be <__adddf3+0x212>
 80004b2:	ea54 0c00 	orrs.w	ip, r4, r0
 80004b6:	bf04      	itt	eq
 80004b8:	4619      	moveq	r1, r3
 80004ba:	4610      	moveq	r0, r2
 80004bc:	bd30      	pop	{r4, r5, pc}
 80004be:	ea91 0f03 	teq	r1, r3
 80004c2:	bf1e      	ittt	ne
 80004c4:	2100      	movne	r1, #0
 80004c6:	2000      	movne	r0, #0
 80004c8:	bd30      	popne	{r4, r5, pc}
 80004ca:	ea5f 5c54 	movs.w	ip, r4, lsr #21
 80004ce:	d105      	bne.n	80004dc <__adddf3+0x230>
 80004d0:	0040      	lsls	r0, r0, #1
 80004d2:	4149      	adcs	r1, r1
 80004d4:	bf28      	it	cs
 80004d6:	f041 4100 	orrcs.w	r1, r1, #2147483648	; 0x80000000
 80004da:	bd30      	pop	{r4, r5, pc}
 80004dc:	f514 0480 	adds.w	r4, r4, #4194304	; 0x400000
 80004e0:	bf3c      	itt	cc
 80004e2:	f501 1180 	addcc.w	r1, r1, #1048576	; 0x100000
 80004e6:	bd30      	popcc	{r4, r5, pc}
 80004e8:	f001 4500 	and.w	r5, r1, #2147483648	; 0x80000000
 80004ec:	f045 41fe 	orr.w	r1, r5, #2130706432	; 0x7f000000
 80004f0:	f441 0170 	orr.w	r1, r1, #15728640	; 0xf00000
 80004f4:	f04f 0000 	mov.w	r0, #0
 80004f8:	bd30      	pop	{r4, r5, pc}
 80004fa:	ea7f 5c64 	mvns.w	ip, r4, asr #21
 80004fe:	bf1a      	itte	ne
 8000500:	4619      	movne	r1, r3
 8000502:	4610      	movne	r0, r2
 8000504:	ea7f 5c65 	mvnseq.w	ip, r5, asr #21
 8000508:	bf1c      	itt	ne
 800050a:	460b      	movne	r3, r1
 800050c:	4602      	movne	r2, r0
 800050e:	ea50 3401 	orrs.w	r4, r0, r1, lsl #12
 8000512:	bf06      	itte	eq
 8000514:	ea52 3503 	orrseq.w	r5, r2, r3, lsl #12
 8000518:	ea91 0f03 	teqeq	r1, r3
 800051c:	f441 2100 	orrne.w	r1, r1, #524288	; 0x80000
 8000520:	bd30      	pop	{r4, r5, pc}
 8000522:	bf00      	nop

08000524 <__aeabi_ui2d>:
 8000524:	f090 0f00 	teq	r0, #0
 8000528:	bf04      	itt	eq
 800052a:	2100      	moveq	r1, #0
 800052c:	4770      	bxeq	lr
 800052e:	b530      	push	{r4, r5, lr}
 8000530:	f44f 6480 	mov.w	r4, #1024	; 0x400
 8000534:	f104 0432 	add.w	r4, r4, #50	; 0x32
 8000538:	f04f 0500 	mov.w	r5, #0
 800053c:	f04f 0100 	mov.w	r1, #0
 8000540:	e750      	b.n	80003e4 <__adddf3+0x138>
 8000542:	bf00      	nop

08000544 <__aeabi_i2d>:
 8000544:	f090 0f00 	teq	r0, #0
 8000548:	bf04      	itt	eq
 800054a:	2100      	moveq	r1, #0
 800054c:	4770      	bxeq	lr
 800054e:	b530      	push	{r4, r5, lr}
 8000550:	f44f 6480 	mov.w	r4, #1024	; 0x400
 8000554:	f104 0432 	add.w	r4, r4, #50	; 0x32
 8000558:	f010 4500 	ands.w	r5, r0, #2147483648	; 0x80000000
 800055c:	bf48      	it	mi
 800055e:	4240      	negmi	r0, r0
 8000560:	f04f 0100 	mov.w	r1, #0
 8000564:	e73e      	b.n	80003e4 <__adddf3+0x138>
 8000566:	bf00      	nop

08000568 <__aeabi_f2d>:
 8000568:	0042      	lsls	r2, r0, #1
 800056a:	ea4f 01e2 	mov.w	r1, r2, asr #3
 800056e:	ea4f 0131 	mov.w	r1, r1, rrx
 8000572:	ea4f 7002 	mov.w	r0, r2, lsl #28
 8000576:	bf1f      	itttt	ne
 8000578:	f012 437f 	andsne.w	r3, r2, #4278190080	; 0xff000000
 800057c:	f093 4f7f 	teqne	r3, #4278190080	; 0xff000000
 8000580:	f081 5160 	eorne.w	r1, r1, #939524096	; 0x38000000
 8000584:	4770      	bxne	lr
 8000586:	f092 0f00 	teq	r2, #0
 800058a:	bf14      	ite	ne
 800058c:	f093 4f7f 	teqne	r3, #4278190080	; 0xff000000
 8000590:	4770      	bxeq	lr
 8000592:	b530      	push	{r4, r5, lr}
 8000594:	f44f 7460 	mov.w	r4, #896	; 0x380
 8000598:	f001 4500 	and.w	r5, r1, #2147483648	; 0x80000000
 800059c:	f021 4100 	bic.w	r1, r1, #2147483648	; 0x80000000
 80005a0:	e720      	b.n	80003e4 <__adddf3+0x138>
 80005a2:	bf00      	nop

080005a4 <__aeabi_ul2d>:
 80005a4:	ea50 0201 	orrs.w	r2, r0, r1
 80005a8:	bf08      	it	eq
 80005aa:	4770      	bxeq	lr
 80005ac:	b530      	push	{r4, r5, lr}
 80005ae:	f04f 0500 	mov.w	r5, #0
 80005b2:	e00a      	b.n	80005ca <__aeabi_l2d+0x16>

080005b4 <__aeabi_l2d>:
 80005b4:	ea50 0201 	orrs.w	r2, r0, r1
 80005b8:	bf08      	it	eq
 80005ba:	4770      	bxeq	lr
 80005bc:	b530      	push	{r4, r5, lr}
 80005be:	f011 4500 	ands.w	r5, r1, #2147483648	; 0x80000000
 80005c2:	d502      	bpl.n	80005ca <__aeabi_l2d+0x16>
 80005c4:	4240      	negs	r0, r0
 80005c6:	eb61 0141 	sbc.w	r1, r1, r1, lsl #1
 80005ca:	f44f 6480 	mov.w	r4, #1024	; 0x400
 80005ce:	f104 0432 	add.w	r4, r4, #50	; 0x32
 80005d2:	ea5f 5c91 	movs.w	ip, r1, lsr #22
 80005d6:	f43f aedc 	beq.w	8000392 <__adddf3+0xe6>
 80005da:	f04f 0203 	mov.w	r2, #3
 80005de:	ea5f 0cdc 	movs.w	ip, ip, lsr #3
 80005e2:	bf18      	it	ne
 80005e4:	3203      	addne	r2, #3
 80005e6:	ea5f 0cdc 	movs.w	ip, ip, lsr #3
 80005ea:	bf18      	it	ne
 80005ec:	3203      	addne	r2, #3
 80005ee:	eb02 02dc 	add.w	r2, r2, ip, lsr #3
 80005f2:	f1c2 0320 	rsb	r3, r2, #32
 80005f6:	fa00 fc03 	lsl.w	ip, r0, r3
 80005fa:	fa20 f002 	lsr.w	r0, r0, r2
 80005fe:	fa01 fe03 	lsl.w	lr, r1, r3
 8000602:	ea40 000e 	orr.w	r0, r0, lr
 8000606:	fa21 f102 	lsr.w	r1, r1, r2
 800060a:	4414      	add	r4, r2
 800060c:	e6c1      	b.n	8000392 <__adddf3+0xe6>
 800060e:	bf00      	nop

08000610 <__aeabi_dmul>:
 8000610:	b570      	push	{r4, r5, r6, lr}
 8000612:	f04f 0cff 	mov.w	ip, #255	; 0xff
 8000616:	f44c 6ce0 	orr.w	ip, ip, #1792	; 0x700
 800061a:	ea1c 5411 	ands.w	r4, ip, r1, lsr #20
 800061e:	bf1d      	ittte	ne
 8000620:	ea1c 5513 	andsne.w	r5, ip, r3, lsr #20
 8000624:	ea94 0f0c 	teqne	r4, ip
 8000628:	ea95 0f0c 	teqne	r5, ip
 800062c:	f000 f8de 	bleq	80007ec <__aeabi_dmul+0x1dc>
 8000630:	442c      	add	r4, r5
 8000632:	ea81 0603 	eor.w	r6, r1, r3
 8000636:	ea21 514c 	bic.w	r1, r1, ip, lsl #21
 800063a:	ea23 534c 	bic.w	r3, r3, ip, lsl #21
 800063e:	ea50 3501 	orrs.w	r5, r0, r1, lsl #12
 8000642:	bf18      	it	ne
 8000644:	ea52 3503 	orrsne.w	r5, r2, r3, lsl #12
 8000648:	f441 1180 	orr.w	r1, r1, #1048576	; 0x100000
 800064c:	f443 1380 	orr.w	r3, r3, #1048576	; 0x100000
 8000650:	d038      	beq.n	80006c4 <__aeabi_dmul+0xb4>
 8000652:	fba0 ce02 	umull	ip, lr, r0, r2
 8000656:	f04f 0500 	mov.w	r5, #0
 800065a:	fbe1 e502 	umlal	lr, r5, r1, r2
 800065e:	f006 4200 	and.w	r2, r6, #2147483648	; 0x80000000
 8000662:	fbe0 e503 	umlal	lr, r5, r0, r3
 8000666:	f04f 0600 	mov.w	r6, #0
 800066a:	fbe1 5603 	umlal	r5, r6, r1, r3
 800066e:	f09c 0f00 	teq	ip, #0
 8000672:	bf18      	it	ne
 8000674:	f04e 0e01 	orrne.w	lr, lr, #1
 8000678:	f1a4 04ff 	sub.w	r4, r4, #255	; 0xff
 800067c:	f5b6 7f00 	cmp.w	r6, #512	; 0x200
 8000680:	f564 7440 	sbc.w	r4, r4, #768	; 0x300
 8000684:	d204      	bcs.n	8000690 <__aeabi_dmul+0x80>
 8000686:	ea5f 0e4e 	movs.w	lr, lr, lsl #1
 800068a:	416d      	adcs	r5, r5
 800068c:	eb46 0606 	adc.w	r6, r6, r6
 8000690:	ea42 21c6 	orr.w	r1, r2, r6, lsl #11
 8000694:	ea41 5155 	orr.w	r1, r1, r5, lsr #21
 8000698:	ea4f 20c5 	mov.w	r0, r5, lsl #11
 800069c:	ea40 505e 	orr.w	r0, r0, lr, lsr #21
 80006a0:	ea4f 2ece 	mov.w	lr, lr, lsl #11
 80006a4:	f1b4 0cfd 	subs.w	ip, r4, #253	; 0xfd
 80006a8:	bf88      	it	hi
 80006aa:	f5bc 6fe0 	cmphi.w	ip, #1792	; 0x700
 80006ae:	d81e      	bhi.n	80006ee <__aeabi_dmul+0xde>
 80006b0:	f1be 4f00 	cmp.w	lr, #2147483648	; 0x80000000
 80006b4:	bf08      	it	eq
 80006b6:	ea5f 0e50 	movseq.w	lr, r0, lsr #1
 80006ba:	f150 0000 	adcs.w	r0, r0, #0
 80006be:	eb41 5104 	adc.w	r1, r1, r4, lsl #20
 80006c2:	bd70      	pop	{r4, r5, r6, pc}
 80006c4:	f006 4600 	and.w	r6, r6, #2147483648	; 0x80000000
 80006c8:	ea46 0101 	orr.w	r1, r6, r1
 80006cc:	ea40 0002 	orr.w	r0, r0, r2
 80006d0:	ea81 0103 	eor.w	r1, r1, r3
 80006d4:	ebb4 045c 	subs.w	r4, r4, ip, lsr #1
 80006d8:	bfc2      	ittt	gt
 80006da:	ebd4 050c 	rsbsgt	r5, r4, ip
 80006de:	ea41 5104 	orrgt.w	r1, r1, r4, lsl #20
 80006e2:	bd70      	popgt	{r4, r5, r6, pc}
 80006e4:	f441 1180 	orr.w	r1, r1, #1048576	; 0x100000
 80006e8:	f04f 0e00 	mov.w	lr, #0
 80006ec:	3c01      	subs	r4, #1
 80006ee:	f300 80ab 	bgt.w	8000848 <__aeabi_dmul+0x238>
 80006f2:	f114 0f36 	cmn.w	r4, #54	; 0x36
 80006f6:	bfde      	ittt	le
 80006f8:	2000      	movle	r0, #0
 80006fa:	f001 4100 	andle.w	r1, r1, #2147483648	; 0x80000000
 80006fe:	bd70      	pople	{r4, r5, r6, pc}
 8000700:	f1c4 0400 	rsb	r4, r4, #0
 8000704:	3c20      	subs	r4, #32
 8000706:	da35      	bge.n	8000774 <__aeabi_dmul+0x164>
 8000708:	340c      	adds	r4, #12
 800070a:	dc1b      	bgt.n	8000744 <__aeabi_dmul+0x134>
 800070c:	f104 0414 	add.w	r4, r4, #20
 8000710:	f1c4 0520 	rsb	r5, r4, #32
 8000714:	fa00 f305 	lsl.w	r3, r0, r5
 8000718:	fa20 f004 	lsr.w	r0, r0, r4
 800071c:	fa01 f205 	lsl.w	r2, r1, r5
 8000720:	ea40 0002 	orr.w	r0, r0, r2
 8000724:	f001 4200 	and.w	r2, r1, #2147483648	; 0x80000000
 8000728:	f021 4100 	bic.w	r1, r1, #2147483648	; 0x80000000
 800072c:	eb10 70d3 	adds.w	r0, r0, r3, lsr #31
 8000730:	fa21 f604 	lsr.w	r6, r1, r4
 8000734:	eb42 0106 	adc.w	r1, r2, r6
 8000738:	ea5e 0e43 	orrs.w	lr, lr, r3, lsl #1
 800073c:	bf08      	it	eq
 800073e:	ea20 70d3 	biceq.w	r0, r0, r3, lsr #31
 8000742:	bd70      	pop	{r4, r5, r6, pc}
 8000744:	f1c4 040c 	rsb	r4, r4, #12
 8000748:	f1c4 0520 	rsb	r5, r4, #32
 800074c:	fa00 f304 	lsl.w	r3, r0, r4
 8000750:	fa20 f005 	lsr.w	r0, r0, r5
 8000754:	fa01 f204 	lsl.w	r2, r1, r4
 8000758:	ea40 0002 	orr.w	r0, r0, r2
 800075c:	f001 4100 	and.w	r1, r1, #2147483648	; 0x80000000
 8000760:	eb10 70d3 	adds.w	r0, r0, r3, lsr #31
 8000764:	f141 0100 	adc.w	r1, r1, #0
 8000768:	ea5e 0e43 	orrs.w	lr, lr, r3, lsl #1
 800076c:	bf08      	it	eq
 800076e:	ea20 70d3 	biceq.w	r0, r0, r3, lsr #31
 8000772:	bd70      	pop	{r4, r5, r6, pc}
 8000774:	f1c4 0520 	rsb	r5, r4, #32
 8000778:	fa00 f205 	lsl.w	r2, r0, r5
 800077c:	ea4e 0e02 	orr.w	lr, lr, r2
 8000780:	fa20 f304 	lsr.w	r3, r0, r4
 8000784:	fa01 f205 	lsl.w	r2, r1, r5
 8000788:	ea43 0302 	orr.w	r3, r3, r2
 800078c:	fa21 f004 	lsr.w	r0, r1, r4
 8000790:	f001 4100 	and.w	r1, r1, #2147483648	; 0x80000000
 8000794:	fa21 f204 	lsr.w	r2, r1, r4
 8000798:	ea20 0002 	bic.w	r0, r0, r2
 800079c:	eb00 70d3 	add.w	r0, r0, r3, lsr #31
 80007a0:	ea5e 0e43 	orrs.w	lr, lr, r3, lsl #1
 80007a4:	bf08      	it	eq
 80007a6:	ea20 70d3 	biceq.w	r0, r0, r3, lsr #31
 80007aa:	bd70      	pop	{r4, r5, r6, pc}
 80007ac:	f094 0f00 	teq	r4, #0
 80007b0:	d10f      	bne.n	80007d2 <__aeabi_dmul+0x1c2>
 80007b2:	f001 4600 	and.w	r6, r1, #2147483648	; 0x80000000
 80007b6:	0040      	lsls	r0, r0, #1
 80007b8:	eb41 0101 	adc.w	r1, r1, r1
 80007bc:	f411 1f80 	tst.w	r1, #1048576	; 0x100000
 80007c0:	bf08      	it	eq
 80007c2:	3c01      	subeq	r4, #1
 80007c4:	d0f7      	beq.n	80007b6 <__aeabi_dmul+0x1a6>
 80007c6:	ea41 0106 	orr.w	r1, r1, r6
 80007ca:	f095 0f00 	teq	r5, #0
 80007ce:	bf18      	it	ne
 80007d0:	4770      	bxne	lr
 80007d2:	f003 4600 	and.w	r6, r3, #2147483648	; 0x80000000
 80007d6:	0052      	lsls	r2, r2, #1
 80007d8:	eb43 0303 	adc.w	r3, r3, r3
 80007dc:	f413 1f80 	tst.w	r3, #1048576	; 0x100000
 80007e0:	bf08      	it	eq
 80007e2:	3d01      	subeq	r5, #1
 80007e4:	d0f7      	beq.n	80007d6 <__aeabi_dmul+0x1c6>
 80007e6:	ea43 0306 	orr.w	r3, r3, r6
 80007ea:	4770      	bx	lr
 80007ec:	ea94 0f0c 	teq	r4, ip
 80007f0:	ea0c 5513 	and.w	r5, ip, r3, lsr #20
 80007f4:	bf18      	it	ne
 80007f6:	ea95 0f0c 	teqne	r5, ip
 80007fa:	d00c      	beq.n	8000816 <__aeabi_dmul+0x206>
 80007fc:	ea50 0641 	orrs.w	r6, r0, r1, lsl #1
 8000800:	bf18      	it	ne
 8000802:	ea52 0643 	orrsne.w	r6, r2, r3, lsl #1
 8000806:	d1d1      	bne.n	80007ac <__aeabi_dmul+0x19c>
 8000808:	ea81 0103 	eor.w	r1, r1, r3
 800080c:	f001 4100 	and.w	r1, r1, #2147483648	; 0x80000000
 8000810:	f04f 0000 	mov.w	r0, #0
 8000814:	bd70      	pop	{r4, r5, r6, pc}
 8000816:	ea50 0641 	orrs.w	r6, r0, r1, lsl #1
 800081a:	bf06      	itte	eq
 800081c:	4610      	moveq	r0, r2
 800081e:	4619      	moveq	r1, r3
 8000820:	ea52 0643 	orrsne.w	r6, r2, r3, lsl #1
 8000824:	d019      	beq.n	800085a <__aeabi_dmul+0x24a>
 8000826:	ea94 0f0c 	teq	r4, ip
 800082a:	d102      	bne.n	8000832 <__aeabi_dmul+0x222>
 800082c:	ea50 3601 	orrs.w	r6, r0, r1, lsl #12
 8000830:	d113      	bne.n	800085a <__aeabi_dmul+0x24a>
 8000832:	ea95 0f0c 	teq	r5, ip
 8000836:	d105      	bne.n	8000844 <__aeabi_dmul+0x234>
 8000838:	ea52 3603 	orrs.w	r6, r2, r3, lsl #12
 800083c:	bf1c      	itt	ne
 800083e:	4610      	movne	r0, r2
 8000840:	4619      	movne	r1, r3
 8000842:	d10a      	bne.n	800085a <__aeabi_dmul+0x24a>
 8000844:	ea81 0103 	eor.w	r1, r1, r3
 8000848:	f001 4100 	and.w	r1, r1, #2147483648	; 0x80000000
 800084c:	f041 41fe 	orr.w	r1, r1, #2130706432	; 0x7f000000
 8000850:	f441 0170 	orr.w	r1, r1, #15728640	; 0xf00000
 8000854:	f04f 0000 	mov.w	r0, #0
 8000858:	bd70      	pop	{r4, r5, r6, pc}
 800085a:	f041 41fe 	orr.w	r1, r1, #2130706432	; 0x7f000000
 800085e:	f441 0178 	orr.w	r1, r1, #16252928	; 0xf80000
 8000862:	bd70      	pop	{r4, r5, r6, pc}

08000864 <__aeabi_ddiv>:
 8000864:	b570      	push	{r4, r5, r6, lr}
 8000866:	f04f 0cff 	mov.w	ip, #255	; 0xff
 800086a:	f44c 6ce0 	orr.w	ip, ip, #1792	; 0x700
 800086e:	ea1c 5411 	ands.w	r4, ip, r1, lsr #20
 8000872:	bf1d      	ittte	ne
 8000874:	ea1c 5513 	andsne.w	r5, ip, r3, lsr #20
 8000878:	ea94 0f0c 	teqne	r4, ip
 800087c:	ea95 0f0c 	teqne	r5, ip
 8000880:	f000 f8a7 	bleq	80009d2 <__aeabi_ddiv+0x16e>
 8000884:	eba4 0405 	sub.w	r4, r4, r5
 8000888:	ea81 0e03 	eor.w	lr, r1, r3
 800088c:	ea52 3503 	orrs.w	r5, r2, r3, lsl #12
 8000890:	ea4f 3101 	mov.w	r1, r1, lsl #12
 8000894:	f000 8088 	beq.w	80009a8 <__aeabi_ddiv+0x144>
 8000898:	ea4f 3303 	mov.w	r3, r3, lsl #12
 800089c:	f04f 5580 	mov.w	r5, #268435456	; 0x10000000
 80008a0:	ea45 1313 	orr.w	r3, r5, r3, lsr #4
 80008a4:	ea43 6312 	orr.w	r3, r3, r2, lsr #24
 80008a8:	ea4f 2202 	mov.w	r2, r2, lsl #8
 80008ac:	ea45 1511 	orr.w	r5, r5, r1, lsr #4
 80008b0:	ea45 6510 	orr.w	r5, r5, r0, lsr #24
 80008b4:	ea4f 2600 	mov.w	r6, r0, lsl #8
 80008b8:	f00e 4100 	and.w	r1, lr, #2147483648	; 0x80000000
 80008bc:	429d      	cmp	r5, r3
 80008be:	bf08      	it	eq
 80008c0:	4296      	cmpeq	r6, r2
 80008c2:	f144 04fd 	adc.w	r4, r4, #253	; 0xfd
 80008c6:	f504 7440 	add.w	r4, r4, #768	; 0x300
 80008ca:	d202      	bcs.n	80008d2 <__aeabi_ddiv+0x6e>
 80008cc:	085b      	lsrs	r3, r3, #1
 80008ce:	ea4f 0232 	mov.w	r2, r2, rrx
 80008d2:	1ab6      	subs	r6, r6, r2
 80008d4:	eb65 0503 	sbc.w	r5, r5, r3
 80008d8:	085b      	lsrs	r3, r3, #1
 80008da:	ea4f 0232 	mov.w	r2, r2, rrx
 80008de:	f44f 1080 	mov.w	r0, #1048576	; 0x100000
 80008e2:	f44f 2c00 	mov.w	ip, #524288	; 0x80000
 80008e6:	ebb6 0e02 	subs.w	lr, r6, r2
 80008ea:	eb75 0e03 	sbcs.w	lr, r5, r3
 80008ee:	bf22      	ittt	cs
 80008f0:	1ab6      	subcs	r6, r6, r2
 80008f2:	4675      	movcs	r5, lr
 80008f4:	ea40 000c 	orrcs.w	r0, r0, ip
 80008f8:	085b      	lsrs	r3, r3, #1
 80008fa:	ea4f 0232 	mov.w	r2, r2, rrx
 80008fe:	ebb6 0e02 	subs.w	lr, r6, r2
 8000902:	eb75 0e03 	sbcs.w	lr, r5, r3
 8000906:	bf22      	ittt	cs
 8000908:	1ab6      	subcs	r6, r6, r2
 800090a:	4675      	movcs	r5, lr
 800090c:	ea40 005c 	orrcs.w	r0, r0, ip, lsr #1
 8000910:	085b      	lsrs	r3, r3, #1
 8000912:	ea4f 0232 	mov.w	r2, r2, rrx
 8000916:	ebb6 0e02 	subs.w	lr, r6, r2
 800091a:	eb75 0e03 	sbcs.w	lr, r5, r3
 800091e:	bf22      	ittt	cs
 8000920:	1ab6      	subcs	r6, r6, r2
 8000922:	4675      	movcs	r5, lr
 8000924:	ea40 009c 	orrcs.w	r0, r0, ip, lsr #2
 8000928:	085b      	lsrs	r3, r3, #1
 800092a:	ea4f 0232 	mov.w	r2, r2, rrx
 800092e:	ebb6 0e02 	subs.w	lr, r6, r2
 8000932:	eb75 0e03 	sbcs.w	lr, r5, r3
 8000936:	bf22      	ittt	cs
 8000938:	1ab6      	subcs	r6, r6, r2
 800093a:	4675      	movcs	r5, lr
 800093c:	ea40 00dc 	orrcs.w	r0, r0, ip, lsr #3
 8000940:	ea55 0e06 	orrs.w	lr, r5, r6
 8000944:	d018      	beq.n	8000978 <__aeabi_ddiv+0x114>
 8000946:	ea4f 1505 	mov.w	r5, r5, lsl #4
 800094a:	ea45 7516 	orr.w	r5, r5, r6, lsr #28
 800094e:	ea4f 1606 	mov.w	r6, r6, lsl #4
 8000952:	ea4f 03c3 	mov.w	r3, r3, lsl #3
 8000956:	ea43 7352 	orr.w	r3, r3, r2, lsr #29
 800095a:	ea4f 02c2 	mov.w	r2, r2, lsl #3
 800095e:	ea5f 1c1c 	movs.w	ip, ip, lsr #4
 8000962:	d1c0      	bne.n	80008e6 <__aeabi_ddiv+0x82>
 8000964:	f411 1f80 	tst.w	r1, #1048576	; 0x100000
 8000968:	d10b      	bne.n	8000982 <__aeabi_ddiv+0x11e>
 800096a:	ea41 0100 	orr.w	r1, r1, r0
 800096e:	f04f 0000 	mov.w	r0, #0
 8000972:	f04f 4c00 	mov.w	ip, #2147483648	; 0x80000000
 8000976:	e7b6      	b.n	80008e6 <__aeabi_ddiv+0x82>
 8000978:	f411 1f80 	tst.w	r1, #1048576	; 0x100000
 800097c:	bf04      	itt	eq
 800097e:	4301      	orreq	r1, r0
 8000980:	2000      	moveq	r0, #0
 8000982:	f1b4 0cfd 	subs.w	ip, r4, #253	; 0xfd
 8000986:	bf88      	it	hi
 8000988:	f5bc 6fe0 	cmphi.w	ip, #1792	; 0x700
 800098c:	f63f aeaf 	bhi.w	80006ee <__aeabi_dmul+0xde>
 8000990:	ebb5 0c03 	subs.w	ip, r5, r3
 8000994:	bf04      	itt	eq
 8000996:	ebb6 0c02 	subseq.w	ip, r6, r2
 800099a:	ea5f 0c50 	movseq.w	ip, r0, lsr #1
 800099e:	f150 0000 	adcs.w	r0, r0, #0
 80009a2:	eb41 5104 	adc.w	r1, r1, r4, lsl #20
 80009a6:	bd70      	pop	{r4, r5, r6, pc}
 80009a8:	f00e 4e00 	and.w	lr, lr, #2147483648	; 0x80000000
 80009ac:	ea4e 3111 	orr.w	r1, lr, r1, lsr #12
 80009b0:	eb14 045c 	adds.w	r4, r4, ip, lsr #1
 80009b4:	bfc2      	ittt	gt
 80009b6:	ebd4 050c 	rsbsgt	r5, r4, ip
 80009ba:	ea41 5104 	orrgt.w	r1, r1, r4, lsl #20
 80009be:	bd70      	popgt	{r4, r5, r6, pc}
 80009c0:	f441 1180 	orr.w	r1, r1, #1048576	; 0x100000
 80009c4:	f04f 0e00 	mov.w	lr, #0
 80009c8:	3c01      	subs	r4, #1
 80009ca:	e690      	b.n	80006ee <__aeabi_dmul+0xde>
 80009cc:	ea45 0e06 	orr.w	lr, r5, r6
 80009d0:	e68d      	b.n	80006ee <__aeabi_dmul+0xde>
 80009d2:	ea0c 5513 	and.w	r5, ip, r3, lsr #20
 80009d6:	ea94 0f0c 	teq	r4, ip
 80009da:	bf08      	it	eq
 80009dc:	ea95 0f0c 	teqeq	r5, ip
 80009e0:	f43f af3b 	beq.w	800085a <__aeabi_dmul+0x24a>
 80009e4:	ea94 0f0c 	teq	r4, ip
 80009e8:	d10a      	bne.n	8000a00 <__aeabi_ddiv+0x19c>
 80009ea:	ea50 3401 	orrs.w	r4, r0, r1, lsl #12
 80009ee:	f47f af34 	bne.w	800085a <__aeabi_dmul+0x24a>
 80009f2:	ea95 0f0c 	teq	r5, ip
 80009f6:	f47f af25 	bne.w	8000844 <__aeabi_dmul+0x234>
 80009fa:	4610      	mov	r0, r2
 80009fc:	4619      	mov	r1, r3
 80009fe:	e72c      	b.n	800085a <__aeabi_dmul+0x24a>
 8000a00:	ea95 0f0c 	teq	r5, ip
 8000a04:	d106      	bne.n	8000a14 <__aeabi_ddiv+0x1b0>
 8000a06:	ea52 3503 	orrs.w	r5, r2, r3, lsl #12
 8000a0a:	f43f aefd 	beq.w	8000808 <__aeabi_dmul+0x1f8>
 8000a0e:	4610      	mov	r0, r2
 8000a10:	4619      	mov	r1, r3
 8000a12:	e722      	b.n	800085a <__aeabi_dmul+0x24a>
 8000a14:	ea50 0641 	orrs.w	r6, r0, r1, lsl #1
 8000a18:	bf18      	it	ne
 8000a1a:	ea52 0643 	orrsne.w	r6, r2, r3, lsl #1
 8000a1e:	f47f aec5 	bne.w	80007ac <__aeabi_dmul+0x19c>
 8000a22:	ea50 0441 	orrs.w	r4, r0, r1, lsl #1
 8000a26:	f47f af0d 	bne.w	8000844 <__aeabi_dmul+0x234>
 8000a2a:	ea52 0543 	orrs.w	r5, r2, r3, lsl #1
 8000a2e:	f47f aeeb 	bne.w	8000808 <__aeabi_dmul+0x1f8>
 8000a32:	e712      	b.n	800085a <__aeabi_dmul+0x24a>

08000a34 <__gedf2>:
 8000a34:	f04f 3cff 	mov.w	ip, #4294967295
 8000a38:	e006      	b.n	8000a48 <__cmpdf2+0x4>
 8000a3a:	bf00      	nop

08000a3c <__ledf2>:
 8000a3c:	f04f 0c01 	mov.w	ip, #1
 8000a40:	e002      	b.n	8000a48 <__cmpdf2+0x4>
 8000a42:	bf00      	nop

08000a44 <__cmpdf2>:
 8000a44:	f04f 0c01 	mov.w	ip, #1
 8000a48:	f84d cd04 	str.w	ip, [sp, #-4]!
 8000a4c:	ea4f 0c41 	mov.w	ip, r1, lsl #1
 8000a50:	ea7f 5c6c 	mvns.w	ip, ip, asr #21
 8000a54:	ea4f 0c43 	mov.w	ip, r3, lsl #1
 8000a58:	bf18      	it	ne
 8000a5a:	ea7f 5c6c 	mvnsne.w	ip, ip, asr #21
 8000a5e:	d01b      	beq.n	8000a98 <__cmpdf2+0x54>
 8000a60:	b001      	add	sp, #4
 8000a62:	ea50 0c41 	orrs.w	ip, r0, r1, lsl #1
 8000a66:	bf0c      	ite	eq
 8000a68:	ea52 0c43 	orrseq.w	ip, r2, r3, lsl #1
 8000a6c:	ea91 0f03 	teqne	r1, r3
 8000a70:	bf02      	ittt	eq
 8000a72:	ea90 0f02 	teqeq	r0, r2
 8000a76:	2000      	moveq	r0, #0
 8000a78:	4770      	bxeq	lr
 8000a7a:	f110 0f00 	cmn.w	r0, #0
 8000a7e:	ea91 0f03 	teq	r1, r3
 8000a82:	bf58      	it	pl
 8000a84:	4299      	cmppl	r1, r3
 8000a86:	bf08      	it	eq
 8000a88:	4290      	cmpeq	r0, r2
 8000a8a:	bf2c      	ite	cs
 8000a8c:	17d8      	asrcs	r0, r3, #31
 8000a8e:	ea6f 70e3 	mvncc.w	r0, r3, asr #31
 8000a92:	f040 0001 	orr.w	r0, r0, #1
 8000a96:	4770      	bx	lr
 8000a98:	ea4f 0c41 	mov.w	ip, r1, lsl #1
 8000a9c:	ea7f 5c6c 	mvns.w	ip, ip, asr #21
 8000aa0:	d102      	bne.n	8000aa8 <__cmpdf2+0x64>
 8000aa2:	ea50 3c01 	orrs.w	ip, r0, r1, lsl #12
 8000aa6:	d107      	bne.n	8000ab8 <__cmpdf2+0x74>
 8000aa8:	ea4f 0c43 	mov.w	ip, r3, lsl #1
 8000aac:	ea7f 5c6c 	mvns.w	ip, ip, asr #21
 8000ab0:	d1d6      	bne.n	8000a60 <__cmpdf2+0x1c>
 8000ab2:	ea52 3c03 	orrs.w	ip, r2, r3, lsl #12
 8000ab6:	d0d3      	beq.n	8000a60 <__cmpdf2+0x1c>
 8000ab8:	f85d 0b04 	ldr.w	r0, [sp], #4
 8000abc:	4770      	bx	lr
 8000abe:	bf00      	nop

08000ac0 <__aeabi_cdrcmple>:
 8000ac0:	4684      	mov	ip, r0
 8000ac2:	4610      	mov	r0, r2
 8000ac4:	4662      	mov	r2, ip
 8000ac6:	468c      	mov	ip, r1
 8000ac8:	4619      	mov	r1, r3
 8000aca:	4663      	mov	r3, ip
 8000acc:	e000      	b.n	8000ad0 <__aeabi_cdcmpeq>
 8000ace:	bf00      	nop

08000ad0 <__aeabi_cdcmpeq>:
 8000ad0:	b501      	push	{r0, lr}
 8000ad2:	f7ff ffb7 	bl	8000a44 <__cmpdf2>
 8000ad6:	2800      	cmp	r0, #0
 8000ad8:	bf48      	it	mi
 8000ada:	f110 0f00 	cmnmi.w	r0, #0
 8000ade:	bd01      	pop	{r0, pc}

08000ae0 <__aeabi_dcmpeq>:
 8000ae0:	f84d ed08 	str.w	lr, [sp, #-8]!
 8000ae4:	f7ff fff4 	bl	8000ad0 <__aeabi_cdcmpeq>
 8000ae8:	bf0c      	ite	eq
 8000aea:	2001      	moveq	r0, #1
 8000aec:	2000      	movne	r0, #0
 8000aee:	f85d fb08 	ldr.w	pc, [sp], #8
 8000af2:	bf00      	nop

08000af4 <__aeabi_dcmplt>:
 8000af4:	f84d ed08 	str.w	lr, [sp, #-8]!
 8000af8:	f7ff ffea 	bl	8000ad0 <__aeabi_cdcmpeq>
 8000afc:	bf34      	ite	cc
 8000afe:	2001      	movcc	r0, #1
 8000b00:	2000      	movcs	r0, #0
 8000b02:	f85d fb08 	ldr.w	pc, [sp], #8
 8000b06:	bf00      	nop

08000b08 <__aeabi_dcmple>:
 8000b08:	f84d ed08 	str.w	lr, [sp, #-8]!
 8000b0c:	f7ff ffe0 	bl	8000ad0 <__aeabi_cdcmpeq>
 8000b10:	bf94      	ite	ls
 8000b12:	2001      	movls	r0, #1
 8000b14:	2000      	movhi	r0, #0
 8000b16:	f85d fb08 	ldr.w	pc, [sp], #8
 8000b1a:	bf00      	nop

08000b1c <__aeabi_dcmpge>:
 8000b1c:	f84d ed08 	str.w	lr, [sp, #-8]!
 8000b20:	f7ff ffce 	bl	8000ac0 <__aeabi_cdrcmple>
 8000b24:	bf94      	ite	ls
 8000b26:	2001      	movls	r0, #1
 8000b28:	2000      	movhi	r0, #0
 8000b2a:	f85d fb08 	ldr.w	pc, [sp], #8
 8000b2e:	bf00      	nop

08000b30 <__aeabi_dcmpgt>:
 8000b30:	f84d ed08 	str.w	lr, [sp, #-8]!
 8000b34:	f7ff ffc4 	bl	8000ac0 <__aeabi_cdrcmple>
 8000b38:	bf34      	ite	cc
 8000b3a:	2001      	movcc	r0, #1
 8000b3c:	2000      	movcs	r0, #0
 8000b3e:	f85d fb08 	ldr.w	pc, [sp], #8
 8000b42:	bf00      	nop

08000b44 <__aeabi_dcmpun>:
 8000b44:	ea4f 0c41 	mov.w	ip, r1, lsl #1
 8000b48:	ea7f 5c6c 	mvns.w	ip, ip, asr #21
 8000b4c:	d102      	bne.n	8000b54 <__aeabi_dcmpun+0x10>
 8000b4e:	ea50 3c01 	orrs.w	ip, r0, r1, lsl #12
 8000b52:	d10a      	bne.n	8000b6a <__aeabi_dcmpun+0x26>
 8000b54:	ea4f 0c43 	mov.w	ip, r3, lsl #1
 8000b58:	ea7f 5c6c 	mvns.w	ip, ip, asr #21
 8000b5c:	d102      	bne.n	8000b64 <__aeabi_dcmpun+0x20>
 8000b5e:	ea52 3c03 	orrs.w	ip, r2, r3, lsl #12
 8000b62:	d102      	bne.n	8000b6a <__aeabi_dcmpun+0x26>
 8000b64:	f04f 0000 	mov.w	r0, #0
 8000b68:	4770      	bx	lr
 8000b6a:	f04f 0001 	mov.w	r0, #1
 8000b6e:	4770      	bx	lr

08000b70 <__aeabi_d2iz>:
 8000b70:	ea4f 0241 	mov.w	r2, r1, lsl #1
 8000b74:	f512 1200 	adds.w	r2, r2, #2097152	; 0x200000
 8000b78:	d215      	bcs.n	8000ba6 <__aeabi_d2iz+0x36>
 8000b7a:	d511      	bpl.n	8000ba0 <__aeabi_d2iz+0x30>
 8000b7c:	f46f 7378 	mvn.w	r3, #992	; 0x3e0
 8000b80:	ebb3 5262 	subs.w	r2, r3, r2, asr #21
 8000b84:	d912      	bls.n	8000bac <__aeabi_d2iz+0x3c>
 8000b86:	ea4f 23c1 	mov.w	r3, r1, lsl #11
 8000b8a:	f043 4300 	orr.w	r3, r3, #2147483648	; 0x80000000
 8000b8e:	ea43 5350 	orr.w	r3, r3, r0, lsr #21
 8000b92:	f011 4f00 	tst.w	r1, #2147483648	; 0x80000000
 8000b96:	fa23 f002 	lsr.w	r0, r3, r2
 8000b9a:	bf18      	it	ne
 8000b9c:	4240      	negne	r0, r0
 8000b9e:	4770      	bx	lr
 8000ba0:	f04f 0000 	mov.w	r0, #0
 8000ba4:	4770      	bx	lr
 8000ba6:	ea50 3001 	orrs.w	r0, r0, r1, lsl #12
 8000baa:	d105      	bne.n	8000bb8 <__aeabi_d2iz+0x48>
 8000bac:	f011 4000 	ands.w	r0, r1, #2147483648	; 0x80000000
 8000bb0:	bf08      	it	eq
 8000bb2:	f06f 4000 	mvneq.w	r0, #2147483648	; 0x80000000
 8000bb6:	4770      	bx	lr
 8000bb8:	f04f 0000 	mov.w	r0, #0
 8000bbc:	4770      	bx	lr
 8000bbe:	bf00      	nop

08000bc0 <__aeabi_uldivmod>:
 8000bc0:	b953      	cbnz	r3, 8000bd8 <__aeabi_uldivmod+0x18>
 8000bc2:	b94a      	cbnz	r2, 8000bd8 <__aeabi_uldivmod+0x18>
 8000bc4:	2900      	cmp	r1, #0
 8000bc6:	bf08      	it	eq
 8000bc8:	2800      	cmpeq	r0, #0
 8000bca:	bf1c      	itt	ne
 8000bcc:	f04f 31ff 	movne.w	r1, #4294967295
 8000bd0:	f04f 30ff 	movne.w	r0, #4294967295
 8000bd4:	f001 b8f6 	b.w	8001dc4 <__aeabi_idiv0>
 8000bd8:	f1ad 0c08 	sub.w	ip, sp, #8
 8000bdc:	e96d ce04 	strd	ip, lr, [sp, #-16]!
 8000be0:	f000 f806 	bl	8000bf0 <__udivmoddi4>
 8000be4:	f8dd e004 	ldr.w	lr, [sp, #4]
 8000be8:	e9dd 2302 	ldrd	r2, r3, [sp, #8]
 8000bec:	b004      	add	sp, #16
 8000bee:	4770      	bx	lr

08000bf0 <__udivmoddi4>:
 8000bf0:	e92d 47f0 	stmdb	sp!, {r4, r5, r6, r7, r8, r9, sl, lr}
 8000bf4:	468c      	mov	ip, r1
 8000bf6:	460d      	mov	r5, r1
 8000bf8:	4604      	mov	r4, r0
 8000bfa:	9e08      	ldr	r6, [sp, #32]
 8000bfc:	2b00      	cmp	r3, #0
 8000bfe:	d151      	bne.n	8000ca4 <__udivmoddi4+0xb4>
 8000c00:	428a      	cmp	r2, r1
 8000c02:	4617      	mov	r7, r2
 8000c04:	d96d      	bls.n	8000ce2 <__udivmoddi4+0xf2>
 8000c06:	fab2 fe82 	clz	lr, r2
 8000c0a:	f1be 0f00 	cmp.w	lr, #0
 8000c0e:	d00b      	beq.n	8000c28 <__udivmoddi4+0x38>
 8000c10:	f1ce 0c20 	rsb	ip, lr, #32
 8000c14:	fa01 f50e 	lsl.w	r5, r1, lr
 8000c18:	fa20 fc0c 	lsr.w	ip, r0, ip
 8000c1c:	fa02 f70e 	lsl.w	r7, r2, lr
 8000c20:	ea4c 0c05 	orr.w	ip, ip, r5
 8000c24:	fa00 f40e 	lsl.w	r4, r0, lr
 8000c28:	ea4f 4a17 	mov.w	sl, r7, lsr #16
 8000c2c:	0c25      	lsrs	r5, r4, #16
 8000c2e:	fbbc f8fa 	udiv	r8, ip, sl
 8000c32:	fa1f f987 	uxth.w	r9, r7
 8000c36:	fb0a cc18 	mls	ip, sl, r8, ip
 8000c3a:	ea45 450c 	orr.w	r5, r5, ip, lsl #16
 8000c3e:	fb08 f309 	mul.w	r3, r8, r9
 8000c42:	42ab      	cmp	r3, r5
 8000c44:	d90a      	bls.n	8000c5c <__udivmoddi4+0x6c>
 8000c46:	19ed      	adds	r5, r5, r7
 8000c48:	f108 32ff 	add.w	r2, r8, #4294967295
 8000c4c:	f080 8123 	bcs.w	8000e96 <__udivmoddi4+0x2a6>
 8000c50:	42ab      	cmp	r3, r5
 8000c52:	f240 8120 	bls.w	8000e96 <__udivmoddi4+0x2a6>
 8000c56:	f1a8 0802 	sub.w	r8, r8, #2
 8000c5a:	443d      	add	r5, r7
 8000c5c:	1aed      	subs	r5, r5, r3
 8000c5e:	b2a4      	uxth	r4, r4
 8000c60:	fbb5 f0fa 	udiv	r0, r5, sl
 8000c64:	fb0a 5510 	mls	r5, sl, r0, r5
 8000c68:	ea44 4405 	orr.w	r4, r4, r5, lsl #16
 8000c6c:	fb00 f909 	mul.w	r9, r0, r9
 8000c70:	45a1      	cmp	r9, r4
 8000c72:	d909      	bls.n	8000c88 <__udivmoddi4+0x98>
 8000c74:	19e4      	adds	r4, r4, r7
 8000c76:	f100 33ff 	add.w	r3, r0, #4294967295
 8000c7a:	f080 810a 	bcs.w	8000e92 <__udivmoddi4+0x2a2>
 8000c7e:	45a1      	cmp	r9, r4
 8000c80:	f240 8107 	bls.w	8000e92 <__udivmoddi4+0x2a2>
 8000c84:	3802      	subs	r0, #2
 8000c86:	443c      	add	r4, r7
 8000c88:	eba4 0409 	sub.w	r4, r4, r9
 8000c8c:	ea40 4008 	orr.w	r0, r0, r8, lsl #16
 8000c90:	2100      	movs	r1, #0
 8000c92:	2e00      	cmp	r6, #0
 8000c94:	d061      	beq.n	8000d5a <__udivmoddi4+0x16a>
 8000c96:	fa24 f40e 	lsr.w	r4, r4, lr
 8000c9a:	2300      	movs	r3, #0
 8000c9c:	6034      	str	r4, [r6, #0]
 8000c9e:	6073      	str	r3, [r6, #4]
 8000ca0:	e8bd 87f0 	ldmia.w	sp!, {r4, r5, r6, r7, r8, r9, sl, pc}
 8000ca4:	428b      	cmp	r3, r1
 8000ca6:	d907      	bls.n	8000cb8 <__udivmoddi4+0xc8>
 8000ca8:	2e00      	cmp	r6, #0
 8000caa:	d054      	beq.n	8000d56 <__udivmoddi4+0x166>
 8000cac:	2100      	movs	r1, #0
 8000cae:	e886 0021 	stmia.w	r6, {r0, r5}
 8000cb2:	4608      	mov	r0, r1
 8000cb4:	e8bd 87f0 	ldmia.w	sp!, {r4, r5, r6, r7, r8, r9, sl, pc}
 8000cb8:	fab3 f183 	clz	r1, r3
 8000cbc:	2900      	cmp	r1, #0
 8000cbe:	f040 808e 	bne.w	8000dde <__udivmoddi4+0x1ee>
 8000cc2:	42ab      	cmp	r3, r5
 8000cc4:	d302      	bcc.n	8000ccc <__udivmoddi4+0xdc>
 8000cc6:	4282      	cmp	r2, r0
 8000cc8:	f200 80fa 	bhi.w	8000ec0 <__udivmoddi4+0x2d0>
 8000ccc:	1a84      	subs	r4, r0, r2
 8000cce:	eb65 0503 	sbc.w	r5, r5, r3
 8000cd2:	2001      	movs	r0, #1
 8000cd4:	46ac      	mov	ip, r5
 8000cd6:	2e00      	cmp	r6, #0
 8000cd8:	d03f      	beq.n	8000d5a <__udivmoddi4+0x16a>
 8000cda:	e886 1010 	stmia.w	r6, {r4, ip}
 8000cde:	e8bd 87f0 	ldmia.w	sp!, {r4, r5, r6, r7, r8, r9, sl, pc}
 8000ce2:	b912      	cbnz	r2, 8000cea <__udivmoddi4+0xfa>
 8000ce4:	2701      	movs	r7, #1
 8000ce6:	fbb7 f7f2 	udiv	r7, r7, r2
 8000cea:	fab7 fe87 	clz	lr, r7
 8000cee:	f1be 0f00 	cmp.w	lr, #0
 8000cf2:	d134      	bne.n	8000d5e <__udivmoddi4+0x16e>
 8000cf4:	1beb      	subs	r3, r5, r7
 8000cf6:	0c3a      	lsrs	r2, r7, #16
 8000cf8:	fa1f fc87 	uxth.w	ip, r7
 8000cfc:	2101      	movs	r1, #1
 8000cfe:	fbb3 f8f2 	udiv	r8, r3, r2
 8000d02:	0c25      	lsrs	r5, r4, #16
 8000d04:	fb02 3318 	mls	r3, r2, r8, r3
 8000d08:	ea45 4503 	orr.w	r5, r5, r3, lsl #16
 8000d0c:	fb0c f308 	mul.w	r3, ip, r8
 8000d10:	42ab      	cmp	r3, r5
 8000d12:	d907      	bls.n	8000d24 <__udivmoddi4+0x134>
 8000d14:	19ed      	adds	r5, r5, r7
 8000d16:	f108 30ff 	add.w	r0, r8, #4294967295
 8000d1a:	d202      	bcs.n	8000d22 <__udivmoddi4+0x132>
 8000d1c:	42ab      	cmp	r3, r5
 8000d1e:	f200 80d1 	bhi.w	8000ec4 <__udivmoddi4+0x2d4>
 8000d22:	4680      	mov	r8, r0
 8000d24:	1aed      	subs	r5, r5, r3
 8000d26:	b2a3      	uxth	r3, r4
 8000d28:	fbb5 f0f2 	udiv	r0, r5, r2
 8000d2c:	fb02 5510 	mls	r5, r2, r0, r5
 8000d30:	ea43 4405 	orr.w	r4, r3, r5, lsl #16
 8000d34:	fb0c fc00 	mul.w	ip, ip, r0
 8000d38:	45a4      	cmp	ip, r4
 8000d3a:	d907      	bls.n	8000d4c <__udivmoddi4+0x15c>
 8000d3c:	19e4      	adds	r4, r4, r7
 8000d3e:	f100 33ff 	add.w	r3, r0, #4294967295
 8000d42:	d202      	bcs.n	8000d4a <__udivmoddi4+0x15a>
 8000d44:	45a4      	cmp	ip, r4
 8000d46:	f200 80b8 	bhi.w	8000eba <__udivmoddi4+0x2ca>
 8000d4a:	4618      	mov	r0, r3
 8000d4c:	eba4 040c 	sub.w	r4, r4, ip
 8000d50:	ea40 4008 	orr.w	r0, r0, r8, lsl #16
 8000d54:	e79d      	b.n	8000c92 <__udivmoddi4+0xa2>
 8000d56:	4631      	mov	r1, r6
 8000d58:	4630      	mov	r0, r6
 8000d5a:	e8bd 87f0 	ldmia.w	sp!, {r4, r5, r6, r7, r8, r9, sl, pc}
 8000d5e:	f1ce 0420 	rsb	r4, lr, #32
 8000d62:	fa05 f30e 	lsl.w	r3, r5, lr
 8000d66:	fa07 f70e 	lsl.w	r7, r7, lr
 8000d6a:	fa20 f804 	lsr.w	r8, r0, r4
 8000d6e:	0c3a      	lsrs	r2, r7, #16
 8000d70:	fa25 f404 	lsr.w	r4, r5, r4
 8000d74:	ea48 0803 	orr.w	r8, r8, r3
 8000d78:	fbb4 f1f2 	udiv	r1, r4, r2
 8000d7c:	ea4f 4518 	mov.w	r5, r8, lsr #16
 8000d80:	fb02 4411 	mls	r4, r2, r1, r4
 8000d84:	fa1f fc87 	uxth.w	ip, r7
 8000d88:	ea45 4504 	orr.w	r5, r5, r4, lsl #16
 8000d8c:	fb01 f30c 	mul.w	r3, r1, ip
 8000d90:	42ab      	cmp	r3, r5
 8000d92:	fa00 f40e 	lsl.w	r4, r0, lr
 8000d96:	d909      	bls.n	8000dac <__udivmoddi4+0x1bc>
 8000d98:	19ed      	adds	r5, r5, r7
 8000d9a:	f101 30ff 	add.w	r0, r1, #4294967295
 8000d9e:	f080 808a 	bcs.w	8000eb6 <__udivmoddi4+0x2c6>
 8000da2:	42ab      	cmp	r3, r5
 8000da4:	f240 8087 	bls.w	8000eb6 <__udivmoddi4+0x2c6>
 8000da8:	3902      	subs	r1, #2
 8000daa:	443d      	add	r5, r7
 8000dac:	1aeb      	subs	r3, r5, r3
 8000dae:	fa1f f588 	uxth.w	r5, r8
 8000db2:	fbb3 f0f2 	udiv	r0, r3, r2
 8000db6:	fb02 3310 	mls	r3, r2, r0, r3
 8000dba:	ea45 4503 	orr.w	r5, r5, r3, lsl #16
 8000dbe:	fb00 f30c 	mul.w	r3, r0, ip
 8000dc2:	42ab      	cmp	r3, r5
 8000dc4:	d907      	bls.n	8000dd6 <__udivmoddi4+0x1e6>
 8000dc6:	19ed      	adds	r5, r5, r7
 8000dc8:	f100 38ff 	add.w	r8, r0, #4294967295
 8000dcc:	d26f      	bcs.n	8000eae <__udivmoddi4+0x2be>
 8000dce:	42ab      	cmp	r3, r5
 8000dd0:	d96d      	bls.n	8000eae <__udivmoddi4+0x2be>
 8000dd2:	3802      	subs	r0, #2
 8000dd4:	443d      	add	r5, r7
 8000dd6:	1aeb      	subs	r3, r5, r3
 8000dd8:	ea40 4101 	orr.w	r1, r0, r1, lsl #16
 8000ddc:	e78f      	b.n	8000cfe <__udivmoddi4+0x10e>
 8000dde:	f1c1 0720 	rsb	r7, r1, #32
 8000de2:	fa22 f807 	lsr.w	r8, r2, r7
 8000de6:	408b      	lsls	r3, r1
 8000de8:	fa05 f401 	lsl.w	r4, r5, r1
 8000dec:	ea48 0303 	orr.w	r3, r8, r3
 8000df0:	fa20 fe07 	lsr.w	lr, r0, r7
 8000df4:	ea4f 4c13 	mov.w	ip, r3, lsr #16
 8000df8:	40fd      	lsrs	r5, r7
 8000dfa:	ea4e 0e04 	orr.w	lr, lr, r4
 8000dfe:	fbb5 f9fc 	udiv	r9, r5, ip
 8000e02:	ea4f 441e 	mov.w	r4, lr, lsr #16
 8000e06:	fb0c 5519 	mls	r5, ip, r9, r5
 8000e0a:	fa1f f883 	uxth.w	r8, r3
 8000e0e:	ea44 4505 	orr.w	r5, r4, r5, lsl #16
 8000e12:	fb09 f408 	mul.w	r4, r9, r8
 8000e16:	42ac      	cmp	r4, r5
 8000e18:	fa02 f201 	lsl.w	r2, r2, r1
 8000e1c:	fa00 fa01 	lsl.w	sl, r0, r1
 8000e20:	d908      	bls.n	8000e34 <__udivmoddi4+0x244>
 8000e22:	18ed      	adds	r5, r5, r3
 8000e24:	f109 30ff 	add.w	r0, r9, #4294967295
 8000e28:	d243      	bcs.n	8000eb2 <__udivmoddi4+0x2c2>
 8000e2a:	42ac      	cmp	r4, r5
 8000e2c:	d941      	bls.n	8000eb2 <__udivmoddi4+0x2c2>
 8000e2e:	f1a9 0902 	sub.w	r9, r9, #2
 8000e32:	441d      	add	r5, r3
 8000e34:	1b2d      	subs	r5, r5, r4
 8000e36:	fa1f fe8e 	uxth.w	lr, lr
 8000e3a:	fbb5 f0fc 	udiv	r0, r5, ip
 8000e3e:	fb0c 5510 	mls	r5, ip, r0, r5
 8000e42:	ea4e 4405 	orr.w	r4, lr, r5, lsl #16
 8000e46:	fb00 f808 	mul.w	r8, r0, r8
 8000e4a:	45a0      	cmp	r8, r4
 8000e4c:	d907      	bls.n	8000e5e <__udivmoddi4+0x26e>
 8000e4e:	18e4      	adds	r4, r4, r3
 8000e50:	f100 35ff 	add.w	r5, r0, #4294967295
 8000e54:	d229      	bcs.n	8000eaa <__udivmoddi4+0x2ba>
 8000e56:	45a0      	cmp	r8, r4
 8000e58:	d927      	bls.n	8000eaa <__udivmoddi4+0x2ba>
 8000e5a:	3802      	subs	r0, #2
 8000e5c:	441c      	add	r4, r3
 8000e5e:	ea40 4009 	orr.w	r0, r0, r9, lsl #16
 8000e62:	eba4 0408 	sub.w	r4, r4, r8
 8000e66:	fba0 8902 	umull	r8, r9, r0, r2
 8000e6a:	454c      	cmp	r4, r9
 8000e6c:	46c6      	mov	lr, r8
 8000e6e:	464d      	mov	r5, r9
 8000e70:	d315      	bcc.n	8000e9e <__udivmoddi4+0x2ae>
 8000e72:	d012      	beq.n	8000e9a <__udivmoddi4+0x2aa>
 8000e74:	b156      	cbz	r6, 8000e8c <__udivmoddi4+0x29c>
 8000e76:	ebba 030e 	subs.w	r3, sl, lr
 8000e7a:	eb64 0405 	sbc.w	r4, r4, r5
 8000e7e:	fa04 f707 	lsl.w	r7, r4, r7
 8000e82:	40cb      	lsrs	r3, r1
 8000e84:	431f      	orrs	r7, r3
 8000e86:	40cc      	lsrs	r4, r1
 8000e88:	6037      	str	r7, [r6, #0]
 8000e8a:	6074      	str	r4, [r6, #4]
 8000e8c:	2100      	movs	r1, #0
 8000e8e:	e8bd 87f0 	ldmia.w	sp!, {r4, r5, r6, r7, r8, r9, sl, pc}
 8000e92:	4618      	mov	r0, r3
 8000e94:	e6f8      	b.n	8000c88 <__udivmoddi4+0x98>
 8000e96:	4690      	mov	r8, r2
 8000e98:	e6e0      	b.n	8000c5c <__udivmoddi4+0x6c>
 8000e9a:	45c2      	cmp	sl, r8
 8000e9c:	d2ea      	bcs.n	8000e74 <__udivmoddi4+0x284>
 8000e9e:	ebb8 0e02 	subs.w	lr, r8, r2
 8000ea2:	eb69 0503 	sbc.w	r5, r9, r3
 8000ea6:	3801      	subs	r0, #1
 8000ea8:	e7e4      	b.n	8000e74 <__udivmoddi4+0x284>
 8000eaa:	4628      	mov	r0, r5
 8000eac:	e7d7      	b.n	8000e5e <__udivmoddi4+0x26e>
 8000eae:	4640      	mov	r0, r8
 8000eb0:	e791      	b.n	8000dd6 <__udivmoddi4+0x1e6>
 8000eb2:	4681      	mov	r9, r0
 8000eb4:	e7be      	b.n	8000e34 <__udivmoddi4+0x244>
 8000eb6:	4601      	mov	r1, r0
 8000eb8:	e778      	b.n	8000dac <__udivmoddi4+0x1bc>
 8000eba:	3802      	subs	r0, #2
 8000ebc:	443c      	add	r4, r7
 8000ebe:	e745      	b.n	8000d4c <__udivmoddi4+0x15c>
 8000ec0:	4608      	mov	r0, r1
 8000ec2:	e708      	b.n	8000cd6 <__udivmoddi4+0xe6>
 8000ec4:	f1a8 0802 	sub.w	r8, r8, #2
 8000ec8:	443d      	add	r5, r7
 8000eca:	e72b      	b.n	8000d24 <__udivmoddi4+0x134>

08000ecc <selfrel_offset31>:
 8000ecc:	6803      	ldr	r3, [r0, #0]
 8000ece:	005a      	lsls	r2, r3, #1
 8000ed0:	bf4c      	ite	mi
 8000ed2:	f043 4300 	orrmi.w	r3, r3, #2147483648	; 0x80000000
 8000ed6:	f023 4300 	bicpl.w	r3, r3, #2147483648	; 0x80000000
 8000eda:	4418      	add	r0, r3
 8000edc:	4770      	bx	lr
 8000ede:	bf00      	nop

08000ee0 <search_EIT_table>:
 8000ee0:	b361      	cbz	r1, 8000f3c <search_EIT_table+0x5c>
 8000ee2:	e92d 4ff8 	stmdb	sp!, {r3, r4, r5, r6, r7, r8, r9, sl, fp, lr}
 8000ee6:	f101 3aff 	add.w	sl, r1, #4294967295
 8000eea:	4690      	mov	r8, r2
 8000eec:	4606      	mov	r6, r0
 8000eee:	46d1      	mov	r9, sl
 8000ef0:	2700      	movs	r7, #0
 8000ef2:	eb07 0409 	add.w	r4, r7, r9
 8000ef6:	eb04 74d4 	add.w	r4, r4, r4, lsr #31
 8000efa:	1064      	asrs	r4, r4, #1
 8000efc:	00e5      	lsls	r5, r4, #3
 8000efe:	1971      	adds	r1, r6, r5
 8000f00:	4608      	mov	r0, r1
 8000f02:	f7ff ffe3 	bl	8000ecc <selfrel_offset31>
 8000f06:	45a2      	cmp	sl, r4
 8000f08:	4683      	mov	fp, r0
 8000f0a:	f105 0008 	add.w	r0, r5, #8
 8000f0e:	4430      	add	r0, r6
 8000f10:	d009      	beq.n	8000f26 <search_EIT_table+0x46>
 8000f12:	f7ff ffdb 	bl	8000ecc <selfrel_offset31>
 8000f16:	45c3      	cmp	fp, r8
 8000f18:	f100 30ff 	add.w	r0, r0, #4294967295
 8000f1c:	d805      	bhi.n	8000f2a <search_EIT_table+0x4a>
 8000f1e:	4540      	cmp	r0, r8
 8000f20:	d209      	bcs.n	8000f36 <search_EIT_table+0x56>
 8000f22:	1c67      	adds	r7, r4, #1
 8000f24:	e7e5      	b.n	8000ef2 <search_EIT_table+0x12>
 8000f26:	45c3      	cmp	fp, r8
 8000f28:	d905      	bls.n	8000f36 <search_EIT_table+0x56>
 8000f2a:	42a7      	cmp	r7, r4
 8000f2c:	d002      	beq.n	8000f34 <search_EIT_table+0x54>
 8000f2e:	f104 39ff 	add.w	r9, r4, #4294967295
 8000f32:	e7de      	b.n	8000ef2 <search_EIT_table+0x12>
 8000f34:	2100      	movs	r1, #0
 8000f36:	4608      	mov	r0, r1
 8000f38:	e8bd 8ff8 	ldmia.w	sp!, {r3, r4, r5, r6, r7, r8, r9, sl, fp, pc}
 8000f3c:	4608      	mov	r0, r1
 8000f3e:	4770      	bx	lr

08000f40 <__gnu_unwind_get_pr_addr>:
 8000f40:	2801      	cmp	r0, #1
 8000f42:	d007      	beq.n	8000f54 <__gnu_unwind_get_pr_addr+0x14>
 8000f44:	2802      	cmp	r0, #2
 8000f46:	d007      	beq.n	8000f58 <__gnu_unwind_get_pr_addr+0x18>
 8000f48:	4b04      	ldr	r3, [pc, #16]	; (8000f5c <__gnu_unwind_get_pr_addr+0x1c>)
 8000f4a:	2800      	cmp	r0, #0
 8000f4c:	bf0c      	ite	eq
 8000f4e:	4618      	moveq	r0, r3
 8000f50:	2000      	movne	r0, #0
 8000f52:	4770      	bx	lr
 8000f54:	4802      	ldr	r0, [pc, #8]	; (8000f60 <__gnu_unwind_get_pr_addr+0x20>)
 8000f56:	4770      	bx	lr
 8000f58:	4802      	ldr	r0, [pc, #8]	; (8000f64 <__gnu_unwind_get_pr_addr+0x24>)
 8000f5a:	4770      	bx	lr
 8000f5c:	08001645 	.word	0x08001645
 8000f60:	08001649 	.word	0x08001649
 8000f64:	0800164d 	.word	0x0800164d

08000f68 <get_eit_entry>:
 8000f68:	b530      	push	{r4, r5, lr}
 8000f6a:	4b24      	ldr	r3, [pc, #144]	; (8000ffc <get_eit_entry+0x94>)
 8000f6c:	b083      	sub	sp, #12
 8000f6e:	4604      	mov	r4, r0
 8000f70:	1e8d      	subs	r5, r1, #2
 8000f72:	b37b      	cbz	r3, 8000fd4 <get_eit_entry+0x6c>
 8000f74:	a901      	add	r1, sp, #4
 8000f76:	4628      	mov	r0, r5
 8000f78:	f3af 8000 	nop.w
 8000f7c:	b320      	cbz	r0, 8000fc8 <get_eit_entry+0x60>
 8000f7e:	9901      	ldr	r1, [sp, #4]
 8000f80:	462a      	mov	r2, r5
 8000f82:	f7ff ffad 	bl	8000ee0 <search_EIT_table>
 8000f86:	4601      	mov	r1, r0
 8000f88:	b1f0      	cbz	r0, 8000fc8 <get_eit_entry+0x60>
 8000f8a:	f7ff ff9f 	bl	8000ecc <selfrel_offset31>
 8000f8e:	684b      	ldr	r3, [r1, #4]
 8000f90:	64a0      	str	r0, [r4, #72]	; 0x48
 8000f92:	2b01      	cmp	r3, #1
 8000f94:	d012      	beq.n	8000fbc <get_eit_entry+0x54>
 8000f96:	2b00      	cmp	r3, #0
 8000f98:	f101 0004 	add.w	r0, r1, #4
 8000f9c:	db20      	blt.n	8000fe0 <get_eit_entry+0x78>
 8000f9e:	f7ff ff95 	bl	8000ecc <selfrel_offset31>
 8000fa2:	2300      	movs	r3, #0
 8000fa4:	64e0      	str	r0, [r4, #76]	; 0x4c
 8000fa6:	6523      	str	r3, [r4, #80]	; 0x50
 8000fa8:	6803      	ldr	r3, [r0, #0]
 8000faa:	2b00      	cmp	r3, #0
 8000fac:	db1c      	blt.n	8000fe8 <get_eit_entry+0x80>
 8000fae:	f7ff ff8d 	bl	8000ecc <selfrel_offset31>
 8000fb2:	2300      	movs	r3, #0
 8000fb4:	6120      	str	r0, [r4, #16]
 8000fb6:	4618      	mov	r0, r3
 8000fb8:	b003      	add	sp, #12
 8000fba:	bd30      	pop	{r4, r5, pc}
 8000fbc:	2300      	movs	r3, #0
 8000fbe:	6123      	str	r3, [r4, #16]
 8000fc0:	2305      	movs	r3, #5
 8000fc2:	4618      	mov	r0, r3
 8000fc4:	b003      	add	sp, #12
 8000fc6:	bd30      	pop	{r4, r5, pc}
 8000fc8:	2300      	movs	r3, #0
 8000fca:	6123      	str	r3, [r4, #16]
 8000fcc:	2309      	movs	r3, #9
 8000fce:	4618      	mov	r0, r3
 8000fd0:	b003      	add	sp, #12
 8000fd2:	bd30      	pop	{r4, r5, pc}
 8000fd4:	490a      	ldr	r1, [pc, #40]	; (8001000 <get_eit_entry+0x98>)
 8000fd6:	480b      	ldr	r0, [pc, #44]	; (8001004 <get_eit_entry+0x9c>)
 8000fd8:	1a09      	subs	r1, r1, r0
 8000fda:	10c9      	asrs	r1, r1, #3
 8000fdc:	9101      	str	r1, [sp, #4]
 8000fde:	e7cf      	b.n	8000f80 <get_eit_entry+0x18>
 8000fe0:	2301      	movs	r3, #1
 8000fe2:	64e0      	str	r0, [r4, #76]	; 0x4c
 8000fe4:	6523      	str	r3, [r4, #80]	; 0x50
 8000fe6:	e7df      	b.n	8000fa8 <get_eit_entry+0x40>
 8000fe8:	f3c3 6003 	ubfx	r0, r3, #24, #4
 8000fec:	f7ff ffa8 	bl	8000f40 <__gnu_unwind_get_pr_addr>
 8000ff0:	2800      	cmp	r0, #0
 8000ff2:	6120      	str	r0, [r4, #16]
 8000ff4:	bf14      	ite	ne
 8000ff6:	2300      	movne	r3, #0
 8000ff8:	2309      	moveq	r3, #9
 8000ffa:	e7dc      	b.n	8000fb6 <get_eit_entry+0x4e>
 8000ffc:	00000000 	.word	0x00000000
 8001000:	0800c084 	.word	0x0800c084
 8001004:	0800bf6c 	.word	0x0800bf6c

08001008 <restore_non_core_regs>:
 8001008:	6803      	ldr	r3, [r0, #0]
 800100a:	07da      	lsls	r2, r3, #31
 800100c:	b510      	push	{r4, lr}
 800100e:	4604      	mov	r4, r0
 8001010:	d406      	bmi.n	8001020 <restore_non_core_regs+0x18>
 8001012:	079b      	lsls	r3, r3, #30
 8001014:	f100 0048 	add.w	r0, r0, #72	; 0x48
 8001018:	d509      	bpl.n	800102e <restore_non_core_regs+0x26>
 800101a:	f000 fc51 	bl	80018c0 <__gnu_Unwind_Restore_VFP_D>
 800101e:	6823      	ldr	r3, [r4, #0]
 8001020:	0759      	lsls	r1, r3, #29
 8001022:	d509      	bpl.n	8001038 <restore_non_core_regs+0x30>
 8001024:	071a      	lsls	r2, r3, #28
 8001026:	d50e      	bpl.n	8001046 <restore_non_core_regs+0x3e>
 8001028:	06db      	lsls	r3, r3, #27
 800102a:	d513      	bpl.n	8001054 <restore_non_core_regs+0x4c>
 800102c:	bd10      	pop	{r4, pc}
 800102e:	f000 fc3f 	bl	80018b0 <__gnu_Unwind_Restore_VFP>
 8001032:	6823      	ldr	r3, [r4, #0]
 8001034:	0759      	lsls	r1, r3, #29
 8001036:	d4f5      	bmi.n	8001024 <restore_non_core_regs+0x1c>
 8001038:	f104 00d0 	add.w	r0, r4, #208	; 0xd0
 800103c:	f000 fc48 	bl	80018d0 <__gnu_Unwind_Restore_VFP_D_16_to_31>
 8001040:	6823      	ldr	r3, [r4, #0]
 8001042:	071a      	lsls	r2, r3, #28
 8001044:	d4f0      	bmi.n	8001028 <restore_non_core_regs+0x20>
 8001046:	f504 70a8 	add.w	r0, r4, #336	; 0x150
 800104a:	f000 fc49 	bl	80018e0 <__gnu_Unwind_Restore_WMMXD>
 800104e:	6823      	ldr	r3, [r4, #0]
 8001050:	06db      	lsls	r3, r3, #27
 8001052:	d4eb      	bmi.n	800102c <restore_non_core_regs+0x24>
 8001054:	f504 70e8 	add.w	r0, r4, #464	; 0x1d0
 8001058:	e8bd 4010 	ldmia.w	sp!, {r4, lr}
 800105c:	f000 bc84 	b.w	8001968 <__gnu_Unwind_Restore_WMMXC>

08001060 <_Unwind_decode_typeinfo_ptr.isra.0>:
 8001060:	6803      	ldr	r3, [r0, #0]
 8001062:	b103      	cbz	r3, 8001066 <_Unwind_decode_typeinfo_ptr.isra.0+0x6>
 8001064:	4403      	add	r3, r0
 8001066:	4618      	mov	r0, r3
 8001068:	4770      	bx	lr
 800106a:	bf00      	nop

0800106c <__gnu_unwind_24bit.isra.1>:
 800106c:	2009      	movs	r0, #9
 800106e:	4770      	bx	lr

08001070 <_Unwind_DebugHook>:
 8001070:	4770      	bx	lr
 8001072:	bf00      	nop

08001074 <unwind_phase2>:
 8001074:	b570      	push	{r4, r5, r6, lr}
 8001076:	4604      	mov	r4, r0
 8001078:	460d      	mov	r5, r1
 800107a:	e008      	b.n	800108e <unwind_phase2+0x1a>
 800107c:	6c2b      	ldr	r3, [r5, #64]	; 0x40
 800107e:	6163      	str	r3, [r4, #20]
 8001080:	462a      	mov	r2, r5
 8001082:	6923      	ldr	r3, [r4, #16]
 8001084:	4621      	mov	r1, r4
 8001086:	2001      	movs	r0, #1
 8001088:	4798      	blx	r3
 800108a:	2808      	cmp	r0, #8
 800108c:	d108      	bne.n	80010a0 <unwind_phase2+0x2c>
 800108e:	6c29      	ldr	r1, [r5, #64]	; 0x40
 8001090:	4620      	mov	r0, r4
 8001092:	f7ff ff69 	bl	8000f68 <get_eit_entry>
 8001096:	4606      	mov	r6, r0
 8001098:	2800      	cmp	r0, #0
 800109a:	d0ef      	beq.n	800107c <unwind_phase2+0x8>
 800109c:	f00a faef 	bl	800b67e <abort>
 80010a0:	2807      	cmp	r0, #7
 80010a2:	d1fb      	bne.n	800109c <unwind_phase2+0x28>
 80010a4:	4630      	mov	r0, r6
 80010a6:	6c29      	ldr	r1, [r5, #64]	; 0x40
 80010a8:	f7ff ffe2 	bl	8001070 <_Unwind_DebugHook>
 80010ac:	1d28      	adds	r0, r5, #4
 80010ae:	f000 fbf3 	bl	8001898 <__restore_core_regs>
 80010b2:	bf00      	nop

080010b4 <unwind_phase2_forced>:
 80010b4:	e92d 47f0 	stmdb	sp!, {r4, r5, r6, r7, r8, r9, sl, lr}
 80010b8:	1d0c      	adds	r4, r1, #4
 80010ba:	4605      	mov	r5, r0
 80010bc:	4692      	mov	sl, r2
 80010be:	cc0f      	ldmia	r4!, {r0, r1, r2, r3}
 80010c0:	f5ad 7d72 	sub.w	sp, sp, #968	; 0x3c8
 80010c4:	ae03      	add	r6, sp, #12
 80010c6:	c60f      	stmia	r6!, {r0, r1, r2, r3}
 80010c8:	cc0f      	ldmia	r4!, {r0, r1, r2, r3}
 80010ca:	c60f      	stmia	r6!, {r0, r1, r2, r3}
 80010cc:	cc0f      	ldmia	r4!, {r0, r1, r2, r3}
 80010ce:	c60f      	stmia	r6!, {r0, r1, r2, r3}
 80010d0:	e894 000f 	ldmia.w	r4, {r0, r1, r2, r3}
 80010d4:	ac02      	add	r4, sp, #8
 80010d6:	f8d5 800c 	ldr.w	r8, [r5, #12]
 80010da:	f8d5 9018 	ldr.w	r9, [r5, #24]
 80010de:	e886 000f 	stmia.w	r6, {r0, r1, r2, r3}
 80010e2:	2300      	movs	r3, #0
 80010e4:	4628      	mov	r0, r5
 80010e6:	6c21      	ldr	r1, [r4, #64]	; 0x40
 80010e8:	6023      	str	r3, [r4, #0]
 80010ea:	f7ff ff3d 	bl	8000f68 <get_eit_entry>
 80010ee:	f1ba 0f00 	cmp.w	sl, #0
 80010f2:	4607      	mov	r7, r0
 80010f4:	bf14      	ite	ne
 80010f6:	260a      	movne	r6, #10
 80010f8:	2609      	moveq	r6, #9
 80010fa:	b17f      	cbz	r7, 800111c <unwind_phase2_forced+0x68>
 80010fc:	6ba3      	ldr	r3, [r4, #56]	; 0x38
 80010fe:	f046 0110 	orr.w	r1, r6, #16
 8001102:	e88d 0210 	stmia.w	sp, {r4, r9}
 8001106:	462a      	mov	r2, r5
 8001108:	6463      	str	r3, [r4, #68]	; 0x44
 800110a:	2001      	movs	r0, #1
 800110c:	462b      	mov	r3, r5
 800110e:	47c0      	blx	r8
 8001110:	bb78      	cbnz	r0, 8001172 <unwind_phase2_forced+0xbe>
 8001112:	4638      	mov	r0, r7
 8001114:	f50d 7d72 	add.w	sp, sp, #968	; 0x3c8
 8001118:	e8bd 87f0 	ldmia.w	sp!, {r4, r5, r6, r7, r8, r9, sl, pc}
 800111c:	6c23      	ldr	r3, [r4, #64]	; 0x40
 800111e:	616b      	str	r3, [r5, #20]
 8001120:	f44f 72f0 	mov.w	r2, #480	; 0x1e0
 8001124:	4621      	mov	r1, r4
 8001126:	a87a      	add	r0, sp, #488	; 0x1e8
 8001128:	f007 f986 	bl	8008438 <memcpy>
 800112c:	692b      	ldr	r3, [r5, #16]
 800112e:	aa7a      	add	r2, sp, #488	; 0x1e8
 8001130:	4629      	mov	r1, r5
 8001132:	4630      	mov	r0, r6
 8001134:	4798      	blx	r3
 8001136:	9b88      	ldr	r3, [sp, #544]	; 0x220
 8001138:	4682      	mov	sl, r0
 800113a:	e88d 0210 	stmia.w	sp, {r4, r9}
 800113e:	4631      	mov	r1, r6
 8001140:	6463      	str	r3, [r4, #68]	; 0x44
 8001142:	462a      	mov	r2, r5
 8001144:	462b      	mov	r3, r5
 8001146:	2001      	movs	r0, #1
 8001148:	47c0      	blx	r8
 800114a:	b990      	cbnz	r0, 8001172 <unwind_phase2_forced+0xbe>
 800114c:	f44f 72f0 	mov.w	r2, #480	; 0x1e0
 8001150:	a97a      	add	r1, sp, #488	; 0x1e8
 8001152:	4620      	mov	r0, r4
 8001154:	f007 f970 	bl	8008438 <memcpy>
 8001158:	f1ba 0f08 	cmp.w	sl, #8
 800115c:	d106      	bne.n	800116c <unwind_phase2_forced+0xb8>
 800115e:	6c21      	ldr	r1, [r4, #64]	; 0x40
 8001160:	4628      	mov	r0, r5
 8001162:	f7ff ff01 	bl	8000f68 <get_eit_entry>
 8001166:	2609      	movs	r6, #9
 8001168:	4607      	mov	r7, r0
 800116a:	e7c6      	b.n	80010fa <unwind_phase2_forced+0x46>
 800116c:	f1ba 0f07 	cmp.w	sl, #7
 8001170:	d005      	beq.n	800117e <unwind_phase2_forced+0xca>
 8001172:	2709      	movs	r7, #9
 8001174:	4638      	mov	r0, r7
 8001176:	f50d 7d72 	add.w	sp, sp, #968	; 0x3c8
 800117a:	e8bd 87f0 	ldmia.w	sp!, {r4, r5, r6, r7, r8, r9, sl, pc}
 800117e:	4638      	mov	r0, r7
 8001180:	6c21      	ldr	r1, [r4, #64]	; 0x40
 8001182:	f7ff ff75 	bl	8001070 <_Unwind_DebugHook>
 8001186:	a803      	add	r0, sp, #12
 8001188:	f000 fb86 	bl	8001898 <__restore_core_regs>

0800118c <_Unwind_GetCFA>:
 800118c:	6c40      	ldr	r0, [r0, #68]	; 0x44
 800118e:	4770      	bx	lr

08001190 <__gnu_Unwind_RaiseException>:
 8001190:	b5f0      	push	{r4, r5, r6, r7, lr}
 8001192:	6bcb      	ldr	r3, [r1, #60]	; 0x3c
 8001194:	640b      	str	r3, [r1, #64]	; 0x40
 8001196:	1d0e      	adds	r6, r1, #4
 8001198:	460f      	mov	r7, r1
 800119a:	4604      	mov	r4, r0
 800119c:	ce0f      	ldmia	r6!, {r0, r1, r2, r3}
 800119e:	b0f9      	sub	sp, #484	; 0x1e4
 80011a0:	ad01      	add	r5, sp, #4
 80011a2:	c50f      	stmia	r5!, {r0, r1, r2, r3}
 80011a4:	ce0f      	ldmia	r6!, {r0, r1, r2, r3}
 80011a6:	c50f      	stmia	r5!, {r0, r1, r2, r3}
 80011a8:	ce0f      	ldmia	r6!, {r0, r1, r2, r3}
 80011aa:	c50f      	stmia	r5!, {r0, r1, r2, r3}
 80011ac:	e896 000f 	ldmia.w	r6, {r0, r1, r2, r3}
 80011b0:	f04f 36ff 	mov.w	r6, #4294967295
 80011b4:	e885 000f 	stmia.w	r5, {r0, r1, r2, r3}
 80011b8:	9600      	str	r6, [sp, #0]
 80011ba:	e006      	b.n	80011ca <__gnu_Unwind_RaiseException+0x3a>
 80011bc:	6923      	ldr	r3, [r4, #16]
 80011be:	466a      	mov	r2, sp
 80011c0:	4621      	mov	r1, r4
 80011c2:	4798      	blx	r3
 80011c4:	2808      	cmp	r0, #8
 80011c6:	4605      	mov	r5, r0
 80011c8:	d108      	bne.n	80011dc <__gnu_Unwind_RaiseException+0x4c>
 80011ca:	9910      	ldr	r1, [sp, #64]	; 0x40
 80011cc:	4620      	mov	r0, r4
 80011ce:	f7ff fecb 	bl	8000f68 <get_eit_entry>
 80011d2:	2800      	cmp	r0, #0
 80011d4:	d0f2      	beq.n	80011bc <__gnu_Unwind_RaiseException+0x2c>
 80011d6:	2009      	movs	r0, #9
 80011d8:	b079      	add	sp, #484	; 0x1e4
 80011da:	bdf0      	pop	{r4, r5, r6, r7, pc}
 80011dc:	4668      	mov	r0, sp
 80011de:	f7ff ff13 	bl	8001008 <restore_non_core_regs>
 80011e2:	2d06      	cmp	r5, #6
 80011e4:	d1f7      	bne.n	80011d6 <__gnu_Unwind_RaiseException+0x46>
 80011e6:	4639      	mov	r1, r7
 80011e8:	4620      	mov	r0, r4
 80011ea:	f7ff ff43 	bl	8001074 <unwind_phase2>
 80011ee:	bf00      	nop

080011f0 <__gnu_Unwind_ForcedUnwind>:
 80011f0:	b430      	push	{r4, r5}
 80011f2:	6bdd      	ldr	r5, [r3, #60]	; 0x3c
 80011f4:	60c1      	str	r1, [r0, #12]
 80011f6:	6182      	str	r2, [r0, #24]
 80011f8:	4619      	mov	r1, r3
 80011fa:	641d      	str	r5, [r3, #64]	; 0x40
 80011fc:	2200      	movs	r2, #0
 80011fe:	bc30      	pop	{r4, r5}
 8001200:	e758      	b.n	80010b4 <unwind_phase2_forced>
 8001202:	bf00      	nop

08001204 <__gnu_Unwind_Resume>:
 8001204:	b570      	push	{r4, r5, r6, lr}
 8001206:	68c6      	ldr	r6, [r0, #12]
 8001208:	6943      	ldr	r3, [r0, #20]
 800120a:	640b      	str	r3, [r1, #64]	; 0x40
 800120c:	b126      	cbz	r6, 8001218 <__gnu_Unwind_Resume+0x14>
 800120e:	2201      	movs	r2, #1
 8001210:	f7ff ff50 	bl	80010b4 <unwind_phase2_forced>
 8001214:	f00a fa33 	bl	800b67e <abort>
 8001218:	6903      	ldr	r3, [r0, #16]
 800121a:	460a      	mov	r2, r1
 800121c:	4604      	mov	r4, r0
 800121e:	460d      	mov	r5, r1
 8001220:	4601      	mov	r1, r0
 8001222:	2002      	movs	r0, #2
 8001224:	4798      	blx	r3
 8001226:	2807      	cmp	r0, #7
 8001228:	d007      	beq.n	800123a <__gnu_Unwind_Resume+0x36>
 800122a:	2808      	cmp	r0, #8
 800122c:	d103      	bne.n	8001236 <__gnu_Unwind_Resume+0x32>
 800122e:	4629      	mov	r1, r5
 8001230:	4620      	mov	r0, r4
 8001232:	f7ff ff1f 	bl	8001074 <unwind_phase2>
 8001236:	f00a fa22 	bl	800b67e <abort>
 800123a:	4630      	mov	r0, r6
 800123c:	6c29      	ldr	r1, [r5, #64]	; 0x40
 800123e:	f7ff ff17 	bl	8001070 <_Unwind_DebugHook>
 8001242:	1d28      	adds	r0, r5, #4
 8001244:	f000 fb28 	bl	8001898 <__restore_core_regs>

08001248 <__gnu_Unwind_Resume_or_Rethrow>:
 8001248:	68c2      	ldr	r2, [r0, #12]
 800124a:	b11a      	cbz	r2, 8001254 <__gnu_Unwind_Resume_or_Rethrow+0xc>
 800124c:	6bca      	ldr	r2, [r1, #60]	; 0x3c
 800124e:	640a      	str	r2, [r1, #64]	; 0x40
 8001250:	2200      	movs	r2, #0
 8001252:	e72f      	b.n	80010b4 <unwind_phase2_forced>
 8001254:	e79c      	b.n	8001190 <__gnu_Unwind_RaiseException>
 8001256:	bf00      	nop

08001258 <_Unwind_Complete>:
 8001258:	4770      	bx	lr
 800125a:	bf00      	nop

0800125c <_Unwind_DeleteException>:
 800125c:	6883      	ldr	r3, [r0, #8]
 800125e:	b113      	cbz	r3, 8001266 <_Unwind_DeleteException+0xa>
 8001260:	4601      	mov	r1, r0
 8001262:	2001      	movs	r0, #1
 8001264:	4718      	bx	r3
 8001266:	4770      	bx	lr

08001268 <_Unwind_VRS_Get>:
 8001268:	b500      	push	{lr}
 800126a:	2904      	cmp	r1, #4
 800126c:	d807      	bhi.n	800127e <_Unwind_VRS_Get+0x16>
 800126e:	e8df f001 	tbb	[pc, r1]
 8001272:	0903      	.short	0x0903
 8001274:	0906      	.short	0x0906
 8001276:	09          	.byte	0x09
 8001277:	00          	.byte	0x00
 8001278:	b90b      	cbnz	r3, 800127e <_Unwind_VRS_Get+0x16>
 800127a:	2a0f      	cmp	r2, #15
 800127c:	d905      	bls.n	800128a <_Unwind_VRS_Get+0x22>
 800127e:	2002      	movs	r0, #2
 8001280:	f85d fb04 	ldr.w	pc, [sp], #4
 8001284:	2001      	movs	r0, #1
 8001286:	f85d fb04 	ldr.w	pc, [sp], #4
 800128a:	eb00 0282 	add.w	r2, r0, r2, lsl #2
 800128e:	4618      	mov	r0, r3
 8001290:	6853      	ldr	r3, [r2, #4]
 8001292:	9a01      	ldr	r2, [sp, #4]
 8001294:	6013      	str	r3, [r2, #0]
 8001296:	f85d fb04 	ldr.w	pc, [sp], #4
 800129a:	bf00      	nop

0800129c <_Unwind_GetGR>:
 800129c:	b510      	push	{r4, lr}
 800129e:	b084      	sub	sp, #16
 80012a0:	2300      	movs	r3, #0
 80012a2:	ac03      	add	r4, sp, #12
 80012a4:	460a      	mov	r2, r1
 80012a6:	9400      	str	r4, [sp, #0]
 80012a8:	4619      	mov	r1, r3
 80012aa:	f7ff ffdd 	bl	8001268 <_Unwind_VRS_Get>
 80012ae:	9803      	ldr	r0, [sp, #12]
 80012b0:	b004      	add	sp, #16
 80012b2:	bd10      	pop	{r4, pc}

080012b4 <_Unwind_VRS_Set>:
 80012b4:	b500      	push	{lr}
 80012b6:	2904      	cmp	r1, #4
 80012b8:	d807      	bhi.n	80012ca <_Unwind_VRS_Set+0x16>
 80012ba:	e8df f001 	tbb	[pc, r1]
 80012be:	0903      	.short	0x0903
 80012c0:	0906      	.short	0x0906
 80012c2:	09          	.byte	0x09
 80012c3:	00          	.byte	0x00
 80012c4:	b90b      	cbnz	r3, 80012ca <_Unwind_VRS_Set+0x16>
 80012c6:	2a0f      	cmp	r2, #15
 80012c8:	d905      	bls.n	80012d6 <_Unwind_VRS_Set+0x22>
 80012ca:	2002      	movs	r0, #2
 80012cc:	f85d fb04 	ldr.w	pc, [sp], #4
 80012d0:	2001      	movs	r0, #1
 80012d2:	f85d fb04 	ldr.w	pc, [sp], #4
 80012d6:	9901      	ldr	r1, [sp, #4]
 80012d8:	eb00 0282 	add.w	r2, r0, r2, lsl #2
 80012dc:	6809      	ldr	r1, [r1, #0]
 80012de:	6051      	str	r1, [r2, #4]
 80012e0:	4618      	mov	r0, r3
 80012e2:	f85d fb04 	ldr.w	pc, [sp], #4
 80012e6:	bf00      	nop

080012e8 <_Unwind_SetGR>:
 80012e8:	b510      	push	{r4, lr}
 80012ea:	b084      	sub	sp, #16
 80012ec:	ac04      	add	r4, sp, #16
 80012ee:	2300      	movs	r3, #0
 80012f0:	f844 2d04 	str.w	r2, [r4, #-4]!
 80012f4:	460a      	mov	r2, r1
 80012f6:	9400      	str	r4, [sp, #0]
 80012f8:	4619      	mov	r1, r3
 80012fa:	f7ff ffdb 	bl	80012b4 <_Unwind_VRS_Set>
 80012fe:	b004      	add	sp, #16
 8001300:	bd10      	pop	{r4, pc}
 8001302:	bf00      	nop

08001304 <__gnu_Unwind_Backtrace>:
 8001304:	b5f0      	push	{r4, r5, r6, r7, lr}
 8001306:	6bd3      	ldr	r3, [r2, #60]	; 0x3c
 8001308:	6413      	str	r3, [r2, #64]	; 0x40
 800130a:	1d15      	adds	r5, r2, #4
 800130c:	4607      	mov	r7, r0
 800130e:	460e      	mov	r6, r1
 8001310:	cd0f      	ldmia	r5!, {r0, r1, r2, r3}
 8001312:	f5ad 7d0f 	sub.w	sp, sp, #572	; 0x23c
 8001316:	ac17      	add	r4, sp, #92	; 0x5c
 8001318:	c40f      	stmia	r4!, {r0, r1, r2, r3}
 800131a:	cd0f      	ldmia	r5!, {r0, r1, r2, r3}
 800131c:	c40f      	stmia	r4!, {r0, r1, r2, r3}
 800131e:	cd0f      	ldmia	r5!, {r0, r1, r2, r3}
 8001320:	c40f      	stmia	r4!, {r0, r1, r2, r3}
 8001322:	e895 000f 	ldmia.w	r5, {r0, r1, r2, r3}
 8001326:	f04f 35ff 	mov.w	r5, #4294967295
 800132a:	e884 000f 	stmia.w	r4, {r0, r1, r2, r3}
 800132e:	9516      	str	r5, [sp, #88]	; 0x58
 8001330:	e010      	b.n	8001354 <__gnu_Unwind_Backtrace+0x50>
 8001332:	a816      	add	r0, sp, #88	; 0x58
 8001334:	f7ff ffd8 	bl	80012e8 <_Unwind_SetGR>
 8001338:	4631      	mov	r1, r6
 800133a:	a816      	add	r0, sp, #88	; 0x58
 800133c:	47b8      	blx	r7
 800133e:	aa16      	add	r2, sp, #88	; 0x58
 8001340:	4669      	mov	r1, sp
 8001342:	b978      	cbnz	r0, 8001364 <__gnu_Unwind_Backtrace+0x60>
 8001344:	9b04      	ldr	r3, [sp, #16]
 8001346:	2008      	movs	r0, #8
 8001348:	4798      	blx	r3
 800134a:	2805      	cmp	r0, #5
 800134c:	4604      	mov	r4, r0
 800134e:	d00a      	beq.n	8001366 <__gnu_Unwind_Backtrace+0x62>
 8001350:	2809      	cmp	r0, #9
 8001352:	d007      	beq.n	8001364 <__gnu_Unwind_Backtrace+0x60>
 8001354:	9926      	ldr	r1, [sp, #152]	; 0x98
 8001356:	4668      	mov	r0, sp
 8001358:	f7ff fe06 	bl	8000f68 <get_eit_entry>
 800135c:	466a      	mov	r2, sp
 800135e:	210c      	movs	r1, #12
 8001360:	2800      	cmp	r0, #0
 8001362:	d0e6      	beq.n	8001332 <__gnu_Unwind_Backtrace+0x2e>
 8001364:	2409      	movs	r4, #9
 8001366:	a816      	add	r0, sp, #88	; 0x58
 8001368:	f7ff fe4e 	bl	8001008 <restore_non_core_regs>
 800136c:	4620      	mov	r0, r4
 800136e:	f50d 7d0f 	add.w	sp, sp, #572	; 0x23c
 8001372:	bdf0      	pop	{r4, r5, r6, r7, pc}

08001374 <__gnu_unwind_pr_common>:
 8001374:	e92d 4ff0 	stmdb	sp!, {r4, r5, r6, r7, r8, r9, sl, fp, lr}
 8001378:	460d      	mov	r5, r1
 800137a:	6cc9      	ldr	r1, [r1, #76]	; 0x4c
 800137c:	b08b      	sub	sp, #44	; 0x2c
 800137e:	1d0c      	adds	r4, r1, #4
 8001380:	6809      	ldr	r1, [r1, #0]
 8001382:	9107      	str	r1, [sp, #28]
 8001384:	4691      	mov	r9, r2
 8001386:	9408      	str	r4, [sp, #32]
 8001388:	f000 0b03 	and.w	fp, r0, #3
 800138c:	461e      	mov	r6, r3
 800138e:	2b00      	cmp	r3, #0
 8001390:	d160      	bne.n	8001454 <__gnu_unwind_pr_common+0xe0>
 8001392:	0209      	lsls	r1, r1, #8
 8001394:	2303      	movs	r3, #3
 8001396:	9107      	str	r1, [sp, #28]
 8001398:	f88d 6025 	strb.w	r6, [sp, #37]	; 0x25
 800139c:	f88d 3024 	strb.w	r3, [sp, #36]	; 0x24
 80013a0:	6d2b      	ldr	r3, [r5, #80]	; 0x50
 80013a2:	f1bb 0f02 	cmp.w	fp, #2
 80013a6:	bf08      	it	eq
 80013a8:	6bac      	ldreq	r4, [r5, #56]	; 0x38
 80013aa:	f013 0301 	ands.w	r3, r3, #1
 80013ae:	d140      	bne.n	8001432 <__gnu_unwind_pr_common+0xbe>
 80013b0:	9301      	str	r3, [sp, #4]
 80013b2:	f000 0308 	and.w	r3, r0, #8
 80013b6:	9303      	str	r3, [sp, #12]
 80013b8:	f8d4 8000 	ldr.w	r8, [r4]
 80013bc:	f1b8 0f00 	cmp.w	r8, #0
 80013c0:	d039      	beq.n	8001436 <__gnu_unwind_pr_common+0xc2>
 80013c2:	2e02      	cmp	r6, #2
 80013c4:	d043      	beq.n	800144e <__gnu_unwind_pr_common+0xda>
 80013c6:	f8b4 8000 	ldrh.w	r8, [r4]
 80013ca:	8867      	ldrh	r7, [r4, #2]
 80013cc:	3404      	adds	r4, #4
 80013ce:	6cab      	ldr	r3, [r5, #72]	; 0x48
 80013d0:	f027 0a01 	bic.w	sl, r7, #1
 80013d4:	210f      	movs	r1, #15
 80013d6:	4648      	mov	r0, r9
 80013d8:	449a      	add	sl, r3
 80013da:	f7ff ff5f 	bl	800129c <_Unwind_GetGR>
 80013de:	4582      	cmp	sl, r0
 80013e0:	d833      	bhi.n	800144a <__gnu_unwind_pr_common+0xd6>
 80013e2:	f028 0301 	bic.w	r3, r8, #1
 80013e6:	449a      	add	sl, r3
 80013e8:	4550      	cmp	r0, sl
 80013ea:	bf2c      	ite	cs
 80013ec:	2000      	movcs	r0, #0
 80013ee:	2001      	movcc	r0, #1
 80013f0:	007f      	lsls	r7, r7, #1
 80013f2:	f007 0702 	and.w	r7, r7, #2
 80013f6:	f008 0801 	and.w	r8, r8, #1
 80013fa:	ea47 0708 	orr.w	r7, r7, r8
 80013fe:	2f01      	cmp	r7, #1
 8001400:	d03e      	beq.n	8001480 <__gnu_unwind_pr_common+0x10c>
 8001402:	d335      	bcc.n	8001470 <__gnu_unwind_pr_common+0xfc>
 8001404:	2f02      	cmp	r7, #2
 8001406:	d11c      	bne.n	8001442 <__gnu_unwind_pr_common+0xce>
 8001408:	6823      	ldr	r3, [r4, #0]
 800140a:	f023 4200 	bic.w	r2, r3, #2147483648	; 0x80000000
 800140e:	9202      	str	r2, [sp, #8]
 8001410:	f1bb 0f00 	cmp.w	fp, #0
 8001414:	d176      	bne.n	8001504 <__gnu_unwind_pr_common+0x190>
 8001416:	b128      	cbz	r0, 8001424 <__gnu_unwind_pr_common+0xb0>
 8001418:	9903      	ldr	r1, [sp, #12]
 800141a:	2900      	cmp	r1, #0
 800141c:	d07e      	beq.n	800151c <__gnu_unwind_pr_common+0x1a8>
 800141e:	2a00      	cmp	r2, #0
 8001420:	f000 80a6 	beq.w	8001570 <__gnu_unwind_pr_common+0x1fc>
 8001424:	2b00      	cmp	r3, #0
 8001426:	db77      	blt.n	8001518 <__gnu_unwind_pr_common+0x1a4>
 8001428:	9b02      	ldr	r3, [sp, #8]
 800142a:	3301      	adds	r3, #1
 800142c:	eb04 0483 	add.w	r4, r4, r3, lsl #2
 8001430:	e7c2      	b.n	80013b8 <__gnu_unwind_pr_common+0x44>
 8001432:	2300      	movs	r3, #0
 8001434:	9301      	str	r3, [sp, #4]
 8001436:	2e02      	cmp	r6, #2
 8001438:	dd3e      	ble.n	80014b8 <__gnu_unwind_pr_common+0x144>
 800143a:	f7ff fe17 	bl	800106c <__gnu_unwind_24bit.isra.1>
 800143e:	2800      	cmp	r0, #0
 8001440:	d040      	beq.n	80014c4 <__gnu_unwind_pr_common+0x150>
 8001442:	2009      	movs	r0, #9
 8001444:	b00b      	add	sp, #44	; 0x2c
 8001446:	e8bd 8ff0 	ldmia.w	sp!, {r4, r5, r6, r7, r8, r9, sl, fp, pc}
 800144a:	2000      	movs	r0, #0
 800144c:	e7d0      	b.n	80013f0 <__gnu_unwind_pr_common+0x7c>
 800144e:	6867      	ldr	r7, [r4, #4]
 8001450:	3408      	adds	r4, #8
 8001452:	e7bc      	b.n	80013ce <__gnu_unwind_pr_common+0x5a>
 8001454:	2b02      	cmp	r3, #2
 8001456:	dca3      	bgt.n	80013a0 <__gnu_unwind_pr_common+0x2c>
 8001458:	0c0b      	lsrs	r3, r1, #16
 800145a:	b2da      	uxtb	r2, r3
 800145c:	0409      	lsls	r1, r1, #16
 800145e:	f88d 3025 	strb.w	r3, [sp, #37]	; 0x25
 8001462:	2302      	movs	r3, #2
 8001464:	eb04 0482 	add.w	r4, r4, r2, lsl #2
 8001468:	9107      	str	r1, [sp, #28]
 800146a:	f88d 3024 	strb.w	r3, [sp, #36]	; 0x24
 800146e:	e797      	b.n	80013a0 <__gnu_unwind_pr_common+0x2c>
 8001470:	f1bb 0f00 	cmp.w	fp, #0
 8001474:	d002      	beq.n	800147c <__gnu_unwind_pr_common+0x108>
 8001476:	2800      	cmp	r0, #0
 8001478:	f040 80bd 	bne.w	80015f6 <__gnu_unwind_pr_common+0x282>
 800147c:	3404      	adds	r4, #4
 800147e:	e79b      	b.n	80013b8 <__gnu_unwind_pr_common+0x44>
 8001480:	f1bb 0f00 	cmp.w	fp, #0
 8001484:	d125      	bne.n	80014d2 <__gnu_unwind_pr_common+0x15e>
 8001486:	b1a8      	cbz	r0, 80014b4 <__gnu_unwind_pr_common+0x140>
 8001488:	e894 000c 	ldmia.w	r4, {r2, r3}
 800148c:	1c99      	adds	r1, r3, #2
 800148e:	ea4f 72d2 	mov.w	r2, r2, lsr #31
 8001492:	d0d6      	beq.n	8001442 <__gnu_unwind_pr_common+0xce>
 8001494:	f105 0158 	add.w	r1, r5, #88	; 0x58
 8001498:	3301      	adds	r3, #1
 800149a:	9106      	str	r1, [sp, #24]
 800149c:	f000 80a3 	beq.w	80015e6 <__gnu_unwind_pr_common+0x272>
 80014a0:	1d20      	adds	r0, r4, #4
 80014a2:	f7ff fddd 	bl	8001060 <_Unwind_decode_typeinfo_ptr.isra.0>
 80014a6:	ab06      	add	r3, sp, #24
 80014a8:	4601      	mov	r1, r0
 80014aa:	4628      	mov	r0, r5
 80014ac:	f3af 8000 	nop.w
 80014b0:	2800      	cmp	r0, #0
 80014b2:	d177      	bne.n	80015a4 <__gnu_unwind_pr_common+0x230>
 80014b4:	3408      	adds	r4, #8
 80014b6:	e77f      	b.n	80013b8 <__gnu_unwind_pr_common+0x44>
 80014b8:	a907      	add	r1, sp, #28
 80014ba:	4648      	mov	r0, r9
 80014bc:	f000 faee 	bl	8001a9c <__gnu_unwind_execute>
 80014c0:	2800      	cmp	r0, #0
 80014c2:	d1be      	bne.n	8001442 <__gnu_unwind_pr_common+0xce>
 80014c4:	9b01      	ldr	r3, [sp, #4]
 80014c6:	2b00      	cmp	r3, #0
 80014c8:	d15c      	bne.n	8001584 <__gnu_unwind_pr_common+0x210>
 80014ca:	2008      	movs	r0, #8
 80014cc:	b00b      	add	sp, #44	; 0x2c
 80014ce:	e8bd 8ff0 	ldmia.w	sp!, {r4, r5, r6, r7, r8, r9, sl, fp, pc}
 80014d2:	210d      	movs	r1, #13
 80014d4:	4648      	mov	r0, r9
 80014d6:	6a2f      	ldr	r7, [r5, #32]
 80014d8:	f7ff fee0 	bl	800129c <_Unwind_GetGR>
 80014dc:	4287      	cmp	r7, r0
 80014de:	d1e9      	bne.n	80014b4 <__gnu_unwind_pr_common+0x140>
 80014e0:	6aab      	ldr	r3, [r5, #40]	; 0x28
 80014e2:	429c      	cmp	r4, r3
 80014e4:	d1e6      	bne.n	80014b4 <__gnu_unwind_pr_common+0x140>
 80014e6:	4620      	mov	r0, r4
 80014e8:	f7ff fcf0 	bl	8000ecc <selfrel_offset31>
 80014ec:	210f      	movs	r1, #15
 80014ee:	4602      	mov	r2, r0
 80014f0:	4648      	mov	r0, r9
 80014f2:	f7ff fef9 	bl	80012e8 <_Unwind_SetGR>
 80014f6:	4648      	mov	r0, r9
 80014f8:	462a      	mov	r2, r5
 80014fa:	2100      	movs	r1, #0
 80014fc:	f7ff fef4 	bl	80012e8 <_Unwind_SetGR>
 8001500:	2007      	movs	r0, #7
 8001502:	e79f      	b.n	8001444 <__gnu_unwind_pr_common+0xd0>
 8001504:	210d      	movs	r1, #13
 8001506:	4648      	mov	r0, r9
 8001508:	6a2f      	ldr	r7, [r5, #32]
 800150a:	f7ff fec7 	bl	800129c <_Unwind_GetGR>
 800150e:	4287      	cmp	r7, r0
 8001510:	d058      	beq.n	80015c4 <__gnu_unwind_pr_common+0x250>
 8001512:	6823      	ldr	r3, [r4, #0]
 8001514:	2b00      	cmp	r3, #0
 8001516:	da87      	bge.n	8001428 <__gnu_unwind_pr_common+0xb4>
 8001518:	3404      	adds	r4, #4
 800151a:	e785      	b.n	8001428 <__gnu_unwind_pr_common+0xb4>
 800151c:	9b02      	ldr	r3, [sp, #8]
 800151e:	b33b      	cbz	r3, 8001570 <__gnu_unwind_pr_common+0x1fc>
 8001520:	f105 0358 	add.w	r3, r5, #88	; 0x58
 8001524:	1d27      	adds	r7, r4, #4
 8001526:	f8cd b010 	str.w	fp, [sp, #16]
 800152a:	f8dd 800c 	ldr.w	r8, [sp, #12]
 800152e:	f8dd a008 	ldr.w	sl, [sp, #8]
 8001532:	9605      	str	r6, [sp, #20]
 8001534:	46a3      	mov	fp, r4
 8001536:	461c      	mov	r4, r3
 8001538:	e002      	b.n	8001540 <__gnu_unwind_pr_common+0x1cc>
 800153a:	45b2      	cmp	sl, r6
 800153c:	46b0      	mov	r8, r6
 800153e:	d016      	beq.n	800156e <__gnu_unwind_pr_common+0x1fa>
 8001540:	4638      	mov	r0, r7
 8001542:	9406      	str	r4, [sp, #24]
 8001544:	f7ff fd8c 	bl	8001060 <_Unwind_decode_typeinfo_ptr.isra.0>
 8001548:	ab06      	add	r3, sp, #24
 800154a:	4601      	mov	r1, r0
 800154c:	2200      	movs	r2, #0
 800154e:	4628      	mov	r0, r5
 8001550:	f3af 8000 	nop.w
 8001554:	f108 0601 	add.w	r6, r8, #1
 8001558:	3704      	adds	r7, #4
 800155a:	2800      	cmp	r0, #0
 800155c:	d0ed      	beq.n	800153a <__gnu_unwind_pr_common+0x1c6>
 800155e:	9b02      	ldr	r3, [sp, #8]
 8001560:	9e05      	ldr	r6, [sp, #20]
 8001562:	4543      	cmp	r3, r8
 8001564:	465c      	mov	r4, fp
 8001566:	f8dd b010 	ldr.w	fp, [sp, #16]
 800156a:	d1d2      	bne.n	8001512 <__gnu_unwind_pr_common+0x19e>
 800156c:	e000      	b.n	8001570 <__gnu_unwind_pr_common+0x1fc>
 800156e:	465c      	mov	r4, fp
 8001570:	4648      	mov	r0, r9
 8001572:	210d      	movs	r1, #13
 8001574:	f7ff fe92 	bl	800129c <_Unwind_GetGR>
 8001578:	9b06      	ldr	r3, [sp, #24]
 800157a:	6228      	str	r0, [r5, #32]
 800157c:	62ac      	str	r4, [r5, #40]	; 0x28
 800157e:	626b      	str	r3, [r5, #36]	; 0x24
 8001580:	2006      	movs	r0, #6
 8001582:	e75f      	b.n	8001444 <__gnu_unwind_pr_common+0xd0>
 8001584:	210f      	movs	r1, #15
 8001586:	4648      	mov	r0, r9
 8001588:	f7ff fe88 	bl	800129c <_Unwind_GetGR>
 800158c:	210e      	movs	r1, #14
 800158e:	4602      	mov	r2, r0
 8001590:	4648      	mov	r0, r9
 8001592:	f7ff fea9 	bl	80012e8 <_Unwind_SetGR>
 8001596:	4648      	mov	r0, r9
 8001598:	4a29      	ldr	r2, [pc, #164]	; (8001640 <__gnu_unwind_pr_common+0x2cc>)
 800159a:	210f      	movs	r1, #15
 800159c:	f7ff fea4 	bl	80012e8 <_Unwind_SetGR>
 80015a0:	2007      	movs	r0, #7
 80015a2:	e74f      	b.n	8001444 <__gnu_unwind_pr_common+0xd0>
 80015a4:	4607      	mov	r7, r0
 80015a6:	210d      	movs	r1, #13
 80015a8:	4648      	mov	r0, r9
 80015aa:	f7ff fe77 	bl	800129c <_Unwind_GetGR>
 80015ae:	2f02      	cmp	r7, #2
 80015b0:	6228      	str	r0, [r5, #32]
 80015b2:	d11d      	bne.n	80015f0 <__gnu_unwind_pr_common+0x27c>
 80015b4:	462b      	mov	r3, r5
 80015b6:	9a06      	ldr	r2, [sp, #24]
 80015b8:	f843 2f2c 	str.w	r2, [r3, #44]!
 80015bc:	626b      	str	r3, [r5, #36]	; 0x24
 80015be:	62ac      	str	r4, [r5, #40]	; 0x28
 80015c0:	2006      	movs	r0, #6
 80015c2:	e73f      	b.n	8001444 <__gnu_unwind_pr_common+0xd0>
 80015c4:	6aab      	ldr	r3, [r5, #40]	; 0x28
 80015c6:	429c      	cmp	r4, r3
 80015c8:	d1a3      	bne.n	8001512 <__gnu_unwind_pr_common+0x19e>
 80015ca:	2204      	movs	r2, #4
 80015cc:	2700      	movs	r7, #0
 80015ce:	18a3      	adds	r3, r4, r2
 80015d0:	9902      	ldr	r1, [sp, #8]
 80015d2:	62a9      	str	r1, [r5, #40]	; 0x28
 80015d4:	62ef      	str	r7, [r5, #44]	; 0x2c
 80015d6:	632a      	str	r2, [r5, #48]	; 0x30
 80015d8:	636b      	str	r3, [r5, #52]	; 0x34
 80015da:	6823      	ldr	r3, [r4, #0]
 80015dc:	42bb      	cmp	r3, r7
 80015de:	db1d      	blt.n	800161c <__gnu_unwind_pr_common+0x2a8>
 80015e0:	2301      	movs	r3, #1
 80015e2:	9301      	str	r3, [sp, #4]
 80015e4:	e720      	b.n	8001428 <__gnu_unwind_pr_common+0xb4>
 80015e6:	4648      	mov	r0, r9
 80015e8:	210d      	movs	r1, #13
 80015ea:	f7ff fe57 	bl	800129c <_Unwind_GetGR>
 80015ee:	6228      	str	r0, [r5, #32]
 80015f0:	9b06      	ldr	r3, [sp, #24]
 80015f2:	626b      	str	r3, [r5, #36]	; 0x24
 80015f4:	e7e3      	b.n	80015be <__gnu_unwind_pr_common+0x24a>
 80015f6:	4620      	mov	r0, r4
 80015f8:	f7ff fc68 	bl	8000ecc <selfrel_offset31>
 80015fc:	3404      	adds	r4, #4
 80015fe:	4606      	mov	r6, r0
 8001600:	63ac      	str	r4, [r5, #56]	; 0x38
 8001602:	4628      	mov	r0, r5
 8001604:	f3af 8000 	nop.w
 8001608:	2800      	cmp	r0, #0
 800160a:	f43f af1a 	beq.w	8001442 <__gnu_unwind_pr_common+0xce>
 800160e:	4648      	mov	r0, r9
 8001610:	4632      	mov	r2, r6
 8001612:	210f      	movs	r1, #15
 8001614:	f7ff fe68 	bl	80012e8 <_Unwind_SetGR>
 8001618:	2007      	movs	r0, #7
 800161a:	e713      	b.n	8001444 <__gnu_unwind_pr_common+0xd0>
 800161c:	4608      	mov	r0, r1
 800161e:	3001      	adds	r0, #1
 8001620:	eb04 0080 	add.w	r0, r4, r0, lsl #2
 8001624:	f7ff fc52 	bl	8000ecc <selfrel_offset31>
 8001628:	210f      	movs	r1, #15
 800162a:	4602      	mov	r2, r0
 800162c:	4648      	mov	r0, r9
 800162e:	f7ff fe5b 	bl	80012e8 <_Unwind_SetGR>
 8001632:	4648      	mov	r0, r9
 8001634:	462a      	mov	r2, r5
 8001636:	4639      	mov	r1, r7
 8001638:	f7ff fe56 	bl	80012e8 <_Unwind_SetGR>
 800163c:	2007      	movs	r0, #7
 800163e:	e701      	b.n	8001444 <__gnu_unwind_pr_common+0xd0>
 8001640:	00000000 	.word	0x00000000

08001644 <__aeabi_unwind_cpp_pr0>:
 8001644:	2300      	movs	r3, #0
 8001646:	e695      	b.n	8001374 <__gnu_unwind_pr_common>

08001648 <__aeabi_unwind_cpp_pr1>:
 8001648:	2301      	movs	r3, #1
 800164a:	e693      	b.n	8001374 <__gnu_unwind_pr_common>

0800164c <__aeabi_unwind_cpp_pr2>:
 800164c:	2302      	movs	r3, #2
 800164e:	e691      	b.n	8001374 <__gnu_unwind_pr_common>

08001650 <_Unwind_VRS_Pop>:
 8001650:	b5f0      	push	{r4, r5, r6, r7, lr}
 8001652:	4604      	mov	r4, r0
 8001654:	b0c5      	sub	sp, #276	; 0x114
 8001656:	2904      	cmp	r1, #4
 8001658:	d80d      	bhi.n	8001676 <_Unwind_VRS_Pop+0x26>
 800165a:	e8df f001 	tbb	[pc, r1]
 800165e:	0353      	.short	0x0353
 8001660:	310c      	.short	0x310c
 8001662:	0f          	.byte	0x0f
 8001663:	00          	.byte	0x00
 8001664:	2b01      	cmp	r3, #1
 8001666:	ea4f 4612 	mov.w	r6, r2, lsr #16
 800166a:	b295      	uxth	r5, r2
 800166c:	d162      	bne.n	8001734 <_Unwind_VRS_Pop+0xe4>
 800166e:	1972      	adds	r2, r6, r5
 8001670:	2a10      	cmp	r2, #16
 8001672:	f240 809b 	bls.w	80017ac <_Unwind_VRS_Pop+0x15c>
 8001676:	2002      	movs	r0, #2
 8001678:	b045      	add	sp, #276	; 0x114
 800167a:	bdf0      	pop	{r4, r5, r6, r7, pc}
 800167c:	2b00      	cmp	r3, #0
 800167e:	d1fa      	bne.n	8001676 <_Unwind_VRS_Pop+0x26>
 8001680:	2a10      	cmp	r2, #16
 8001682:	d8f8      	bhi.n	8001676 <_Unwind_VRS_Pop+0x26>
 8001684:	6823      	ldr	r3, [r4, #0]
 8001686:	06d8      	lsls	r0, r3, #27
 8001688:	f100 80c6 	bmi.w	8001818 <_Unwind_VRS_Pop+0x1c8>
 800168c:	ae22      	add	r6, sp, #136	; 0x88
 800168e:	4630      	mov	r0, r6
 8001690:	9201      	str	r2, [sp, #4]
 8001692:	f000 f973 	bl	800197c <__gnu_Unwind_Save_WMMXC>
 8001696:	6ba0      	ldr	r0, [r4, #56]	; 0x38
 8001698:	9a01      	ldr	r2, [sp, #4]
 800169a:	2300      	movs	r3, #0
 800169c:	2501      	movs	r5, #1
 800169e:	fa05 f103 	lsl.w	r1, r5, r3
 80016a2:	4211      	tst	r1, r2
 80016a4:	d003      	beq.n	80016ae <_Unwind_VRS_Pop+0x5e>
 80016a6:	6801      	ldr	r1, [r0, #0]
 80016a8:	f846 1023 	str.w	r1, [r6, r3, lsl #2]
 80016ac:	3004      	adds	r0, #4
 80016ae:	3301      	adds	r3, #1
 80016b0:	2b04      	cmp	r3, #4
 80016b2:	d1f4      	bne.n	800169e <_Unwind_VRS_Pop+0x4e>
 80016b4:	63a0      	str	r0, [r4, #56]	; 0x38
 80016b6:	4630      	mov	r0, r6
 80016b8:	f000 f956 	bl	8001968 <__gnu_Unwind_Restore_WMMXC>
 80016bc:	2000      	movs	r0, #0
 80016be:	e7db      	b.n	8001678 <_Unwind_VRS_Pop+0x28>
 80016c0:	2b03      	cmp	r3, #3
 80016c2:	d1d8      	bne.n	8001676 <_Unwind_VRS_Pop+0x26>
 80016c4:	0c15      	lsrs	r5, r2, #16
 80016c6:	b297      	uxth	r7, r2
 80016c8:	19eb      	adds	r3, r5, r7
 80016ca:	2b10      	cmp	r3, #16
 80016cc:	d8d3      	bhi.n	8001676 <_Unwind_VRS_Pop+0x26>
 80016ce:	6823      	ldr	r3, [r4, #0]
 80016d0:	071e      	lsls	r6, r3, #28
 80016d2:	f100 80b5 	bmi.w	8001840 <_Unwind_VRS_Pop+0x1f0>
 80016d6:	ae22      	add	r6, sp, #136	; 0x88
 80016d8:	4630      	mov	r0, r6
 80016da:	f000 f923 	bl	8001924 <__gnu_Unwind_Save_WMMXD>
 80016de:	00ed      	lsls	r5, r5, #3
 80016e0:	6ba3      	ldr	r3, [r4, #56]	; 0x38
 80016e2:	b14f      	cbz	r7, 80016f8 <_Unwind_VRS_Pop+0xa8>
 80016e4:	3d04      	subs	r5, #4
 80016e6:	1971      	adds	r1, r6, r5
 80016e8:	eb03 00c7 	add.w	r0, r3, r7, lsl #3
 80016ec:	f853 2b04 	ldr.w	r2, [r3], #4
 80016f0:	f841 2f04 	str.w	r2, [r1, #4]!
 80016f4:	4283      	cmp	r3, r0
 80016f6:	d1f9      	bne.n	80016ec <_Unwind_VRS_Pop+0x9c>
 80016f8:	4630      	mov	r0, r6
 80016fa:	63a3      	str	r3, [r4, #56]	; 0x38
 80016fc:	f000 f8f0 	bl	80018e0 <__gnu_Unwind_Restore_WMMXD>
 8001700:	2000      	movs	r0, #0
 8001702:	e7b9      	b.n	8001678 <_Unwind_VRS_Pop+0x28>
 8001704:	2b00      	cmp	r3, #0
 8001706:	d1b6      	bne.n	8001676 <_Unwind_VRS_Pop+0x26>
 8001708:	6ba5      	ldr	r5, [r4, #56]	; 0x38
 800170a:	b297      	uxth	r7, r2
 800170c:	1d20      	adds	r0, r4, #4
 800170e:	2601      	movs	r6, #1
 8001710:	fa06 f103 	lsl.w	r1, r6, r3
 8001714:	4239      	tst	r1, r7
 8001716:	f103 0301 	add.w	r3, r3, #1
 800171a:	d002      	beq.n	8001722 <_Unwind_VRS_Pop+0xd2>
 800171c:	6829      	ldr	r1, [r5, #0]
 800171e:	6001      	str	r1, [r0, #0]
 8001720:	3504      	adds	r5, #4
 8001722:	2b10      	cmp	r3, #16
 8001724:	f100 0004 	add.w	r0, r0, #4
 8001728:	d1f2      	bne.n	8001710 <_Unwind_VRS_Pop+0xc0>
 800172a:	f412 5000 	ands.w	r0, r2, #8192	; 0x2000
 800172e:	d13b      	bne.n	80017a8 <_Unwind_VRS_Pop+0x158>
 8001730:	63a5      	str	r5, [r4, #56]	; 0x38
 8001732:	e7a1      	b.n	8001678 <_Unwind_VRS_Pop+0x28>
 8001734:	2b05      	cmp	r3, #5
 8001736:	d19e      	bne.n	8001676 <_Unwind_VRS_Pop+0x26>
 8001738:	1977      	adds	r7, r6, r5
 800173a:	2f20      	cmp	r7, #32
 800173c:	d89b      	bhi.n	8001676 <_Unwind_VRS_Pop+0x26>
 800173e:	2e0f      	cmp	r6, #15
 8001740:	d966      	bls.n	8001810 <_Unwind_VRS_Pop+0x1c0>
 8001742:	462f      	mov	r7, r5
 8001744:	2d00      	cmp	r5, #0
 8001746:	d13a      	bne.n	80017be <_Unwind_VRS_Pop+0x16e>
 8001748:	462a      	mov	r2, r5
 800174a:	2700      	movs	r7, #0
 800174c:	2a00      	cmp	r2, #0
 800174e:	6ba0      	ldr	r0, [r4, #56]	; 0x38
 8001750:	dd72      	ble.n	8001838 <_Unwind_VRS_Pop+0x1e8>
 8001752:	eb00 02c2 	add.w	r2, r0, r2, lsl #3
 8001756:	4601      	mov	r1, r0
 8001758:	a844      	add	r0, sp, #272	; 0x110
 800175a:	eb00 00c6 	add.w	r0, r0, r6, lsl #3
 800175e:	388c      	subs	r0, #140	; 0x8c
 8001760:	f851 5b04 	ldr.w	r5, [r1], #4
 8001764:	f840 5f04 	str.w	r5, [r0, #4]!
 8001768:	4291      	cmp	r1, r2
 800176a:	d1f9      	bne.n	8001760 <_Unwind_VRS_Pop+0x110>
 800176c:	4608      	mov	r0, r1
 800176e:	b197      	cbz	r7, 8001796 <_Unwind_VRS_Pop+0x146>
 8001770:	2e10      	cmp	r6, #16
 8001772:	4632      	mov	r2, r6
 8001774:	a944      	add	r1, sp, #272	; 0x110
 8001776:	bf38      	it	cc
 8001778:	2210      	movcc	r2, #16
 800177a:	eb01 02c2 	add.w	r2, r1, r2, lsl #3
 800177e:	f5a2 72c4 	sub.w	r2, r2, #392	; 0x188
 8001782:	0079      	lsls	r1, r7, #1
 8001784:	3a04      	subs	r2, #4
 8001786:	eb00 0181 	add.w	r1, r0, r1, lsl #2
 800178a:	f850 5b04 	ldr.w	r5, [r0], #4
 800178e:	f842 5f04 	str.w	r5, [r2, #4]!
 8001792:	4288      	cmp	r0, r1
 8001794:	d1f9      	bne.n	800178a <_Unwind_VRS_Pop+0x13a>
 8001796:	2b01      	cmp	r3, #1
 8001798:	d048      	beq.n	800182c <_Unwind_VRS_Pop+0x1dc>
 800179a:	2e0f      	cmp	r6, #15
 800179c:	63a1      	str	r1, [r4, #56]	; 0x38
 800179e:	d933      	bls.n	8001808 <_Unwind_VRS_Pop+0x1b8>
 80017a0:	b117      	cbz	r7, 80017a8 <_Unwind_VRS_Pop+0x158>
 80017a2:	a802      	add	r0, sp, #8
 80017a4:	f000 f894 	bl	80018d0 <__gnu_Unwind_Restore_VFP_D_16_to_31>
 80017a8:	2000      	movs	r0, #0
 80017aa:	e765      	b.n	8001678 <_Unwind_VRS_Pop+0x28>
 80017ac:	2e0f      	cmp	r6, #15
 80017ae:	f63f af62 	bhi.w	8001676 <_Unwind_VRS_Pop+0x26>
 80017b2:	2700      	movs	r7, #0
 80017b4:	6822      	ldr	r2, [r4, #0]
 80017b6:	07d1      	lsls	r1, r2, #31
 80017b8:	d417      	bmi.n	80017ea <_Unwind_VRS_Pop+0x19a>
 80017ba:	2f00      	cmp	r7, #0
 80017bc:	d060      	beq.n	8001880 <_Unwind_VRS_Pop+0x230>
 80017be:	6822      	ldr	r2, [r4, #0]
 80017c0:	0751      	lsls	r1, r2, #29
 80017c2:	d445      	bmi.n	8001850 <_Unwind_VRS_Pop+0x200>
 80017c4:	2b01      	cmp	r3, #1
 80017c6:	d04d      	beq.n	8001864 <_Unwind_VRS_Pop+0x214>
 80017c8:	2e0f      	cmp	r6, #15
 80017ca:	d806      	bhi.n	80017da <_Unwind_VRS_Pop+0x18a>
 80017cc:	a822      	add	r0, sp, #136	; 0x88
 80017ce:	9301      	str	r3, [sp, #4]
 80017d0:	f000 f87a 	bl	80018c8 <__gnu_Unwind_Save_VFP_D>
 80017d4:	9b01      	ldr	r3, [sp, #4]
 80017d6:	2f00      	cmp	r7, #0
 80017d8:	d0b6      	beq.n	8001748 <_Unwind_VRS_Pop+0xf8>
 80017da:	a802      	add	r0, sp, #8
 80017dc:	9301      	str	r3, [sp, #4]
 80017de:	f000 f87b 	bl	80018d8 <__gnu_Unwind_Save_VFP_D_16_to_31>
 80017e2:	9b01      	ldr	r3, [sp, #4]
 80017e4:	f1c6 0210 	rsb	r2, r6, #16
 80017e8:	e7b0      	b.n	800174c <_Unwind_VRS_Pop+0xfc>
 80017ea:	f022 0101 	bic.w	r1, r2, #1
 80017ee:	2b05      	cmp	r3, #5
 80017f0:	6021      	str	r1, [r4, #0]
 80017f2:	9301      	str	r3, [sp, #4]
 80017f4:	4620      	mov	r0, r4
 80017f6:	d03b      	beq.n	8001870 <_Unwind_VRS_Pop+0x220>
 80017f8:	f022 0203 	bic.w	r2, r2, #3
 80017fc:	f840 2b48 	str.w	r2, [r0], #72
 8001800:	f000 f85a 	bl	80018b8 <__gnu_Unwind_Save_VFP>
 8001804:	9b01      	ldr	r3, [sp, #4]
 8001806:	e7d8      	b.n	80017ba <_Unwind_VRS_Pop+0x16a>
 8001808:	a822      	add	r0, sp, #136	; 0x88
 800180a:	f000 f859 	bl	80018c0 <__gnu_Unwind_Restore_VFP_D>
 800180e:	e7c7      	b.n	80017a0 <_Unwind_VRS_Pop+0x150>
 8001810:	2f10      	cmp	r7, #16
 8001812:	d9ce      	bls.n	80017b2 <_Unwind_VRS_Pop+0x162>
 8001814:	3f10      	subs	r7, #16
 8001816:	e7cd      	b.n	80017b4 <_Unwind_VRS_Pop+0x164>
 8001818:	f023 0310 	bic.w	r3, r3, #16
 800181c:	6023      	str	r3, [r4, #0]
 800181e:	f504 70e8 	add.w	r0, r4, #464	; 0x1d0
 8001822:	9201      	str	r2, [sp, #4]
 8001824:	f000 f8aa 	bl	800197c <__gnu_Unwind_Save_WMMXC>
 8001828:	9a01      	ldr	r2, [sp, #4]
 800182a:	e72f      	b.n	800168c <_Unwind_VRS_Pop+0x3c>
 800182c:	3104      	adds	r1, #4
 800182e:	63a1      	str	r1, [r4, #56]	; 0x38
 8001830:	a822      	add	r0, sp, #136	; 0x88
 8001832:	f000 f83d 	bl	80018b0 <__gnu_Unwind_Restore_VFP>
 8001836:	e7b7      	b.n	80017a8 <_Unwind_VRS_Pop+0x158>
 8001838:	2f00      	cmp	r7, #0
 800183a:	d199      	bne.n	8001770 <_Unwind_VRS_Pop+0x120>
 800183c:	4601      	mov	r1, r0
 800183e:	e7aa      	b.n	8001796 <_Unwind_VRS_Pop+0x146>
 8001840:	f023 0308 	bic.w	r3, r3, #8
 8001844:	6023      	str	r3, [r4, #0]
 8001846:	f504 70a8 	add.w	r0, r4, #336	; 0x150
 800184a:	f000 f86b 	bl	8001924 <__gnu_Unwind_Save_WMMXD>
 800184e:	e742      	b.n	80016d6 <_Unwind_VRS_Pop+0x86>
 8001850:	4620      	mov	r0, r4
 8001852:	f022 0204 	bic.w	r2, r2, #4
 8001856:	f840 2bd0 	str.w	r2, [r0], #208
 800185a:	9301      	str	r3, [sp, #4]
 800185c:	f000 f83c 	bl	80018d8 <__gnu_Unwind_Save_VFP_D_16_to_31>
 8001860:	9b01      	ldr	r3, [sp, #4]
 8001862:	e7af      	b.n	80017c4 <_Unwind_VRS_Pop+0x174>
 8001864:	a822      	add	r0, sp, #136	; 0x88
 8001866:	9301      	str	r3, [sp, #4]
 8001868:	f000 f826 	bl	80018b8 <__gnu_Unwind_Save_VFP>
 800186c:	9b01      	ldr	r3, [sp, #4]
 800186e:	e7b9      	b.n	80017e4 <_Unwind_VRS_Pop+0x194>
 8001870:	f041 0102 	orr.w	r1, r1, #2
 8001874:	f840 1b48 	str.w	r1, [r0], #72
 8001878:	f000 f826 	bl	80018c8 <__gnu_Unwind_Save_VFP_D>
 800187c:	9b01      	ldr	r3, [sp, #4]
 800187e:	e79c      	b.n	80017ba <_Unwind_VRS_Pop+0x16a>
 8001880:	2b01      	cmp	r3, #1
 8001882:	d003      	beq.n	800188c <_Unwind_VRS_Pop+0x23c>
 8001884:	2e0f      	cmp	r6, #15
 8001886:	f63f af5f 	bhi.w	8001748 <_Unwind_VRS_Pop+0xf8>
 800188a:	e79f      	b.n	80017cc <_Unwind_VRS_Pop+0x17c>
 800188c:	a822      	add	r0, sp, #136	; 0x88
 800188e:	9301      	str	r3, [sp, #4]
 8001890:	f000 f812 	bl	80018b8 <__gnu_Unwind_Save_VFP>
 8001894:	9b01      	ldr	r3, [sp, #4]
 8001896:	e757      	b.n	8001748 <_Unwind_VRS_Pop+0xf8>

08001898 <__restore_core_regs>:
 8001898:	f100 0134 	add.w	r1, r0, #52	; 0x34
 800189c:	e891 0038 	ldmia.w	r1, {r3, r4, r5}
 80018a0:	469c      	mov	ip, r3
 80018a2:	46a6      	mov	lr, r4
 80018a4:	f84c 5d04 	str.w	r5, [ip, #-4]!
 80018a8:	e890 0fff 	ldmia.w	r0, {r0, r1, r2, r3, r4, r5, r6, r7, r8, r9, sl, fp}
 80018ac:	46e5      	mov	sp, ip
 80018ae:	bd00      	pop	{pc}

080018b0 <__gnu_Unwind_Restore_VFP>:
 80018b0:	ec90 0b21 	fldmiax	r0, {d0-d15}	;@ Deprecated
 80018b4:	4770      	bx	lr
 80018b6:	bf00      	nop

080018b8 <__gnu_Unwind_Save_VFP>:
 80018b8:	ec80 0b21 	fstmiax	r0, {d0-d15}	;@ Deprecated
 80018bc:	4770      	bx	lr
 80018be:	bf00      	nop

080018c0 <__gnu_Unwind_Restore_VFP_D>:
 80018c0:	ec90 0b20 	vldmia	r0, {d0-d15}
 80018c4:	4770      	bx	lr
 80018c6:	bf00      	nop

080018c8 <__gnu_Unwind_Save_VFP_D>:
 80018c8:	ec80 0b20 	vstmia	r0, {d0-d15}
 80018cc:	4770      	bx	lr
 80018ce:	bf00      	nop

080018d0 <__gnu_Unwind_Restore_VFP_D_16_to_31>:
 80018d0:	ecd0 0b20 	vldmia	r0, {d16-d31}
 80018d4:	4770      	bx	lr
 80018d6:	bf00      	nop

080018d8 <__gnu_Unwind_Save_VFP_D_16_to_31>:
 80018d8:	ecc0 0b20 	vstmia	r0, {d16-d31}
 80018dc:	4770      	bx	lr
 80018de:	bf00      	nop

080018e0 <__gnu_Unwind_Restore_WMMXD>:
 80018e0:	ecf0 0102 	ldfe	f0, [r0], #8
 80018e4:	ecf0 1102 	ldfe	f1, [r0], #8
 80018e8:	ecf0 2102 	ldfe	f2, [r0], #8
 80018ec:	ecf0 3102 	ldfe	f3, [r0], #8
 80018f0:	ecf0 4102 	ldfe	f4, [r0], #8
 80018f4:	ecf0 5102 	ldfe	f5, [r0], #8
 80018f8:	ecf0 6102 	ldfe	f6, [r0], #8
 80018fc:	ecf0 7102 	ldfe	f7, [r0], #8
 8001900:	ecf0 8102 	ldfp	f0, [r0], #8
 8001904:	ecf0 9102 	ldfp	f1, [r0], #8
 8001908:	ecf0 a102 	ldfp	f2, [r0], #8
 800190c:	ecf0 b102 	ldfp	f3, [r0], #8
 8001910:	ecf0 c102 	ldfp	f4, [r0], #8
 8001914:	ecf0 d102 	ldfp	f5, [r0], #8
 8001918:	ecf0 e102 	ldfp	f6, [r0], #8
 800191c:	ecf0 f102 	ldfp	f7, [r0], #8
 8001920:	4770      	bx	lr
 8001922:	bf00      	nop

08001924 <__gnu_Unwind_Save_WMMXD>:
 8001924:	ece0 0102 	stfe	f0, [r0], #8
 8001928:	ece0 1102 	stfe	f1, [r0], #8
 800192c:	ece0 2102 	stfe	f2, [r0], #8
 8001930:	ece0 3102 	stfe	f3, [r0], #8
 8001934:	ece0 4102 	stfe	f4, [r0], #8
 8001938:	ece0 5102 	stfe	f5, [r0], #8
 800193c:	ece0 6102 	stfe	f6, [r0], #8
 8001940:	ece0 7102 	stfe	f7, [r0], #8
 8001944:	ece0 8102 	stfp	f0, [r0], #8
 8001948:	ece0 9102 	stfp	f1, [r0], #8
 800194c:	ece0 a102 	stfp	f2, [r0], #8
 8001950:	ece0 b102 	stfp	f3, [r0], #8
 8001954:	ece0 c102 	stfp	f4, [r0], #8
 8001958:	ece0 d102 	stfp	f5, [r0], #8
 800195c:	ece0 e102 	stfp	f6, [r0], #8
 8001960:	ece0 f102 	stfp	f7, [r0], #8
 8001964:	4770      	bx	lr
 8001966:	bf00      	nop

08001968 <__gnu_Unwind_Restore_WMMXC>:
 8001968:	fcb0 8101 	ldc2	1, cr8, [r0], #4
 800196c:	fcb0 9101 	ldc2	1, cr9, [r0], #4
 8001970:	fcb0 a101 	ldc2	1, cr10, [r0], #4
 8001974:	fcb0 b101 	ldc2	1, cr11, [r0], #4
 8001978:	4770      	bx	lr
 800197a:	bf00      	nop

0800197c <__gnu_Unwind_Save_WMMXC>:
 800197c:	fca0 8101 	stc2	1, cr8, [r0], #4
 8001980:	fca0 9101 	stc2	1, cr9, [r0], #4
 8001984:	fca0 a101 	stc2	1, cr10, [r0], #4
 8001988:	fca0 b101 	stc2	1, cr11, [r0], #4
 800198c:	4770      	bx	lr
 800198e:	bf00      	nop

08001990 <_Unwind_RaiseException>:
 8001990:	46ec      	mov	ip, sp
 8001992:	b500      	push	{lr}
 8001994:	e92d 5000 	stmdb	sp!, {ip, lr}
 8001998:	e92d 1fff 	stmdb	sp!, {r0, r1, r2, r3, r4, r5, r6, r7, r8, r9, sl, fp, ip}
 800199c:	f04f 0300 	mov.w	r3, #0
 80019a0:	e92d 000c 	stmdb	sp!, {r2, r3}
 80019a4:	a901      	add	r1, sp, #4
 80019a6:	f7ff fbf3 	bl	8001190 <__gnu_Unwind_RaiseException>
 80019aa:	f8dd e040 	ldr.w	lr, [sp, #64]	; 0x40
 80019ae:	b012      	add	sp, #72	; 0x48
 80019b0:	4770      	bx	lr
 80019b2:	bf00      	nop

080019b4 <_Unwind_Resume>:
 80019b4:	46ec      	mov	ip, sp
 80019b6:	b500      	push	{lr}
 80019b8:	e92d 5000 	stmdb	sp!, {ip, lr}
 80019bc:	e92d 1fff 	stmdb	sp!, {r0, r1, r2, r3, r4, r5, r6, r7, r8, r9, sl, fp, ip}
 80019c0:	f04f 0300 	mov.w	r3, #0
 80019c4:	e92d 000c 	stmdb	sp!, {r2, r3}
 80019c8:	a901      	add	r1, sp, #4
 80019ca:	f7ff fc1b 	bl	8001204 <__gnu_Unwind_Resume>
 80019ce:	f8dd e040 	ldr.w	lr, [sp, #64]	; 0x40
 80019d2:	b012      	add	sp, #72	; 0x48
 80019d4:	4770      	bx	lr
 80019d6:	bf00      	nop

080019d8 <_Unwind_Resume_or_Rethrow>:
 80019d8:	46ec      	mov	ip, sp
 80019da:	b500      	push	{lr}
 80019dc:	e92d 5000 	stmdb	sp!, {ip, lr}
 80019e0:	e92d 1fff 	stmdb	sp!, {r0, r1, r2, r3, r4, r5, r6, r7, r8, r9, sl, fp, ip}
 80019e4:	f04f 0300 	mov.w	r3, #0
 80019e8:	e92d 000c 	stmdb	sp!, {r2, r3}
 80019ec:	a901      	add	r1, sp, #4
 80019ee:	f7ff fc2b 	bl	8001248 <__gnu_Unwind_Resume_or_Rethrow>
 80019f2:	f8dd e040 	ldr.w	lr, [sp, #64]	; 0x40
 80019f6:	b012      	add	sp, #72	; 0x48
 80019f8:	4770      	bx	lr
 80019fa:	bf00      	nop

080019fc <_Unwind_ForcedUnwind>:
 80019fc:	46ec      	mov	ip, sp
 80019fe:	b500      	push	{lr}
 8001a00:	e92d 5000 	stmdb	sp!, {ip, lr}
 8001a04:	e92d 1fff 	stmdb	sp!, {r0, r1, r2, r3, r4, r5, r6, r7, r8, r9, sl, fp, ip}
 8001a08:	f04f 0300 	mov.w	r3, #0
 8001a0c:	e92d 000c 	stmdb	sp!, {r2, r3}
 8001a10:	ab01      	add	r3, sp, #4
 8001a12:	f7ff fbed 	bl	80011f0 <__gnu_Unwind_ForcedUnwind>
 8001a16:	f8dd e040 	ldr.w	lr, [sp, #64]	; 0x40
 8001a1a:	b012      	add	sp, #72	; 0x48
 8001a1c:	4770      	bx	lr
 8001a1e:	bf00      	nop

08001a20 <_Unwind_Backtrace>:
 8001a20:	46ec      	mov	ip, sp
 8001a22:	b500      	push	{lr}
 8001a24:	e92d 5000 	stmdb	sp!, {ip, lr}
 8001a28:	e92d 1fff 	stmdb	sp!, {r0, r1, r2, r3, r4, r5, r6, r7, r8, r9, sl, fp, ip}
 8001a2c:	f04f 0300 	mov.w	r3, #0
 8001a30:	e92d 000c 	stmdb	sp!, {r2, r3}
 8001a34:	aa01      	add	r2, sp, #4
 8001a36:	f7ff fc65 	bl	8001304 <__gnu_Unwind_Backtrace>
 8001a3a:	f8dd e040 	ldr.w	lr, [sp, #64]	; 0x40
 8001a3e:	b012      	add	sp, #72	; 0x48
 8001a40:	4770      	bx	lr
 8001a42:	bf00      	nop

08001a44 <next_unwind_byte>:
 8001a44:	7a02      	ldrb	r2, [r0, #8]
 8001a46:	b91a      	cbnz	r2, 8001a50 <next_unwind_byte+0xc>
 8001a48:	7a43      	ldrb	r3, [r0, #9]
 8001a4a:	b943      	cbnz	r3, 8001a5e <next_unwind_byte+0x1a>
 8001a4c:	20b0      	movs	r0, #176	; 0xb0
 8001a4e:	4770      	bx	lr
 8001a50:	6803      	ldr	r3, [r0, #0]
 8001a52:	3a01      	subs	r2, #1
 8001a54:	7202      	strb	r2, [r0, #8]
 8001a56:	021a      	lsls	r2, r3, #8
 8001a58:	6002      	str	r2, [r0, #0]
 8001a5a:	0e18      	lsrs	r0, r3, #24
 8001a5c:	4770      	bx	lr
 8001a5e:	6842      	ldr	r2, [r0, #4]
 8001a60:	3b01      	subs	r3, #1
 8001a62:	b410      	push	{r4}
 8001a64:	7243      	strb	r3, [r0, #9]
 8001a66:	6813      	ldr	r3, [r2, #0]
 8001a68:	2103      	movs	r1, #3
 8001a6a:	1d14      	adds	r4, r2, #4
 8001a6c:	7201      	strb	r1, [r0, #8]
 8001a6e:	021a      	lsls	r2, r3, #8
 8001a70:	6044      	str	r4, [r0, #4]
 8001a72:	6002      	str	r2, [r0, #0]
 8001a74:	f85d 4b04 	ldr.w	r4, [sp], #4
 8001a78:	0e18      	lsrs	r0, r3, #24
 8001a7a:	4770      	bx	lr

08001a7c <_Unwind_GetGR.constprop.0>:
 8001a7c:	b500      	push	{lr}
 8001a7e:	b085      	sub	sp, #20
 8001a80:	aa03      	add	r2, sp, #12
 8001a82:	2300      	movs	r3, #0
 8001a84:	9200      	str	r2, [sp, #0]
 8001a86:	4619      	mov	r1, r3
 8001a88:	220c      	movs	r2, #12
 8001a8a:	f7ff fbed 	bl	8001268 <_Unwind_VRS_Get>
 8001a8e:	9803      	ldr	r0, [sp, #12]
 8001a90:	b005      	add	sp, #20
 8001a92:	f85d fb04 	ldr.w	pc, [sp], #4
 8001a96:	bf00      	nop

08001a98 <unwind_UCB_from_context>:
 8001a98:	e7f0      	b.n	8001a7c <_Unwind_GetGR.constprop.0>
 8001a9a:	bf00      	nop

08001a9c <__gnu_unwind_execute>:
 8001a9c:	e92d 43f0 	stmdb	sp!, {r4, r5, r6, r7, r8, r9, lr}
 8001aa0:	4606      	mov	r6, r0
 8001aa2:	b085      	sub	sp, #20
 8001aa4:	460f      	mov	r7, r1
 8001aa6:	f04f 0800 	mov.w	r8, #0
 8001aaa:	4638      	mov	r0, r7
 8001aac:	f7ff ffca 	bl	8001a44 <next_unwind_byte>
 8001ab0:	28b0      	cmp	r0, #176	; 0xb0
 8001ab2:	4604      	mov	r4, r0
 8001ab4:	d023      	beq.n	8001afe <__gnu_unwind_execute+0x62>
 8001ab6:	0605      	lsls	r5, r0, #24
 8001ab8:	d427      	bmi.n	8001b0a <__gnu_unwind_execute+0x6e>
 8001aba:	2300      	movs	r3, #0
 8001abc:	f10d 090c 	add.w	r9, sp, #12
 8001ac0:	4619      	mov	r1, r3
 8001ac2:	0085      	lsls	r5, r0, #2
 8001ac4:	220d      	movs	r2, #13
 8001ac6:	f8cd 9000 	str.w	r9, [sp]
 8001aca:	4630      	mov	r0, r6
 8001acc:	f7ff fbcc 	bl	8001268 <_Unwind_VRS_Get>
 8001ad0:	b2ed      	uxtb	r5, r5
 8001ad2:	9b03      	ldr	r3, [sp, #12]
 8001ad4:	f8cd 9000 	str.w	r9, [sp]
 8001ad8:	0660      	lsls	r0, r4, #25
 8001ada:	f105 0504 	add.w	r5, r5, #4
 8001ade:	bf4c      	ite	mi
 8001ae0:	1b5d      	submi	r5, r3, r5
 8001ae2:	18ed      	addpl	r5, r5, r3
 8001ae4:	2300      	movs	r3, #0
 8001ae6:	4619      	mov	r1, r3
 8001ae8:	220d      	movs	r2, #13
 8001aea:	4630      	mov	r0, r6
 8001aec:	9503      	str	r5, [sp, #12]
 8001aee:	f7ff fbe1 	bl	80012b4 <_Unwind_VRS_Set>
 8001af2:	4638      	mov	r0, r7
 8001af4:	f7ff ffa6 	bl	8001a44 <next_unwind_byte>
 8001af8:	28b0      	cmp	r0, #176	; 0xb0
 8001afa:	4604      	mov	r4, r0
 8001afc:	d1db      	bne.n	8001ab6 <__gnu_unwind_execute+0x1a>
 8001afe:	f1b8 0f00 	cmp.w	r8, #0
 8001b02:	f000 8095 	beq.w	8001c30 <__gnu_unwind_execute+0x194>
 8001b06:	2000      	movs	r0, #0
 8001b08:	e01c      	b.n	8001b44 <__gnu_unwind_execute+0xa8>
 8001b0a:	f000 03f0 	and.w	r3, r0, #240	; 0xf0
 8001b0e:	2b80      	cmp	r3, #128	; 0x80
 8001b10:	d05d      	beq.n	8001bce <__gnu_unwind_execute+0x132>
 8001b12:	2b90      	cmp	r3, #144	; 0x90
 8001b14:	d019      	beq.n	8001b4a <__gnu_unwind_execute+0xae>
 8001b16:	2ba0      	cmp	r3, #160	; 0xa0
 8001b18:	d02c      	beq.n	8001b74 <__gnu_unwind_execute+0xd8>
 8001b1a:	2bb0      	cmp	r3, #176	; 0xb0
 8001b1c:	d03f      	beq.n	8001b9e <__gnu_unwind_execute+0x102>
 8001b1e:	2bc0      	cmp	r3, #192	; 0xc0
 8001b20:	d06c      	beq.n	8001bfc <__gnu_unwind_execute+0x160>
 8001b22:	f000 03f8 	and.w	r3, r0, #248	; 0xf8
 8001b26:	2bd0      	cmp	r3, #208	; 0xd0
 8001b28:	d10b      	bne.n	8001b42 <__gnu_unwind_execute+0xa6>
 8001b2a:	f000 0207 	and.w	r2, r0, #7
 8001b2e:	3201      	adds	r2, #1
 8001b30:	f442 2200 	orr.w	r2, r2, #524288	; 0x80000
 8001b34:	2305      	movs	r3, #5
 8001b36:	2101      	movs	r1, #1
 8001b38:	4630      	mov	r0, r6
 8001b3a:	f7ff fd89 	bl	8001650 <_Unwind_VRS_Pop>
 8001b3e:	2800      	cmp	r0, #0
 8001b40:	d0b3      	beq.n	8001aaa <__gnu_unwind_execute+0xe>
 8001b42:	2009      	movs	r0, #9
 8001b44:	b005      	add	sp, #20
 8001b46:	e8bd 83f0 	ldmia.w	sp!, {r4, r5, r6, r7, r8, r9, pc}
 8001b4a:	f000 030d 	and.w	r3, r0, #13
 8001b4e:	2b0d      	cmp	r3, #13
 8001b50:	d0f7      	beq.n	8001b42 <__gnu_unwind_execute+0xa6>
 8001b52:	ad03      	add	r5, sp, #12
 8001b54:	2300      	movs	r3, #0
 8001b56:	f000 020f 	and.w	r2, r0, #15
 8001b5a:	4619      	mov	r1, r3
 8001b5c:	9500      	str	r5, [sp, #0]
 8001b5e:	4630      	mov	r0, r6
 8001b60:	f7ff fb82 	bl	8001268 <_Unwind_VRS_Get>
 8001b64:	2300      	movs	r3, #0
 8001b66:	9500      	str	r5, [sp, #0]
 8001b68:	4619      	mov	r1, r3
 8001b6a:	220d      	movs	r2, #13
 8001b6c:	4630      	mov	r0, r6
 8001b6e:	f7ff fba1 	bl	80012b4 <_Unwind_VRS_Set>
 8001b72:	e79a      	b.n	8001aaa <__gnu_unwind_execute+0xe>
 8001b74:	43c2      	mvns	r2, r0
 8001b76:	f002 0307 	and.w	r3, r2, #7
 8001b7a:	f44f 627f 	mov.w	r2, #4080	; 0xff0
 8001b7e:	411a      	asrs	r2, r3
 8001b80:	0701      	lsls	r1, r0, #28
 8001b82:	f402 627f 	and.w	r2, r2, #4080	; 0xff0
 8001b86:	f04f 0300 	mov.w	r3, #0
 8001b8a:	bf48      	it	mi
 8001b8c:	f442 4280 	orrmi.w	r2, r2, #16384	; 0x4000
 8001b90:	4619      	mov	r1, r3
 8001b92:	4630      	mov	r0, r6
 8001b94:	f7ff fd5c 	bl	8001650 <_Unwind_VRS_Pop>
 8001b98:	2800      	cmp	r0, #0
 8001b9a:	d1d2      	bne.n	8001b42 <__gnu_unwind_execute+0xa6>
 8001b9c:	e785      	b.n	8001aaa <__gnu_unwind_execute+0xe>
 8001b9e:	28b1      	cmp	r0, #177	; 0xb1
 8001ba0:	d057      	beq.n	8001c52 <__gnu_unwind_execute+0x1b6>
 8001ba2:	28b2      	cmp	r0, #178	; 0xb2
 8001ba4:	d068      	beq.n	8001c78 <__gnu_unwind_execute+0x1dc>
 8001ba6:	28b3      	cmp	r0, #179	; 0xb3
 8001ba8:	f000 8095 	beq.w	8001cd6 <__gnu_unwind_execute+0x23a>
 8001bac:	f000 03fc 	and.w	r3, r0, #252	; 0xfc
 8001bb0:	2bb4      	cmp	r3, #180	; 0xb4
 8001bb2:	d0c6      	beq.n	8001b42 <__gnu_unwind_execute+0xa6>
 8001bb4:	f000 0207 	and.w	r2, r0, #7
 8001bb8:	3201      	adds	r2, #1
 8001bba:	2301      	movs	r3, #1
 8001bbc:	f442 2200 	orr.w	r2, r2, #524288	; 0x80000
 8001bc0:	4619      	mov	r1, r3
 8001bc2:	4630      	mov	r0, r6
 8001bc4:	f7ff fd44 	bl	8001650 <_Unwind_VRS_Pop>
 8001bc8:	2800      	cmp	r0, #0
 8001bca:	d1ba      	bne.n	8001b42 <__gnu_unwind_execute+0xa6>
 8001bcc:	e76d      	b.n	8001aaa <__gnu_unwind_execute+0xe>
 8001bce:	4638      	mov	r0, r7
 8001bd0:	f7ff ff38 	bl	8001a44 <next_unwind_byte>
 8001bd4:	0224      	lsls	r4, r4, #8
 8001bd6:	4304      	orrs	r4, r0
 8001bd8:	f5b4 4f00 	cmp.w	r4, #32768	; 0x8000
 8001bdc:	d0b1      	beq.n	8001b42 <__gnu_unwind_execute+0xa6>
 8001bde:	0124      	lsls	r4, r4, #4
 8001be0:	2300      	movs	r3, #0
 8001be2:	b2a2      	uxth	r2, r4
 8001be4:	4619      	mov	r1, r3
 8001be6:	4630      	mov	r0, r6
 8001be8:	f7ff fd32 	bl	8001650 <_Unwind_VRS_Pop>
 8001bec:	2800      	cmp	r0, #0
 8001bee:	d1a8      	bne.n	8001b42 <__gnu_unwind_execute+0xa6>
 8001bf0:	f414 4f00 	tst.w	r4, #32768	; 0x8000
 8001bf4:	bf18      	it	ne
 8001bf6:	f04f 0801 	movne.w	r8, #1
 8001bfa:	e756      	b.n	8001aaa <__gnu_unwind_execute+0xe>
 8001bfc:	28c6      	cmp	r0, #198	; 0xc6
 8001bfe:	d07d      	beq.n	8001cfc <__gnu_unwind_execute+0x260>
 8001c00:	28c7      	cmp	r0, #199	; 0xc7
 8001c02:	f000 8086 	beq.w	8001d12 <__gnu_unwind_execute+0x276>
 8001c06:	f000 03f8 	and.w	r3, r0, #248	; 0xf8
 8001c0a:	2bc0      	cmp	r3, #192	; 0xc0
 8001c0c:	f000 8094 	beq.w	8001d38 <__gnu_unwind_execute+0x29c>
 8001c10:	28c8      	cmp	r0, #200	; 0xc8
 8001c12:	f000 809f 	beq.w	8001d54 <__gnu_unwind_execute+0x2b8>
 8001c16:	28c9      	cmp	r0, #201	; 0xc9
 8001c18:	d193      	bne.n	8001b42 <__gnu_unwind_execute+0xa6>
 8001c1a:	4638      	mov	r0, r7
 8001c1c:	f7ff ff12 	bl	8001a44 <next_unwind_byte>
 8001c20:	0302      	lsls	r2, r0, #12
 8001c22:	f000 000f 	and.w	r0, r0, #15
 8001c26:	f402 2270 	and.w	r2, r2, #983040	; 0xf0000
 8001c2a:	3001      	adds	r0, #1
 8001c2c:	4302      	orrs	r2, r0
 8001c2e:	e781      	b.n	8001b34 <__gnu_unwind_execute+0x98>
 8001c30:	ac03      	add	r4, sp, #12
 8001c32:	4643      	mov	r3, r8
 8001c34:	220e      	movs	r2, #14
 8001c36:	4641      	mov	r1, r8
 8001c38:	9400      	str	r4, [sp, #0]
 8001c3a:	4630      	mov	r0, r6
 8001c3c:	f7ff fb14 	bl	8001268 <_Unwind_VRS_Get>
 8001c40:	9400      	str	r4, [sp, #0]
 8001c42:	4630      	mov	r0, r6
 8001c44:	4643      	mov	r3, r8
 8001c46:	220f      	movs	r2, #15
 8001c48:	4641      	mov	r1, r8
 8001c4a:	f7ff fb33 	bl	80012b4 <_Unwind_VRS_Set>
 8001c4e:	4640      	mov	r0, r8
 8001c50:	e778      	b.n	8001b44 <__gnu_unwind_execute+0xa8>
 8001c52:	4638      	mov	r0, r7
 8001c54:	f7ff fef6 	bl	8001a44 <next_unwind_byte>
 8001c58:	2800      	cmp	r0, #0
 8001c5a:	f43f af72 	beq.w	8001b42 <__gnu_unwind_execute+0xa6>
 8001c5e:	f010 03f0 	ands.w	r3, r0, #240	; 0xf0
 8001c62:	f47f af6e 	bne.w	8001b42 <__gnu_unwind_execute+0xa6>
 8001c66:	4602      	mov	r2, r0
 8001c68:	4619      	mov	r1, r3
 8001c6a:	4630      	mov	r0, r6
 8001c6c:	f7ff fcf0 	bl	8001650 <_Unwind_VRS_Pop>
 8001c70:	2800      	cmp	r0, #0
 8001c72:	f47f af66 	bne.w	8001b42 <__gnu_unwind_execute+0xa6>
 8001c76:	e718      	b.n	8001aaa <__gnu_unwind_execute+0xe>
 8001c78:	2300      	movs	r3, #0
 8001c7a:	f10d 090c 	add.w	r9, sp, #12
 8001c7e:	220d      	movs	r2, #13
 8001c80:	4619      	mov	r1, r3
 8001c82:	f8cd 9000 	str.w	r9, [sp]
 8001c86:	4630      	mov	r0, r6
 8001c88:	f7ff faee 	bl	8001268 <_Unwind_VRS_Get>
 8001c8c:	4638      	mov	r0, r7
 8001c8e:	f7ff fed9 	bl	8001a44 <next_unwind_byte>
 8001c92:	0602      	lsls	r2, r0, #24
 8001c94:	f04f 0402 	mov.w	r4, #2
 8001c98:	d50c      	bpl.n	8001cb4 <__gnu_unwind_execute+0x218>
 8001c9a:	9b03      	ldr	r3, [sp, #12]
 8001c9c:	f000 007f 	and.w	r0, r0, #127	; 0x7f
 8001ca0:	40a0      	lsls	r0, r4
 8001ca2:	4403      	add	r3, r0
 8001ca4:	4638      	mov	r0, r7
 8001ca6:	9303      	str	r3, [sp, #12]
 8001ca8:	f7ff fecc 	bl	8001a44 <next_unwind_byte>
 8001cac:	0603      	lsls	r3, r0, #24
 8001cae:	f104 0407 	add.w	r4, r4, #7
 8001cb2:	d4f2      	bmi.n	8001c9a <__gnu_unwind_execute+0x1fe>
 8001cb4:	9b03      	ldr	r3, [sp, #12]
 8001cb6:	f8cd 9000 	str.w	r9, [sp]
 8001cba:	f000 027f 	and.w	r2, r0, #127	; 0x7f
 8001cbe:	40a2      	lsls	r2, r4
 8001cc0:	f503 7401 	add.w	r4, r3, #516	; 0x204
 8001cc4:	2300      	movs	r3, #0
 8001cc6:	4414      	add	r4, r2
 8001cc8:	4619      	mov	r1, r3
 8001cca:	220d      	movs	r2, #13
 8001ccc:	4630      	mov	r0, r6
 8001cce:	9403      	str	r4, [sp, #12]
 8001cd0:	f7ff faf0 	bl	80012b4 <_Unwind_VRS_Set>
 8001cd4:	e6e9      	b.n	8001aaa <__gnu_unwind_execute+0xe>
 8001cd6:	4638      	mov	r0, r7
 8001cd8:	f7ff feb4 	bl	8001a44 <next_unwind_byte>
 8001cdc:	0301      	lsls	r1, r0, #12
 8001cde:	f000 000f 	and.w	r0, r0, #15
 8001ce2:	f401 2170 	and.w	r1, r1, #983040	; 0xf0000
 8001ce6:	1c42      	adds	r2, r0, #1
 8001ce8:	2301      	movs	r3, #1
 8001cea:	430a      	orrs	r2, r1
 8001cec:	4630      	mov	r0, r6
 8001cee:	4619      	mov	r1, r3
 8001cf0:	f7ff fcae 	bl	8001650 <_Unwind_VRS_Pop>
 8001cf4:	2800      	cmp	r0, #0
 8001cf6:	f47f af24 	bne.w	8001b42 <__gnu_unwind_execute+0xa6>
 8001cfa:	e6d6      	b.n	8001aaa <__gnu_unwind_execute+0xe>
 8001cfc:	4638      	mov	r0, r7
 8001cfe:	f7ff fea1 	bl	8001a44 <next_unwind_byte>
 8001d02:	0301      	lsls	r1, r0, #12
 8001d04:	f000 000f 	and.w	r0, r0, #15
 8001d08:	f401 2170 	and.w	r1, r1, #983040	; 0xf0000
 8001d0c:	1c42      	adds	r2, r0, #1
 8001d0e:	2303      	movs	r3, #3
 8001d10:	e7eb      	b.n	8001cea <__gnu_unwind_execute+0x24e>
 8001d12:	4638      	mov	r0, r7
 8001d14:	f7ff fe96 	bl	8001a44 <next_unwind_byte>
 8001d18:	2800      	cmp	r0, #0
 8001d1a:	f43f af12 	beq.w	8001b42 <__gnu_unwind_execute+0xa6>
 8001d1e:	f010 03f0 	ands.w	r3, r0, #240	; 0xf0
 8001d22:	f47f af0e 	bne.w	8001b42 <__gnu_unwind_execute+0xa6>
 8001d26:	4602      	mov	r2, r0
 8001d28:	2104      	movs	r1, #4
 8001d2a:	4630      	mov	r0, r6
 8001d2c:	f7ff fc90 	bl	8001650 <_Unwind_VRS_Pop>
 8001d30:	2800      	cmp	r0, #0
 8001d32:	f47f af06 	bne.w	8001b42 <__gnu_unwind_execute+0xa6>
 8001d36:	e6b8      	b.n	8001aaa <__gnu_unwind_execute+0xe>
 8001d38:	f000 020f 	and.w	r2, r0, #15
 8001d3c:	3201      	adds	r2, #1
 8001d3e:	2303      	movs	r3, #3
 8001d40:	f442 2220 	orr.w	r2, r2, #655360	; 0xa0000
 8001d44:	4619      	mov	r1, r3
 8001d46:	4630      	mov	r0, r6
 8001d48:	f7ff fc82 	bl	8001650 <_Unwind_VRS_Pop>
 8001d4c:	2800      	cmp	r0, #0
 8001d4e:	f47f aef8 	bne.w	8001b42 <__gnu_unwind_execute+0xa6>
 8001d52:	e6aa      	b.n	8001aaa <__gnu_unwind_execute+0xe>
 8001d54:	4638      	mov	r0, r7
 8001d56:	f7ff fe75 	bl	8001a44 <next_unwind_byte>
 8001d5a:	f000 02f0 	and.w	r2, r0, #240	; 0xf0
 8001d5e:	f000 030f 	and.w	r3, r0, #15
 8001d62:	3210      	adds	r2, #16
 8001d64:	3301      	adds	r3, #1
 8001d66:	ea43 3202 	orr.w	r2, r3, r2, lsl #12
 8001d6a:	e6e3      	b.n	8001b34 <__gnu_unwind_execute+0x98>

08001d6c <__gnu_unwind_frame>:
 8001d6c:	b510      	push	{r4, lr}
 8001d6e:	6cc3      	ldr	r3, [r0, #76]	; 0x4c
 8001d70:	b084      	sub	sp, #16
 8001d72:	685a      	ldr	r2, [r3, #4]
 8001d74:	2003      	movs	r0, #3
 8001d76:	f88d 000c 	strb.w	r0, [sp, #12]
 8001d7a:	79dc      	ldrb	r4, [r3, #7]
 8001d7c:	f88d 400d 	strb.w	r4, [sp, #13]
 8001d80:	0212      	lsls	r2, r2, #8
 8001d82:	3308      	adds	r3, #8
 8001d84:	4608      	mov	r0, r1
 8001d86:	a901      	add	r1, sp, #4
 8001d88:	9201      	str	r2, [sp, #4]
 8001d8a:	9302      	str	r3, [sp, #8]
 8001d8c:	f7ff fe86 	bl	8001a9c <__gnu_unwind_execute>
 8001d90:	b004      	add	sp, #16
 8001d92:	bd10      	pop	{r4, pc}

08001d94 <_Unwind_GetRegionStart>:
 8001d94:	b508      	push	{r3, lr}
 8001d96:	f7ff fe7f 	bl	8001a98 <unwind_UCB_from_context>
 8001d9a:	6c80      	ldr	r0, [r0, #72]	; 0x48
 8001d9c:	bd08      	pop	{r3, pc}
 8001d9e:	bf00      	nop

08001da0 <_Unwind_GetLanguageSpecificData>:
 8001da0:	b508      	push	{r3, lr}
 8001da2:	f7ff fe79 	bl	8001a98 <unwind_UCB_from_context>
 8001da6:	6cc0      	ldr	r0, [r0, #76]	; 0x4c
 8001da8:	79c3      	ldrb	r3, [r0, #7]
 8001daa:	eb00 0083 	add.w	r0, r0, r3, lsl #2
 8001dae:	3008      	adds	r0, #8
 8001db0:	bd08      	pop	{r3, pc}
 8001db2:	bf00      	nop

08001db4 <_Unwind_GetTextRelBase>:
 8001db4:	b508      	push	{r3, lr}
 8001db6:	f009 fc62 	bl	800b67e <abort>
 8001dba:	bf00      	nop

08001dbc <_Unwind_GetDataRelBase>:
 8001dbc:	b508      	push	{r3, lr}
 8001dbe:	f7ff fff9 	bl	8001db4 <_Unwind_GetTextRelBase>
 8001dc2:	bf00      	nop

08001dc4 <__aeabi_idiv0>:
 8001dc4:	4770      	bx	lr
 8001dc6:	bf00      	nop

08001dc8 <HAL_Init>:
#if (DATA_CACHE_ENABLE == 0)
   __HAL_FLASH_DATA_CACHE_DISABLE();
#endif /* DATA_CACHE_ENABLE */

#if (PREFETCH_ENABLE != 0)
  __HAL_FLASH_PREFETCH_BUFFER_ENABLE();
 8001dc8:	4a09      	ldr	r2, [pc, #36]	; (8001df0 <HAL_Init+0x28>)
 8001dca:	6813      	ldr	r3, [r2, #0]
 8001dcc:	f443 7380 	orr.w	r3, r3, #256	; 0x100
{
 8001dd0:	b510      	push	{r4, lr}
#endif /* PREFETCH_ENABLE */

  /* Set Interrupt Group Priority */
  HAL_NVIC_SetPriorityGrouping(NVIC_PRIORITYGROUP_4);
 8001dd2:	2003      	movs	r0, #3
  __HAL_FLASH_PREFETCH_BUFFER_ENABLE();
 8001dd4:	6013      	str	r3, [r2, #0]
  HAL_NVIC_SetPriorityGrouping(NVIC_PRIORITYGROUP_4);
 8001dd6:	f000 f833 	bl	8001e40 <HAL_NVIC_SetPriorityGrouping>

  /* Use SysTick as time base source and configure 1ms tick (default clock after Reset is MSI) */
  if (HAL_InitTick(TICK_INT_PRIORITY) != HAL_OK)
 8001dda:	2000      	movs	r0, #0
 8001ddc:	f005 fb7c 	bl	80074d8 <HAL_InitTick>
 8001de0:	4604      	mov	r4, r0
 8001de2:	b918      	cbnz	r0, 8001dec <HAL_Init+0x24>
    status = HAL_ERROR;
  }
  else
  {
    /* Init the low level hardware */
    HAL_MspInit();
 8001de4:	f005 fb26 	bl	8007434 <HAL_MspInit>
  }

  /* Return function status */
  return status;
}
 8001de8:	4620      	mov	r0, r4
 8001dea:	bd10      	pop	{r4, pc}
    status = HAL_ERROR;
 8001dec:	2401      	movs	r4, #1
 8001dee:	e7fb      	b.n	8001de8 <HAL_Init+0x20>
 8001df0:	40022000 	.word	0x40022000

08001df4 <HAL_IncTick>:
  *      implementations in user file.
  * @retval None
  */
__weak void HAL_IncTick(void)
{
  uwTick += uwTickFreq;
 8001df4:	4a03      	ldr	r2, [pc, #12]	; (8001e04 <HAL_IncTick+0x10>)
 8001df6:	4904      	ldr	r1, [pc, #16]	; (8001e08 <HAL_IncTick+0x14>)
 8001df8:	6813      	ldr	r3, [r2, #0]
 8001dfa:	6809      	ldr	r1, [r1, #0]
 8001dfc:	440b      	add	r3, r1
 8001dfe:	6013      	str	r3, [r2, #0]
 8001e00:	4770      	bx	lr
 8001e02:	bf00      	nop
 8001e04:	200042ec 	.word	0x200042ec
 8001e08:	20000000 	.word	0x20000000

08001e0c <HAL_GetTick>:
  *       implementations in user file.
  * @retval tick value
  */
__weak uint32_t HAL_GetTick(void)
{
  return uwTick;
 8001e0c:	4b01      	ldr	r3, [pc, #4]	; (8001e14 <HAL_GetTick+0x8>)
 8001e0e:	6818      	ldr	r0, [r3, #0]
}
 8001e10:	4770      	bx	lr
 8001e12:	bf00      	nop
 8001e14:	200042ec 	.word	0x200042ec

08001e18 <HAL_Delay>:
  *       implementations in user file.
  * @param Delay  specifies the delay time length, in milliseconds.
  * @retval None
  */
__weak void HAL_Delay(uint32_t Delay)
{
 8001e18:	b538      	push	{r3, r4, r5, lr}
 8001e1a:	4604      	mov	r4, r0
  uint32_t tickstart = HAL_GetTick();
 8001e1c:	f7ff fff6 	bl	8001e0c <HAL_GetTick>
  uint32_t wait = Delay;

  /* Add a period to guaranty minimum wait */
  if (wait < HAL_MAX_DELAY)
 8001e20:	1c63      	adds	r3, r4, #1
  {
    wait += (uint32_t)(uwTickFreq);
 8001e22:	bf1c      	itt	ne
 8001e24:	4b05      	ldrne	r3, [pc, #20]	; (8001e3c <HAL_Delay+0x24>)
 8001e26:	681b      	ldrne	r3, [r3, #0]
  uint32_t tickstart = HAL_GetTick();
 8001e28:	4605      	mov	r5, r0
    wait += (uint32_t)(uwTickFreq);
 8001e2a:	bf18      	it	ne
 8001e2c:	18e4      	addne	r4, r4, r3
  }

  while((HAL_GetTick() - tickstart) < wait)
 8001e2e:	f7ff ffed 	bl	8001e0c <HAL_GetTick>
 8001e32:	1b40      	subs	r0, r0, r5
 8001e34:	4284      	cmp	r4, r0
 8001e36:	d8fa      	bhi.n	8001e2e <HAL_Delay+0x16>
  {
  }
}
 8001e38:	bd38      	pop	{r3, r4, r5, pc}
 8001e3a:	bf00      	nop
 8001e3c:	20000000 	.word	0x20000000

08001e40 <HAL_NVIC_SetPriorityGrouping>:
__STATIC_INLINE void __NVIC_SetPriorityGrouping(uint32_t PriorityGroup)
{
  uint32_t reg_value;
  uint32_t PriorityGroupTmp = (PriorityGroup & (uint32_t)0x07UL);             /* only values 0..7 are used          */

  reg_value  =  SCB->AIRCR;                                                   /* read old register configuration    */
 8001e40:	4a07      	ldr	r2, [pc, #28]	; (8001e60 <HAL_NVIC_SetPriorityGrouping+0x20>)
 8001e42:	68d3      	ldr	r3, [r2, #12]
  reg_value &= ~((uint32_t)(SCB_AIRCR_VECTKEY_Msk | SCB_AIRCR_PRIGROUP_Msk)); /* clear bits to change               */
 8001e44:	f423 63e0 	bic.w	r3, r3, #1792	; 0x700
 8001e48:	041b      	lsls	r3, r3, #16
 8001e4a:	0c1b      	lsrs	r3, r3, #16
 8001e4c:	f043 63bf 	orr.w	r3, r3, #100139008	; 0x5f80000
  reg_value  =  (reg_value                                   |
                ((uint32_t)0x5FAUL << SCB_AIRCR_VECTKEY_Pos) |
                (PriorityGroupTmp << SCB_AIRCR_PRIGROUP_Pos)  );              /* Insert write key and priority group */
 8001e50:	0200      	lsls	r0, r0, #8
 8001e52:	f443 3300 	orr.w	r3, r3, #131072	; 0x20000
 8001e56:	f400 60e0 	and.w	r0, r0, #1792	; 0x700
  reg_value  =  (reg_value                                   |
 8001e5a:	4303      	orrs	r3, r0
  SCB->AIRCR =  reg_value;
 8001e5c:	60d3      	str	r3, [r2, #12]
 8001e5e:	4770      	bx	lr
 8001e60:	e000ed00 	.word	0xe000ed00

08001e64 <HAL_NVIC_SetPriority>:
  \details Reads the priority grouping field from the NVIC Interrupt Controller.
  \return                Priority grouping field (SCB->AIRCR [10:8] PRIGROUP field).
 */
__STATIC_INLINE uint32_t __NVIC_GetPriorityGrouping(void)
{
  return ((uint32_t)((SCB->AIRCR & SCB_AIRCR_PRIGROUP_Msk) >> SCB_AIRCR_PRIGROUP_Pos));
 8001e64:	4b17      	ldr	r3, [pc, #92]	; (8001ec4 <HAL_NVIC_SetPriority+0x60>)
  *         This parameter can be a value between 0 and 15
  *         A lower priority value indicates a higher priority.
  * @retval None
  */
void HAL_NVIC_SetPriority(IRQn_Type IRQn, uint32_t PreemptPriority, uint32_t SubPriority)
{
 8001e66:	b530      	push	{r4, r5, lr}
 8001e68:	68dc      	ldr	r4, [r3, #12]
 8001e6a:	f3c4 2402 	ubfx	r4, r4, #8, #3
{
  uint32_t PriorityGroupTmp = (PriorityGroup & (uint32_t)0x07UL);   /* only values 0..7 are used          */
  uint32_t PreemptPriorityBits;
  uint32_t SubPriorityBits;

  PreemptPriorityBits = ((7UL - PriorityGroupTmp) > (uint32_t)(__NVIC_PRIO_BITS)) ? (uint32_t)(__NVIC_PRIO_BITS) : (uint32_t)(7UL - PriorityGroupTmp);
 8001e6e:	f1c4 0307 	rsb	r3, r4, #7
  SubPriorityBits     = ((PriorityGroupTmp + (uint32_t)(__NVIC_PRIO_BITS)) < (uint32_t)7UL) ? (uint32_t)0UL : (uint32_t)((PriorityGroupTmp - 7UL) + (uint32_t)(__NVIC_PRIO_BITS));
 8001e72:	1d25      	adds	r5, r4, #4
  PreemptPriorityBits = ((7UL - PriorityGroupTmp) > (uint32_t)(__NVIC_PRIO_BITS)) ? (uint32_t)(__NVIC_PRIO_BITS) : (uint32_t)(7UL - PriorityGroupTmp);
 8001e74:	2b04      	cmp	r3, #4
 8001e76:	bf28      	it	cs
 8001e78:	2304      	movcs	r3, #4
  SubPriorityBits     = ((PriorityGroupTmp + (uint32_t)(__NVIC_PRIO_BITS)) < (uint32_t)7UL) ? (uint32_t)0UL : (uint32_t)((PriorityGroupTmp - 7UL) + (uint32_t)(__NVIC_PRIO_BITS));
 8001e7a:	2d06      	cmp	r5, #6

  return (
           ((PreemptPriority & (uint32_t)((1UL << (PreemptPriorityBits)) - 1UL)) << SubPriorityBits) |
 8001e7c:	f04f 0501 	mov.w	r5, #1
 8001e80:	fa05 f303 	lsl.w	r3, r5, r3
 8001e84:	f103 33ff 	add.w	r3, r3, #4294967295
  SubPriorityBits     = ((PriorityGroupTmp + (uint32_t)(__NVIC_PRIO_BITS)) < (uint32_t)7UL) ? (uint32_t)0UL : (uint32_t)((PriorityGroupTmp - 7UL) + (uint32_t)(__NVIC_PRIO_BITS));
 8001e88:	bf8c      	ite	hi
 8001e8a:	3c03      	subhi	r4, #3
 8001e8c:	2400      	movls	r4, #0
           ((PreemptPriority & (uint32_t)((1UL << (PreemptPriorityBits)) - 1UL)) << SubPriorityBits) |
 8001e8e:	4019      	ands	r1, r3
 8001e90:	40a1      	lsls	r1, r4
           ((SubPriority     & (uint32_t)((1UL << (SubPriorityBits    )) - 1UL)))
 8001e92:	fa05 f404 	lsl.w	r4, r5, r4
 8001e96:	3c01      	subs	r4, #1
 8001e98:	4022      	ands	r2, r4
  if ((int32_t)(IRQn) >= 0)
 8001e9a:	2800      	cmp	r0, #0
           ((PreemptPriority & (uint32_t)((1UL << (PreemptPriorityBits)) - 1UL)) << SubPriorityBits) |
 8001e9c:	ea42 0201 	orr.w	r2, r2, r1
 8001ea0:	ea4f 1202 	mov.w	r2, r2, lsl #4
    NVIC->IP[((uint32_t)IRQn)]               = (uint8_t)((priority << (8U - __NVIC_PRIO_BITS)) & (uint32_t)0xFFUL);
 8001ea4:	bfad      	iteet	ge
 8001ea6:	f100 4060 	addge.w	r0, r0, #3758096384	; 0xe0000000
    SCB->SHP[(((uint32_t)IRQn) & 0xFUL)-4UL] = (uint8_t)((priority << (8U - __NVIC_PRIO_BITS)) & (uint32_t)0xFFUL);
 8001eaa:	f000 000f 	andlt.w	r0, r0, #15
 8001eae:	4b06      	ldrlt	r3, [pc, #24]	; (8001ec8 <HAL_NVIC_SetPriority+0x64>)
    NVIC->IP[((uint32_t)IRQn)]               = (uint8_t)((priority << (8U - __NVIC_PRIO_BITS)) & (uint32_t)0xFFUL);
 8001eb0:	f500 4061 	addge.w	r0, r0, #57600	; 0xe100
    SCB->SHP[(((uint32_t)IRQn) & 0xFUL)-4UL] = (uint8_t)((priority << (8U - __NVIC_PRIO_BITS)) & (uint32_t)0xFFUL);
 8001eb4:	bfb5      	itete	lt
 8001eb6:	b2d2      	uxtblt	r2, r2
    NVIC->IP[((uint32_t)IRQn)]               = (uint8_t)((priority << (8U - __NVIC_PRIO_BITS)) & (uint32_t)0xFFUL);
 8001eb8:	b2d2      	uxtbge	r2, r2
    SCB->SHP[(((uint32_t)IRQn) & 0xFUL)-4UL] = (uint8_t)((priority << (8U - __NVIC_PRIO_BITS)) & (uint32_t)0xFFUL);
 8001eba:	541a      	strblt	r2, [r3, r0]
    NVIC->IP[((uint32_t)IRQn)]               = (uint8_t)((priority << (8U - __NVIC_PRIO_BITS)) & (uint32_t)0xFFUL);
 8001ebc:	f880 2300 	strbge.w	r2, [r0, #768]	; 0x300
 8001ec0:	bd30      	pop	{r4, r5, pc}
 8001ec2:	bf00      	nop
 8001ec4:	e000ed00 	.word	0xe000ed00
 8001ec8:	e000ed14 	.word	0xe000ed14

08001ecc <HAL_NVIC_EnableIRQ>:
  if ((int32_t)(IRQn) >= 0)
 8001ecc:	2800      	cmp	r0, #0
 8001ece:	db08      	blt.n	8001ee2 <HAL_NVIC_EnableIRQ+0x16>
    NVIC->ISER[(((uint32_t)IRQn) >> 5UL)] = (uint32_t)(1UL << (((uint32_t)IRQn) & 0x1FUL));
 8001ed0:	0942      	lsrs	r2, r0, #5
 8001ed2:	2301      	movs	r3, #1
 8001ed4:	f000 001f 	and.w	r0, r0, #31
 8001ed8:	fa03 f000 	lsl.w	r0, r3, r0
 8001edc:	4b01      	ldr	r3, [pc, #4]	; (8001ee4 <HAL_NVIC_EnableIRQ+0x18>)
 8001ede:	f843 0022 	str.w	r0, [r3, r2, lsl #2]
 8001ee2:	4770      	bx	lr
 8001ee4:	e000e100 	.word	0xe000e100

08001ee8 <HAL_EXTI_RegisterCallback>:
  */
HAL_StatusTypeDef HAL_EXTI_RegisterCallback(EXTI_HandleTypeDef *hexti, EXTI_CallbackIDTypeDef CallbackID, void (*pPendingCbfn)(void))
{
  HAL_StatusTypeDef status = HAL_OK;

  switch (CallbackID)
 8001ee8:	b911      	cbnz	r1, 8001ef0 <HAL_EXTI_RegisterCallback+0x8>
  {
    case  HAL_EXTI_COMMON_CB_ID:
      hexti->PendingCallback = pPendingCbfn;
 8001eea:	6042      	str	r2, [r0, #4]
  HAL_StatusTypeDef status = HAL_OK;
 8001eec:	4608      	mov	r0, r1
      break;
 8001eee:	4770      	bx	lr

    default:
      status = HAL_ERROR;
 8001ef0:	2001      	movs	r0, #1
      break;
  }

  return status;
}
 8001ef2:	4770      	bx	lr

08001ef4 <HAL_EXTI_GetHandle>:
{
  /* Check the parameters */
  assert_param(IS_EXTI_LINE(ExtiLine));

  /* Check null pointer */
  if (hexti == NULL)
 8001ef4:	b110      	cbz	r0, 8001efc <HAL_EXTI_GetHandle+0x8>
    return HAL_ERROR;
  }
  else
  {
    /* Store line number as handle private field */
    hexti->Line = ExtiLine;
 8001ef6:	6001      	str	r1, [r0, #0]

    return HAL_OK;
 8001ef8:	2000      	movs	r0, #0
 8001efa:	4770      	bx	lr
    return HAL_ERROR;
 8001efc:	2001      	movs	r0, #1
  }
}
 8001efe:	4770      	bx	lr

08001f00 <HAL_EXTI_IRQHandler>:
  uint32_t regval;
  uint32_t maskline;
  uint32_t offset;

  /* Compute line register offset and line mask */
  offset = ((hexti->Line & EXTI_REG_MASK) >> EXTI_REG_SHIFT);
 8001f00:	6803      	ldr	r3, [r0, #0]
  maskline = (1uL << (hexti->Line & EXTI_PIN_MASK));
 8001f02:	2201      	movs	r2, #1
 8001f04:	f003 011f 	and.w	r1, r3, #31
  offset = ((hexti->Line & EXTI_REG_MASK) >> EXTI_REG_SHIFT);
 8001f08:	f3c3 4300 	ubfx	r3, r3, #16, #1
  maskline = (1uL << (hexti->Line & EXTI_PIN_MASK));
 8001f0c:	408a      	lsls	r2, r1

  /* Get pending bit  */
  regaddr = (&EXTI->PR1 + (EXTI_CONFIG_OFFSET * offset));
 8001f0e:	015b      	lsls	r3, r3, #5
 8001f10:	4906      	ldr	r1, [pc, #24]	; (8001f2c <HAL_EXTI_IRQHandler+0x2c>)
{
 8001f12:	b410      	push	{r4}
  regval = (*regaddr & maskline);
 8001f14:	585c      	ldr	r4, [r3, r1]

  if (regval != 0x00u)
 8001f16:	4222      	tst	r2, r4
 8001f18:	d005      	beq.n	8001f26 <HAL_EXTI_IRQHandler+0x26>
  {
    /* Clear pending bit */
    *regaddr = maskline;
 8001f1a:	505a      	str	r2, [r3, r1]

    /* Call callback */
    if (hexti->PendingCallback != NULL)
 8001f1c:	6843      	ldr	r3, [r0, #4]
 8001f1e:	b113      	cbz	r3, 8001f26 <HAL_EXTI_IRQHandler+0x26>
    {
      hexti->PendingCallback();
    }
  }
}
 8001f20:	f85d 4b04 	ldr.w	r4, [sp], #4
      hexti->PendingCallback();
 8001f24:	4718      	bx	r3
}
 8001f26:	f85d 4b04 	ldr.w	r4, [sp], #4
 8001f2a:	4770      	bx	lr
 8001f2c:	40010414 	.word	0x40010414

08001f30 <HAL_GPIO_Init>:
  * @param  GPIO_Init pointer to a GPIO_InitTypeDef structure that contains
  *         the configuration information for the specified GPIO peripheral.
  * @retval None
  */
void HAL_GPIO_Init(GPIO_TypeDef  *GPIOx, GPIO_InitTypeDef *GPIO_Init)
{
 8001f30:	e92d 4ff0 	stmdb	sp!, {r4, r5, r6, r7, r8, r9, sl, fp, lr}
 8001f34:	b085      	sub	sp, #20
  assert_param(IS_GPIO_PIN(GPIO_Init->Pin));
  assert_param(IS_GPIO_MODE(GPIO_Init->Mode));
  assert_param(IS_GPIO_PULL(GPIO_Init->Pull));

  /* Configure the port pins */
  while (((GPIO_Init->Pin) >> position) != 0x00u)
 8001f36:	680b      	ldr	r3, [r1, #0]
      /*--------------------- EXTI Mode Configuration ------------------------*/
      /* Configure the External Interrupt or event for the current IO */
      if((GPIO_Init->Mode & EXTI_MODE) == EXTI_MODE)
      {
        /* Enable SYSCFG Clock */
        __HAL_RCC_SYSCFG_CLK_ENABLE();
 8001f38:	f8df 81a8 	ldr.w	r8, [pc, #424]	; 80020e4 <HAL_GPIO_Init+0x1b4>
        temp &= ~(0x0FuL << (4u * (position & 0x03u)));
        temp |= (GPIO_GET_INDEX(GPIOx) << (4u * (position & 0x03u)));
        SYSCFG->EXTICR[position >> 2u] = temp;

        /* Clear EXTI line configuration */
        temp = EXTI->IMR1;
 8001f3c:	4c67      	ldr	r4, [pc, #412]	; (80020dc <HAL_GPIO_Init+0x1ac>)
  while (((GPIO_Init->Pin) >> position) != 0x00u)
 8001f3e:	9301      	str	r3, [sp, #4]
  uint32_t position = 0x00u;
 8001f40:	2300      	movs	r3, #0
  while (((GPIO_Init->Pin) >> position) != 0x00u)
 8001f42:	9a01      	ldr	r2, [sp, #4]
 8001f44:	40da      	lsrs	r2, r3
 8001f46:	d102      	bne.n	8001f4e <HAL_GPIO_Init+0x1e>
      }
    }

    position++;
  }
}
 8001f48:	b005      	add	sp, #20
 8001f4a:	e8bd 8ff0 	ldmia.w	sp!, {r4, r5, r6, r7, r8, r9, sl, fp, pc}
    iocurrent = (GPIO_Init->Pin) & (1uL << position);
 8001f4e:	2601      	movs	r6, #1
    if (iocurrent != 0x00u)
 8001f50:	9a01      	ldr	r2, [sp, #4]
    iocurrent = (GPIO_Init->Pin) & (1uL << position);
 8001f52:	409e      	lsls	r6, r3
    if (iocurrent != 0x00u)
 8001f54:	ea12 0e06 	ands.w	lr, r2, r6
 8001f58:	f000 80b1 	beq.w	80020be <HAL_GPIO_Init+0x18e>
      if((GPIO_Init->Mode == GPIO_MODE_AF_PP) || (GPIO_Init->Mode == GPIO_MODE_AF_OD))
 8001f5c:	684a      	ldr	r2, [r1, #4]
 8001f5e:	f022 0710 	bic.w	r7, r2, #16
 8001f62:	2f02      	cmp	r7, #2
 8001f64:	d116      	bne.n	8001f94 <HAL_GPIO_Init+0x64>
        temp = GPIOx->AFR[position >> 3u];
 8001f66:	ea4f 09d3 	mov.w	r9, r3, lsr #3
 8001f6a:	eb00 0989 	add.w	r9, r0, r9, lsl #2
        temp &= ~(0xFu << ((position & 0x07u) * 4u));
 8001f6e:	f003 0a07 	and.w	sl, r3, #7
        temp = GPIOx->AFR[position >> 3u];
 8001f72:	f8d9 5020 	ldr.w	r5, [r9, #32]
        temp &= ~(0xFu << ((position & 0x07u) * 4u));
 8001f76:	ea4f 0a8a 	mov.w	sl, sl, lsl #2
 8001f7a:	f04f 0c0f 	mov.w	ip, #15
 8001f7e:	fa0c fc0a 	lsl.w	ip, ip, sl
 8001f82:	ea25 0c0c 	bic.w	ip, r5, ip
        temp |= ((GPIO_Init->Alternate) << ((position & 0x07u) * 4u));
 8001f86:	690d      	ldr	r5, [r1, #16]
 8001f88:	fa05 f50a 	lsl.w	r5, r5, sl
 8001f8c:	ea45 050c 	orr.w	r5, r5, ip
        GPIOx->AFR[position >> 3u] = temp;
 8001f90:	f8c9 5020 	str.w	r5, [r9, #32]
 8001f94:	ea4f 0c43 	mov.w	ip, r3, lsl #1
      temp &= ~(GPIO_MODER_MODE0 << (position * 2u));
 8001f98:	2503      	movs	r5, #3
      temp = GPIOx->MODER;
 8001f9a:	f8d0 b000 	ldr.w	fp, [r0]
      temp &= ~(GPIO_MODER_MODE0 << (position * 2u));
 8001f9e:	fa05 f50c 	lsl.w	r5, r5, ip
 8001fa2:	43ed      	mvns	r5, r5
      temp |= ((GPIO_Init->Mode & GPIO_MODE) << (position * 2u));
 8001fa4:	f002 0a03 	and.w	sl, r2, #3
      temp &= ~(GPIO_MODER_MODE0 << (position * 2u));
 8001fa8:	ea0b 0b05 	and.w	fp, fp, r5
      temp |= ((GPIO_Init->Mode & GPIO_MODE) << (position * 2u));
 8001fac:	fa0a f90c 	lsl.w	r9, sl, ip
      if((GPIO_Init->Mode == GPIO_MODE_OUTPUT_PP) || (GPIO_Init->Mode == GPIO_MODE_AF_PP) ||
 8001fb0:	3f01      	subs	r7, #1
      temp |= ((GPIO_Init->Mode & GPIO_MODE) << (position * 2u));
 8001fb2:	ea49 090b 	orr.w	r9, r9, fp
      if((GPIO_Init->Mode == GPIO_MODE_OUTPUT_PP) || (GPIO_Init->Mode == GPIO_MODE_AF_PP) ||
 8001fb6:	2f01      	cmp	r7, #1
      GPIOx->MODER = temp;
 8001fb8:	f8c0 9000 	str.w	r9, [r0]
      if((GPIO_Init->Mode == GPIO_MODE_OUTPUT_PP) || (GPIO_Init->Mode == GPIO_MODE_AF_PP) ||
 8001fbc:	d811      	bhi.n	8001fe2 <HAL_GPIO_Init+0xb2>
        temp = GPIOx->OSPEEDR;
 8001fbe:	6887      	ldr	r7, [r0, #8]
        temp &= ~(GPIO_OSPEEDR_OSPEED0 << (position * 2u));
 8001fc0:	ea05 0907 	and.w	r9, r5, r7
        temp |= (GPIO_Init->Speed << (position * 2u));
 8001fc4:	68cf      	ldr	r7, [r1, #12]
 8001fc6:	fa07 f70c 	lsl.w	r7, r7, ip
 8001fca:	ea47 0709 	orr.w	r7, r7, r9
        GPIOx->OSPEEDR = temp;
 8001fce:	6087      	str	r7, [r0, #8]
        temp = GPIOx->OTYPER;
 8001fd0:	6847      	ldr	r7, [r0, #4]
        temp &= ~(GPIO_OTYPER_OT0 << position) ;
 8001fd2:	ea27 0906 	bic.w	r9, r7, r6
        temp |= (((GPIO_Init->Mode & GPIO_OUTPUT_TYPE) >> 4u) << position);
 8001fd6:	f3c2 1700 	ubfx	r7, r2, #4, #1
 8001fda:	409f      	lsls	r7, r3
 8001fdc:	ea47 0709 	orr.w	r7, r7, r9
        GPIOx->OTYPER = temp;
 8001fe0:	6047      	str	r7, [r0, #4]
      if((GPIO_Init->Mode & GPIO_MODE_ANALOG) == GPIO_MODE_ANALOG)
 8001fe2:	f1ba 0f03 	cmp.w	sl, #3
 8001fe6:	d107      	bne.n	8001ff8 <HAL_GPIO_Init+0xc8>
        temp = GPIOx->ASCR;
 8001fe8:	6ac7      	ldr	r7, [r0, #44]	; 0x2c
        temp &= ~(GPIO_ASCR_ASC0 << position) ;
 8001fea:	ea27 0606 	bic.w	r6, r7, r6
        temp |= (((GPIO_Init->Mode & ANALOG_MODE) >> 3) << position);
 8001fee:	f3c2 07c0 	ubfx	r7, r2, #3, #1
 8001ff2:	409f      	lsls	r7, r3
 8001ff4:	433e      	orrs	r6, r7
        GPIOx->ASCR = temp;
 8001ff6:	62c6      	str	r6, [r0, #44]	; 0x2c
      temp = GPIOx->PUPDR;
 8001ff8:	68c6      	ldr	r6, [r0, #12]
      temp &= ~(GPIO_PUPDR_PUPD0 << (position * 2u));
 8001ffa:	4035      	ands	r5, r6
      temp |= ((GPIO_Init->Pull) << (position * 2u));
 8001ffc:	688e      	ldr	r6, [r1, #8]
 8001ffe:	fa06 f60c 	lsl.w	r6, r6, ip
 8002002:	4335      	orrs	r5, r6
      GPIOx->PUPDR = temp;
 8002004:	60c5      	str	r5, [r0, #12]
      if((GPIO_Init->Mode & EXTI_MODE) == EXTI_MODE)
 8002006:	00d5      	lsls	r5, r2, #3
 8002008:	d559      	bpl.n	80020be <HAL_GPIO_Init+0x18e>
        __HAL_RCC_SYSCFG_CLK_ENABLE();
 800200a:	f8d8 5060 	ldr.w	r5, [r8, #96]	; 0x60
 800200e:	f045 0501 	orr.w	r5, r5, #1
 8002012:	f8c8 5060 	str.w	r5, [r8, #96]	; 0x60
 8002016:	f8d8 5060 	ldr.w	r5, [r8, #96]	; 0x60
 800201a:	f023 0603 	bic.w	r6, r3, #3
 800201e:	f106 4680 	add.w	r6, r6, #1073741824	; 0x40000000
 8002022:	f005 0501 	and.w	r5, r5, #1
 8002026:	f506 3680 	add.w	r6, r6, #65536	; 0x10000
 800202a:	9503      	str	r5, [sp, #12]
        temp &= ~(0x0FuL << (4u * (position & 0x03u)));
 800202c:	f003 0c03 	and.w	ip, r3, #3
        __HAL_RCC_SYSCFG_CLK_ENABLE();
 8002030:	9d03      	ldr	r5, [sp, #12]
        temp = SYSCFG->EXTICR[position >> 2u];
 8002032:	68b5      	ldr	r5, [r6, #8]
        temp &= ~(0x0FuL << (4u * (position & 0x03u)));
 8002034:	ea4f 0c8c 	mov.w	ip, ip, lsl #2
 8002038:	270f      	movs	r7, #15
 800203a:	fa07 f70c 	lsl.w	r7, r7, ip
        temp |= (GPIO_GET_INDEX(GPIOx) << (4u * (position & 0x03u)));
 800203e:	f1b0 4f90 	cmp.w	r0, #1207959552	; 0x48000000
        temp &= ~(0x0FuL << (4u * (position & 0x03u)));
 8002042:	ea25 0707 	bic.w	r7, r5, r7
        temp |= (GPIO_GET_INDEX(GPIOx) << (4u * (position & 0x03u)));
 8002046:	d03c      	beq.n	80020c2 <HAL_GPIO_Init+0x192>
 8002048:	4d25      	ldr	r5, [pc, #148]	; (80020e0 <HAL_GPIO_Init+0x1b0>)
 800204a:	42a8      	cmp	r0, r5
 800204c:	d03b      	beq.n	80020c6 <HAL_GPIO_Init+0x196>
 800204e:	f505 6580 	add.w	r5, r5, #1024	; 0x400
 8002052:	42a8      	cmp	r0, r5
 8002054:	d039      	beq.n	80020ca <HAL_GPIO_Init+0x19a>
 8002056:	f505 6580 	add.w	r5, r5, #1024	; 0x400
 800205a:	42a8      	cmp	r0, r5
 800205c:	d037      	beq.n	80020ce <HAL_GPIO_Init+0x19e>
 800205e:	f505 6580 	add.w	r5, r5, #1024	; 0x400
 8002062:	42a8      	cmp	r0, r5
 8002064:	d035      	beq.n	80020d2 <HAL_GPIO_Init+0x1a2>
 8002066:	f505 6580 	add.w	r5, r5, #1024	; 0x400
 800206a:	42a8      	cmp	r0, r5
 800206c:	d033      	beq.n	80020d6 <HAL_GPIO_Init+0x1a6>
 800206e:	f505 6580 	add.w	r5, r5, #1024	; 0x400
 8002072:	42a8      	cmp	r0, r5
 8002074:	bf14      	ite	ne
 8002076:	2507      	movne	r5, #7
 8002078:	2506      	moveq	r5, #6
 800207a:	fa05 f50c 	lsl.w	r5, r5, ip
 800207e:	433d      	orrs	r5, r7
        SYSCFG->EXTICR[position >> 2u] = temp;
 8002080:	60b5      	str	r5, [r6, #8]
        temp = EXTI->IMR1;
 8002082:	6825      	ldr	r5, [r4, #0]
        temp &= ~(iocurrent);
 8002084:	ea6f 060e 	mvn.w	r6, lr
        if((GPIO_Init->Mode & GPIO_MODE_IT) == GPIO_MODE_IT)
 8002088:	03d7      	lsls	r7, r2, #15
        temp &= ~(iocurrent);
 800208a:	bf54      	ite	pl
 800208c:	4035      	andpl	r5, r6
          temp |= iocurrent;
 800208e:	ea4e 0505 	orrmi.w	r5, lr, r5
        EXTI->IMR1 = temp;
 8002092:	6025      	str	r5, [r4, #0]
        temp = EXTI->EMR1;
 8002094:	6865      	ldr	r5, [r4, #4]
        if((GPIO_Init->Mode & GPIO_MODE_EVT) == GPIO_MODE_EVT)
 8002096:	0397      	lsls	r7, r2, #14
        temp &= ~(iocurrent);
 8002098:	bf54      	ite	pl
 800209a:	4035      	andpl	r5, r6
          temp |= iocurrent;
 800209c:	ea4e 0505 	orrmi.w	r5, lr, r5
        EXTI->EMR1 = temp;
 80020a0:	6065      	str	r5, [r4, #4]
        temp = EXTI->RTSR1;
 80020a2:	68a5      	ldr	r5, [r4, #8]
        if((GPIO_Init->Mode & RISING_EDGE) == RISING_EDGE)
 80020a4:	02d7      	lsls	r7, r2, #11
        temp &= ~(iocurrent);
 80020a6:	bf54      	ite	pl
 80020a8:	4035      	andpl	r5, r6
          temp |= iocurrent;
 80020aa:	ea4e 0505 	orrmi.w	r5, lr, r5
        EXTI->RTSR1 = temp;
 80020ae:	60a5      	str	r5, [r4, #8]
        temp = EXTI->FTSR1;
 80020b0:	68e5      	ldr	r5, [r4, #12]
        if((GPIO_Init->Mode & FALLING_EDGE) == FALLING_EDGE)
 80020b2:	0292      	lsls	r2, r2, #10
        temp &= ~(iocurrent);
 80020b4:	bf54      	ite	pl
 80020b6:	4035      	andpl	r5, r6
          temp |= iocurrent;
 80020b8:	ea4e 0505 	orrmi.w	r5, lr, r5
        EXTI->FTSR1 = temp;
 80020bc:	60e5      	str	r5, [r4, #12]
    position++;
 80020be:	3301      	adds	r3, #1
 80020c0:	e73f      	b.n	8001f42 <HAL_GPIO_Init+0x12>
        temp |= (GPIO_GET_INDEX(GPIOx) << (4u * (position & 0x03u)));
 80020c2:	2500      	movs	r5, #0
 80020c4:	e7d9      	b.n	800207a <HAL_GPIO_Init+0x14a>
 80020c6:	2501      	movs	r5, #1
 80020c8:	e7d7      	b.n	800207a <HAL_GPIO_Init+0x14a>
 80020ca:	2502      	movs	r5, #2
 80020cc:	e7d5      	b.n	800207a <HAL_GPIO_Init+0x14a>
 80020ce:	2503      	movs	r5, #3
 80020d0:	e7d3      	b.n	800207a <HAL_GPIO_Init+0x14a>
 80020d2:	2504      	movs	r5, #4
 80020d4:	e7d1      	b.n	800207a <HAL_GPIO_Init+0x14a>
 80020d6:	2505      	movs	r5, #5
 80020d8:	e7cf      	b.n	800207a <HAL_GPIO_Init+0x14a>
 80020da:	bf00      	nop
 80020dc:	40010400 	.word	0x40010400
 80020e0:	48000400 	.word	0x48000400
 80020e4:	40021000 	.word	0x40021000

080020e8 <HAL_GPIO_DeInit>:
  * @param  GPIO_Pin specifies the port bit to be written.
  *         This parameter can be any combination of GPIO_Pin_x where x can be (0..15).
  * @retval None
  */
void HAL_GPIO_DeInit(GPIO_TypeDef  *GPIOx, uint32_t GPIO_Pin)
{
 80020e8:	e92d 4ff0 	stmdb	sp!, {r4, r5, r6, r7, r8, r9, sl, fp, lr}
      tmp = SYSCFG->EXTICR[position >> 2u];
      tmp &= (0x0FuL << (4u * (position & 0x03u)));
      if (tmp == (GPIO_GET_INDEX(GPIOx) << (4u * (position & 0x03u))))
      {
        /* Clear EXTI line configuration */
        EXTI->IMR1 &= ~(iocurrent);
 80020ec:	4c40      	ldr	r4, [pc, #256]	; (80021f0 <HAL_GPIO_DeInit+0x108>)
      if (tmp == (GPIO_GET_INDEX(GPIOx) << (4u * (position & 0x03u))))
 80020ee:	f8df b108 	ldr.w	fp, [pc, #264]	; 80021f8 <HAL_GPIO_DeInit+0x110>
  uint32_t position = 0x00u;
 80020f2:	2300      	movs	r3, #0
    iocurrent = (GPIO_Pin) & (1uL << position);
 80020f4:	f04f 0a01 	mov.w	sl, #1
      tmp &= (0x0FuL << (4u * (position & 0x03u)));
 80020f8:	f04f 080f 	mov.w	r8, #15
  while ((GPIO_Pin >> position) != 0x00u)
 80020fc:	fa31 f203 	lsrs.w	r2, r1, r3
 8002100:	d101      	bne.n	8002106 <HAL_GPIO_DeInit+0x1e>
#endif /* STM32L471xx || STM32L475xx || STM32L476xx || STM32L485xx || STM32L486xx */
    }

    position++;
  }
}
 8002102:	e8bd 8ff0 	ldmia.w	sp!, {r4, r5, r6, r7, r8, r9, sl, fp, pc}
    iocurrent = (GPIO_Pin) & (1uL << position);
 8002106:	fa0a f503 	lsl.w	r5, sl, r3
    if (iocurrent != 0x00u)
 800210a:	ea11 0605 	ands.w	r6, r1, r5
 800210e:	d060      	beq.n	80021d2 <HAL_GPIO_DeInit+0xea>
 8002110:	f023 0703 	bic.w	r7, r3, #3
 8002114:	f107 4780 	add.w	r7, r7, #1073741824	; 0x40000000
 8002118:	f507 3780 	add.w	r7, r7, #65536	; 0x10000
      tmp &= (0x0FuL << (4u * (position & 0x03u)));
 800211c:	f003 0e03 	and.w	lr, r3, #3
      tmp = SYSCFG->EXTICR[position >> 2u];
 8002120:	68ba      	ldr	r2, [r7, #8]
      tmp &= (0x0FuL << (4u * (position & 0x03u)));
 8002122:	ea4f 0e8e 	mov.w	lr, lr, lsl #2
 8002126:	fa08 f90e 	lsl.w	r9, r8, lr
      if (tmp == (GPIO_GET_INDEX(GPIOx) << (4u * (position & 0x03u))))
 800212a:	f1b0 4f90 	cmp.w	r0, #1207959552	; 0x48000000
      tmp &= (0x0FuL << (4u * (position & 0x03u)));
 800212e:	ea02 0c09 	and.w	ip, r2, r9
      if (tmp == (GPIO_GET_INDEX(GPIOx) << (4u * (position & 0x03u))))
 8002132:	d050      	beq.n	80021d6 <HAL_GPIO_DeInit+0xee>
 8002134:	4a2f      	ldr	r2, [pc, #188]	; (80021f4 <HAL_GPIO_DeInit+0x10c>)
 8002136:	4290      	cmp	r0, r2
 8002138:	d04f      	beq.n	80021da <HAL_GPIO_DeInit+0xf2>
 800213a:	f502 6280 	add.w	r2, r2, #1024	; 0x400
 800213e:	4290      	cmp	r0, r2
 8002140:	d04d      	beq.n	80021de <HAL_GPIO_DeInit+0xf6>
 8002142:	f502 6280 	add.w	r2, r2, #1024	; 0x400
 8002146:	4290      	cmp	r0, r2
 8002148:	d04b      	beq.n	80021e2 <HAL_GPIO_DeInit+0xfa>
 800214a:	f502 6280 	add.w	r2, r2, #1024	; 0x400
 800214e:	4290      	cmp	r0, r2
 8002150:	d049      	beq.n	80021e6 <HAL_GPIO_DeInit+0xfe>
 8002152:	f502 6280 	add.w	r2, r2, #1024	; 0x400
 8002156:	4290      	cmp	r0, r2
 8002158:	d047      	beq.n	80021ea <HAL_GPIO_DeInit+0x102>
 800215a:	4558      	cmp	r0, fp
 800215c:	bf0c      	ite	eq
 800215e:	2206      	moveq	r2, #6
 8002160:	2207      	movne	r2, #7
 8002162:	fa02 f20e 	lsl.w	r2, r2, lr
 8002166:	4594      	cmp	ip, r2
 8002168:	d110      	bne.n	800218c <HAL_GPIO_DeInit+0xa4>
        EXTI->IMR1 &= ~(iocurrent);
 800216a:	6822      	ldr	r2, [r4, #0]
 800216c:	43f6      	mvns	r6, r6
 800216e:	4032      	ands	r2, r6
 8002170:	6022      	str	r2, [r4, #0]
        EXTI->EMR1 &= ~(iocurrent);
 8002172:	6862      	ldr	r2, [r4, #4]
 8002174:	4032      	ands	r2, r6
 8002176:	6062      	str	r2, [r4, #4]
        EXTI->RTSR1 &= ~(iocurrent);
 8002178:	68a2      	ldr	r2, [r4, #8]
 800217a:	4032      	ands	r2, r6
 800217c:	60a2      	str	r2, [r4, #8]
        EXTI->FTSR1 &= ~(iocurrent);
 800217e:	68e2      	ldr	r2, [r4, #12]
 8002180:	4016      	ands	r6, r2
 8002182:	60e6      	str	r6, [r4, #12]
        SYSCFG->EXTICR[position >> 2u] &= ~tmp;
 8002184:	68ba      	ldr	r2, [r7, #8]
 8002186:	ea22 0209 	bic.w	r2, r2, r9
 800218a:	60ba      	str	r2, [r7, #8]
      GPIOx->MODER |= (GPIO_MODER_MODE0 << (position * 2u));
 800218c:	6806      	ldr	r6, [r0, #0]
 800218e:	2703      	movs	r7, #3
 8002190:	005a      	lsls	r2, r3, #1
 8002192:	fa07 f202 	lsl.w	r2, r7, r2
      GPIOx->AFR[position >> 3u] &= ~(0xFu << ((position & 0x07u) * 4u)) ;
 8002196:	fa23 f707 	lsr.w	r7, r3, r7
      GPIOx->MODER |= (GPIO_MODER_MODE0 << (position * 2u));
 800219a:	4316      	orrs	r6, r2
 800219c:	eb00 0787 	add.w	r7, r0, r7, lsl #2
 80021a0:	6006      	str	r6, [r0, #0]
      GPIOx->AFR[position >> 3u] &= ~(0xFu << ((position & 0x07u) * 4u)) ;
 80021a2:	f003 0607 	and.w	r6, r3, #7
 80021a6:	f8d7 e020 	ldr.w	lr, [r7, #32]
 80021aa:	00b6      	lsls	r6, r6, #2
 80021ac:	fa08 f606 	lsl.w	r6, r8, r6
 80021b0:	ea2e 0606 	bic.w	r6, lr, r6
 80021b4:	623e      	str	r6, [r7, #32]
      GPIOx->OSPEEDR &= ~(GPIO_OSPEEDR_OSPEED0 << (position * 2u));
 80021b6:	6886      	ldr	r6, [r0, #8]
 80021b8:	43d2      	mvns	r2, r2
 80021ba:	4016      	ands	r6, r2
 80021bc:	6086      	str	r6, [r0, #8]
      GPIOx->OTYPER  &= ~(GPIO_OTYPER_OT0 << position) ;
 80021be:	6846      	ldr	r6, [r0, #4]
 80021c0:	43ed      	mvns	r5, r5
 80021c2:	402e      	ands	r6, r5
 80021c4:	6046      	str	r6, [r0, #4]
      GPIOx->PUPDR &= ~(GPIO_PUPDR_PUPD0 << (position * 2u));
 80021c6:	68c6      	ldr	r6, [r0, #12]
 80021c8:	4032      	ands	r2, r6
 80021ca:	60c2      	str	r2, [r0, #12]
      GPIOx->ASCR &= ~(GPIO_ASCR_ASC0<< position);
 80021cc:	6ac2      	ldr	r2, [r0, #44]	; 0x2c
 80021ce:	4015      	ands	r5, r2
 80021d0:	62c5      	str	r5, [r0, #44]	; 0x2c
    position++;
 80021d2:	3301      	adds	r3, #1
 80021d4:	e792      	b.n	80020fc <HAL_GPIO_DeInit+0x14>
      if (tmp == (GPIO_GET_INDEX(GPIOx) << (4u * (position & 0x03u))))
 80021d6:	2200      	movs	r2, #0
 80021d8:	e7c3      	b.n	8002162 <HAL_GPIO_DeInit+0x7a>
 80021da:	2201      	movs	r2, #1
 80021dc:	e7c1      	b.n	8002162 <HAL_GPIO_DeInit+0x7a>
 80021de:	2202      	movs	r2, #2
 80021e0:	e7bf      	b.n	8002162 <HAL_GPIO_DeInit+0x7a>
 80021e2:	2203      	movs	r2, #3
 80021e4:	e7bd      	b.n	8002162 <HAL_GPIO_DeInit+0x7a>
 80021e6:	2204      	movs	r2, #4
 80021e8:	e7bb      	b.n	8002162 <HAL_GPIO_DeInit+0x7a>
 80021ea:	2205      	movs	r2, #5
 80021ec:	e7b9      	b.n	8002162 <HAL_GPIO_DeInit+0x7a>
 80021ee:	bf00      	nop
 80021f0:	40010400 	.word	0x40010400
 80021f4:	48000400 	.word	0x48000400
 80021f8:	48001800 	.word	0x48001800

080021fc <HAL_GPIO_ReadPin>:
  GPIO_PinState bitstatus;

  /* Check the parameters */
  assert_param(IS_GPIO_PIN(GPIO_Pin));

  if ((GPIOx->IDR & GPIO_Pin) != 0x00u)
 80021fc:	6903      	ldr	r3, [r0, #16]
 80021fe:	4219      	tst	r1, r3
  else
  {
    bitstatus = GPIO_PIN_RESET;
  }
  return bitstatus;
}
 8002200:	bf14      	ite	ne
 8002202:	2001      	movne	r0, #1
 8002204:	2000      	moveq	r0, #0
 8002206:	4770      	bx	lr

08002208 <HAL_GPIO_WritePin>:
{
  /* Check the parameters */
  assert_param(IS_GPIO_PIN(GPIO_Pin));
  assert_param(IS_GPIO_PIN_ACTION(PinState));

  if(PinState != GPIO_PIN_RESET)
 8002208:	b10a      	cbz	r2, 800220e <HAL_GPIO_WritePin+0x6>
  {
    GPIOx->BSRR = (uint32_t)GPIO_Pin;
 800220a:	6181      	str	r1, [r0, #24]
 800220c:	4770      	bx	lr
  }
  else
  {
    GPIOx->BRR = (uint32_t)GPIO_Pin;
 800220e:	6281      	str	r1, [r0, #40]	; 0x28
 8002210:	4770      	bx	lr
	...

08002214 <HAL_PWREx_GetVoltageRange>:
    else
    {
      return PWR_REGULATOR_VOLTAGE_SCALE1_BOOST;
    }
#else
  return  (PWR->CR1 & PWR_CR1_VOS);
 8002214:	4b02      	ldr	r3, [pc, #8]	; (8002220 <HAL_PWREx_GetVoltageRange+0xc>)
 8002216:	6818      	ldr	r0, [r3, #0]
#endif
}
 8002218:	f400 60c0 	and.w	r0, r0, #1536	; 0x600
 800221c:	4770      	bx	lr
 800221e:	bf00      	nop
 8002220:	40007000 	.word	0x40007000

08002224 <HAL_PWREx_ControlVoltageScaling>:
  *        cleared before returning the status. If the flag is not cleared within
  *        50 microseconds, HAL_TIMEOUT status is reported.
  * @retval HAL Status
  */
HAL_StatusTypeDef HAL_PWREx_ControlVoltageScaling(uint32_t VoltageScaling)
{
 8002224:	4b17      	ldr	r3, [pc, #92]	; (8002284 <HAL_PWREx_ControlVoltageScaling+0x60>)
#else

  /* If Set Range 1 */
  if (VoltageScaling == PWR_REGULATOR_VOLTAGE_SCALE1)
  {
    if (READ_BIT(PWR->CR1, PWR_CR1_VOS) != PWR_REGULATOR_VOLTAGE_SCALE1)
 8002226:	681a      	ldr	r2, [r3, #0]
  if (VoltageScaling == PWR_REGULATOR_VOLTAGE_SCALE1)
 8002228:	f5b0 7f00 	cmp.w	r0, #512	; 0x200
    if (READ_BIT(PWR->CR1, PWR_CR1_VOS) != PWR_REGULATOR_VOLTAGE_SCALE1)
 800222c:	f402 62c0 	and.w	r2, r2, #1536	; 0x600
  if (VoltageScaling == PWR_REGULATOR_VOLTAGE_SCALE1)
 8002230:	d11c      	bne.n	800226c <HAL_PWREx_ControlVoltageScaling+0x48>
    if (READ_BIT(PWR->CR1, PWR_CR1_VOS) != PWR_REGULATOR_VOLTAGE_SCALE1)
 8002232:	f5b2 7f00 	cmp.w	r2, #512	; 0x200
 8002236:	d015      	beq.n	8002264 <HAL_PWREx_ControlVoltageScaling+0x40>
    {
      /* Set Range 1 */
      MODIFY_REG(PWR->CR1, PWR_CR1_VOS, PWR_REGULATOR_VOLTAGE_SCALE1);
 8002238:	681a      	ldr	r2, [r3, #0]
 800223a:	f422 62c0 	bic.w	r2, r2, #1536	; 0x600
 800223e:	f442 7200 	orr.w	r2, r2, #512	; 0x200
 8002242:	601a      	str	r2, [r3, #0]

      /* Wait until VOSF is cleared */
      wait_loop_index = ((PWR_FLAG_SETTING_DELAY_US * SystemCoreClock) / 1000000U) + 1U;
 8002244:	4a10      	ldr	r2, [pc, #64]	; (8002288 <HAL_PWREx_ControlVoltageScaling+0x64>)
 8002246:	6811      	ldr	r1, [r2, #0]
 8002248:	2232      	movs	r2, #50	; 0x32
 800224a:	434a      	muls	r2, r1
 800224c:	490f      	ldr	r1, [pc, #60]	; (800228c <HAL_PWREx_ControlVoltageScaling+0x68>)
 800224e:	fbb2 f2f1 	udiv	r2, r2, r1
 8002252:	4619      	mov	r1, r3
 8002254:	3201      	adds	r2, #1
      while ((HAL_IS_BIT_SET(PWR->SR2, PWR_SR2_VOSF)) && (wait_loop_index != 0U))
 8002256:	6958      	ldr	r0, [r3, #20]
 8002258:	0540      	lsls	r0, r0, #21
 800225a:	d500      	bpl.n	800225e <HAL_PWREx_ControlVoltageScaling+0x3a>
 800225c:	b922      	cbnz	r2, 8002268 <HAL_PWREx_ControlVoltageScaling+0x44>
      {
        wait_loop_index--;
      }
      if (HAL_IS_BIT_SET(PWR->SR2, PWR_SR2_VOSF))
 800225e:	694b      	ldr	r3, [r1, #20]
 8002260:	055b      	lsls	r3, r3, #21
 8002262:	d40d      	bmi.n	8002280 <HAL_PWREx_ControlVoltageScaling+0x5c>
      /* No need to wait for VOSF to be cleared for this transition */
    }
  }
#endif

  return HAL_OK;
 8002264:	2000      	movs	r0, #0
 8002266:	4770      	bx	lr
        wait_loop_index--;
 8002268:	3a01      	subs	r2, #1
 800226a:	e7f4      	b.n	8002256 <HAL_PWREx_ControlVoltageScaling+0x32>
    if (READ_BIT(PWR->CR1, PWR_CR1_VOS) != PWR_REGULATOR_VOLTAGE_SCALE2)
 800226c:	f5b2 6f80 	cmp.w	r2, #1024	; 0x400
      MODIFY_REG(PWR->CR1, PWR_CR1_VOS, PWR_REGULATOR_VOLTAGE_SCALE2);
 8002270:	bf1f      	itttt	ne
 8002272:	681a      	ldrne	r2, [r3, #0]
 8002274:	f422 62c0 	bicne.w	r2, r2, #1536	; 0x600
 8002278:	f442 6280 	orrne.w	r2, r2, #1024	; 0x400
 800227c:	601a      	strne	r2, [r3, #0]
 800227e:	e7f1      	b.n	8002264 <HAL_PWREx_ControlVoltageScaling+0x40>
        return HAL_TIMEOUT;
 8002280:	2003      	movs	r0, #3
}
 8002282:	4770      	bx	lr
 8002284:	40007000 	.word	0x40007000
 8002288:	2000001c 	.word	0x2000001c
 800228c:	000f4240 	.word	0x000f4240

08002290 <RCC_SetFlashLatencyFromMSIRange>:
            voltage range.
  * @param  msirange  MSI range value from RCC_MSIRANGE_0 to RCC_MSIRANGE_11
  * @retval HAL status
  */
static HAL_StatusTypeDef RCC_SetFlashLatencyFromMSIRange(uint32_t msirange)
{
 8002290:	b537      	push	{r0, r1, r2, r4, r5, lr}
  uint32_t vos;
  uint32_t latency = FLASH_LATENCY_0;  /* default value 0WS */

  if(__HAL_RCC_PWR_IS_CLK_ENABLED())
 8002292:	4d1e      	ldr	r5, [pc, #120]	; (800230c <RCC_SetFlashLatencyFromMSIRange+0x7c>)
 8002294:	6dab      	ldr	r3, [r5, #88]	; 0x58
 8002296:	00da      	lsls	r2, r3, #3
{
 8002298:	4604      	mov	r4, r0
  if(__HAL_RCC_PWR_IS_CLK_ENABLED())
 800229a:	d518      	bpl.n	80022ce <RCC_SetFlashLatencyFromMSIRange+0x3e>
  {
    vos = HAL_PWREx_GetVoltageRange();
 800229c:	f7ff ffba 	bl	8002214 <HAL_PWREx_GetVoltageRange>
    __HAL_RCC_PWR_CLK_ENABLE();
    vos = HAL_PWREx_GetVoltageRange();
    __HAL_RCC_PWR_CLK_DISABLE();
  }

  if(vos == PWR_REGULATOR_VOLTAGE_SCALE1)
 80022a0:	f5b0 7f00 	cmp.w	r0, #512	; 0x200
 80022a4:	d123      	bne.n	80022ee <RCC_SetFlashLatencyFromMSIRange+0x5e>
  {
    if(msirange > RCC_MSIRANGE_8)
 80022a6:	2c80      	cmp	r4, #128	; 0x80
 80022a8:	d929      	bls.n	80022fe <RCC_SetFlashLatencyFromMSIRange+0x6e>
    {
      /* MSI > 16Mhz */
      if(msirange > RCC_MSIRANGE_10)
 80022aa:	2ca0      	cmp	r4, #160	; 0xa0
        latency = FLASH_LATENCY_2; /* 2WS */
      }
      else
      {
        /* MSI 24Mhz or 32Mhz */
        latency = FLASH_LATENCY_1; /* 1WS */
 80022ac:	bf8c      	ite	hi
 80022ae:	2002      	movhi	r0, #2
 80022b0:	2001      	movls	r0, #1
      /* else MSI < 8Mhz default FLASH_LATENCY_0 0WS */
    }
#endif
  }

  __HAL_FLASH_SET_LATENCY(latency);
 80022b2:	4a17      	ldr	r2, [pc, #92]	; (8002310 <RCC_SetFlashLatencyFromMSIRange+0x80>)
 80022b4:	6813      	ldr	r3, [r2, #0]
 80022b6:	f023 0307 	bic.w	r3, r3, #7
 80022ba:	4303      	orrs	r3, r0
 80022bc:	6013      	str	r3, [r2, #0]

  /* Check that the new number of wait states is taken into account to access the Flash
     memory by reading the FLASH_ACR register */
  if(__HAL_FLASH_GET_LATENCY() != latency)
 80022be:	6813      	ldr	r3, [r2, #0]
 80022c0:	f003 0307 	and.w	r3, r3, #7
  {
    return HAL_ERROR;
  }

  return HAL_OK;
}
 80022c4:	1a18      	subs	r0, r3, r0
 80022c6:	bf18      	it	ne
 80022c8:	2001      	movne	r0, #1
 80022ca:	b003      	add	sp, #12
 80022cc:	bd30      	pop	{r4, r5, pc}
    __HAL_RCC_PWR_CLK_ENABLE();
 80022ce:	6dab      	ldr	r3, [r5, #88]	; 0x58
 80022d0:	f043 5380 	orr.w	r3, r3, #268435456	; 0x10000000
 80022d4:	65ab      	str	r3, [r5, #88]	; 0x58
 80022d6:	6dab      	ldr	r3, [r5, #88]	; 0x58
 80022d8:	f003 5380 	and.w	r3, r3, #268435456	; 0x10000000
 80022dc:	9301      	str	r3, [sp, #4]
 80022de:	9b01      	ldr	r3, [sp, #4]
    vos = HAL_PWREx_GetVoltageRange();
 80022e0:	f7ff ff98 	bl	8002214 <HAL_PWREx_GetVoltageRange>
    __HAL_RCC_PWR_CLK_DISABLE();
 80022e4:	6dab      	ldr	r3, [r5, #88]	; 0x58
 80022e6:	f023 5380 	bic.w	r3, r3, #268435456	; 0x10000000
 80022ea:	65ab      	str	r3, [r5, #88]	; 0x58
 80022ec:	e7d8      	b.n	80022a0 <RCC_SetFlashLatencyFromMSIRange+0x10>
    if(msirange > RCC_MSIRANGE_8)
 80022ee:	2c80      	cmp	r4, #128	; 0x80
 80022f0:	d807      	bhi.n	8002302 <RCC_SetFlashLatencyFromMSIRange+0x72>
      if(msirange == RCC_MSIRANGE_8)
 80022f2:	d008      	beq.n	8002306 <RCC_SetFlashLatencyFromMSIRange+0x76>
      else if(msirange == RCC_MSIRANGE_7)
 80022f4:	f1a4 0370 	sub.w	r3, r4, #112	; 0x70
 80022f8:	4258      	negs	r0, r3
 80022fa:	4158      	adcs	r0, r3
 80022fc:	e7d9      	b.n	80022b2 <RCC_SetFlashLatencyFromMSIRange+0x22>
  uint32_t latency = FLASH_LATENCY_0;  /* default value 0WS */
 80022fe:	2000      	movs	r0, #0
 8002300:	e7d7      	b.n	80022b2 <RCC_SetFlashLatencyFromMSIRange+0x22>
      latency = FLASH_LATENCY_3; /* 3WS */
 8002302:	2003      	movs	r0, #3
 8002304:	e7d5      	b.n	80022b2 <RCC_SetFlashLatencyFromMSIRange+0x22>
        latency = FLASH_LATENCY_2; /* 2WS */
 8002306:	2002      	movs	r0, #2
 8002308:	e7d3      	b.n	80022b2 <RCC_SetFlashLatencyFromMSIRange+0x22>
 800230a:	bf00      	nop
 800230c:	40021000 	.word	0x40021000
 8002310:	40022000 	.word	0x40022000

08002314 <HAL_RCC_GetSysClockFreq>:
  sysclk_source = __HAL_RCC_GET_SYSCLK_SOURCE();
 8002314:	4b22      	ldr	r3, [pc, #136]	; (80023a0 <HAL_RCC_GetSysClockFreq+0x8c>)
 8002316:	689a      	ldr	r2, [r3, #8]
  pll_oscsource = __HAL_RCC_GET_PLL_OSCSOURCE();
 8002318:	68d9      	ldr	r1, [r3, #12]
  if((sysclk_source == RCC_CFGR_SWS_MSI) ||
 800231a:	f012 020c 	ands.w	r2, r2, #12
 800231e:	d005      	beq.n	800232c <HAL_RCC_GetSysClockFreq+0x18>
 8002320:	2a0c      	cmp	r2, #12
 8002322:	d115      	bne.n	8002350 <HAL_RCC_GetSysClockFreq+0x3c>
  pll_oscsource = __HAL_RCC_GET_PLL_OSCSOURCE();
 8002324:	f001 0103 	and.w	r1, r1, #3
     ((sysclk_source == RCC_CFGR_SWS_PLL) && (pll_oscsource == RCC_PLLSOURCE_MSI)))
 8002328:	2901      	cmp	r1, #1
 800232a:	d118      	bne.n	800235e <HAL_RCC_GetSysClockFreq+0x4a>
    if(READ_BIT(RCC->CR, RCC_CR_MSIRGSEL) == 0U)
 800232c:	6819      	ldr	r1, [r3, #0]
    msirange = MSIRangeTable[msirange];
 800232e:	481d      	ldr	r0, [pc, #116]	; (80023a4 <HAL_RCC_GetSysClockFreq+0x90>)
    if(READ_BIT(RCC->CR, RCC_CR_MSIRGSEL) == 0U)
 8002330:	0709      	lsls	r1, r1, #28
      msirange = READ_BIT(RCC->CSR, RCC_CSR_MSISRANGE) >> RCC_CSR_MSISRANGE_Pos;
 8002332:	bf55      	itete	pl
 8002334:	f8d3 1094 	ldrpl.w	r1, [r3, #148]	; 0x94
      msirange = READ_BIT(RCC->CR, RCC_CR_MSIRANGE) >> RCC_CR_MSIRANGE_Pos;
 8002338:	6819      	ldrmi	r1, [r3, #0]
      msirange = READ_BIT(RCC->CSR, RCC_CSR_MSISRANGE) >> RCC_CSR_MSISRANGE_Pos;
 800233a:	f3c1 2103 	ubfxpl	r1, r1, #8, #4
      msirange = READ_BIT(RCC->CR, RCC_CR_MSIRANGE) >> RCC_CR_MSIRANGE_Pos;
 800233e:	f3c1 1103 	ubfxmi	r1, r1, #4, #4
    msirange = MSIRangeTable[msirange];
 8002342:	f850 0021 	ldr.w	r0, [r0, r1, lsl #2]
    if(sysclk_source == RCC_CFGR_SWS_MSI)
 8002346:	b34a      	cbz	r2, 800239c <HAL_RCC_GetSysClockFreq+0x88>
  if(sysclk_source == RCC_CFGR_SWS_PLL)
 8002348:	2a0c      	cmp	r2, #12
 800234a:	d009      	beq.n	8002360 <HAL_RCC_GetSysClockFreq+0x4c>
 800234c:	2000      	movs	r0, #0
  return sysclockfreq;
 800234e:	4770      	bx	lr
  else if(sysclk_source == RCC_CFGR_SWS_HSI)
 8002350:	2a04      	cmp	r2, #4
 8002352:	d022      	beq.n	800239a <HAL_RCC_GetSysClockFreq+0x86>
 8002354:	2a08      	cmp	r2, #8
 8002356:	4814      	ldr	r0, [pc, #80]	; (80023a8 <HAL_RCC_GetSysClockFreq+0x94>)
 8002358:	bf18      	it	ne
 800235a:	2000      	movne	r0, #0
 800235c:	4770      	bx	lr
  uint32_t msirange = 0U, sysclockfreq = 0U;
 800235e:	2000      	movs	r0, #0
    pllsource = READ_BIT(RCC->PLLCFGR, RCC_PLLCFGR_PLLSRC);
 8002360:	68da      	ldr	r2, [r3, #12]
 8002362:	f002 0203 	and.w	r2, r2, #3
    switch (pllsource)
 8002366:	2a02      	cmp	r2, #2
 8002368:	d015      	beq.n	8002396 <HAL_RCC_GetSysClockFreq+0x82>
      pllvco = HSE_VALUE;
 800236a:	490f      	ldr	r1, [pc, #60]	; (80023a8 <HAL_RCC_GetSysClockFreq+0x94>)
 800236c:	2a03      	cmp	r2, #3
 800236e:	bf08      	it	eq
 8002370:	4608      	moveq	r0, r1
    pllm = (READ_BIT(RCC->PLLCFGR, RCC_PLLCFGR_PLLM) >> RCC_PLLCFGR_PLLM_Pos) + 1U ;
 8002372:	68da      	ldr	r2, [r3, #12]
    pllvco = (pllvco * (READ_BIT(RCC->PLLCFGR, RCC_PLLCFGR_PLLN) >> RCC_PLLCFGR_PLLN_Pos)) / pllm;
 8002374:	68d9      	ldr	r1, [r3, #12]
    pllr = ((READ_BIT(RCC->PLLCFGR, RCC_PLLCFGR_PLLR) >> RCC_PLLCFGR_PLLR_Pos) + 1U ) * 2U;
 8002376:	68db      	ldr	r3, [r3, #12]
 8002378:	f3c3 6341 	ubfx	r3, r3, #25, #2
    pllvco = (pllvco * (READ_BIT(RCC->PLLCFGR, RCC_PLLCFGR_PLLN) >> RCC_PLLCFGR_PLLN_Pos)) / pllm;
 800237c:	f3c1 2106 	ubfx	r1, r1, #8, #7
    pllm = (READ_BIT(RCC->PLLCFGR, RCC_PLLCFGR_PLLM) >> RCC_PLLCFGR_PLLM_Pos) + 1U ;
 8002380:	f3c2 1202 	ubfx	r2, r2, #4, #3
    pllr = ((READ_BIT(RCC->PLLCFGR, RCC_PLLCFGR_PLLR) >> RCC_PLLCFGR_PLLR_Pos) + 1U ) * 2U;
 8002384:	3301      	adds	r3, #1
    pllvco = (pllvco * (READ_BIT(RCC->PLLCFGR, RCC_PLLCFGR_PLLN) >> RCC_PLLCFGR_PLLN_Pos)) / pllm;
 8002386:	4348      	muls	r0, r1
    pllm = (READ_BIT(RCC->PLLCFGR, RCC_PLLCFGR_PLLM) >> RCC_PLLCFGR_PLLM_Pos) + 1U ;
 8002388:	3201      	adds	r2, #1
    pllr = ((READ_BIT(RCC->PLLCFGR, RCC_PLLCFGR_PLLR) >> RCC_PLLCFGR_PLLR_Pos) + 1U ) * 2U;
 800238a:	005b      	lsls	r3, r3, #1
    pllvco = (pllvco * (READ_BIT(RCC->PLLCFGR, RCC_PLLCFGR_PLLN) >> RCC_PLLCFGR_PLLN_Pos)) / pllm;
 800238c:	fbb0 f0f2 	udiv	r0, r0, r2
    sysclockfreq = pllvco / pllr;
 8002390:	fbb0 f0f3 	udiv	r0, r0, r3
 8002394:	4770      	bx	lr
      pllvco = HSI_VALUE;
 8002396:	4805      	ldr	r0, [pc, #20]	; (80023ac <HAL_RCC_GetSysClockFreq+0x98>)
 8002398:	e7eb      	b.n	8002372 <HAL_RCC_GetSysClockFreq+0x5e>
    sysclockfreq = HSI_VALUE;
 800239a:	4804      	ldr	r0, [pc, #16]	; (80023ac <HAL_RCC_GetSysClockFreq+0x98>)
}
 800239c:	4770      	bx	lr
 800239e:	bf00      	nop
 80023a0:	40021000 	.word	0x40021000
 80023a4:	0800bbe4 	.word	0x0800bbe4
 80023a8:	007a1200 	.word	0x007a1200
 80023ac:	00f42400 	.word	0x00f42400

080023b0 <HAL_RCC_OscConfig>:
{
 80023b0:	e92d 43f7 	stmdb	sp!, {r0, r1, r2, r4, r5, r6, r7, r8, r9, lr}
  if(RCC_OscInitStruct == NULL)
 80023b4:	4605      	mov	r5, r0
 80023b6:	b918      	cbnz	r0, 80023c0 <HAL_RCC_OscConfig+0x10>
    return HAL_ERROR;
 80023b8:	2001      	movs	r0, #1
}
 80023ba:	b003      	add	sp, #12
 80023bc:	e8bd 83f0 	ldmia.w	sp!, {r4, r5, r6, r7, r8, r9, pc}
  sysclk_source = __HAL_RCC_GET_SYSCLK_SOURCE();
 80023c0:	4ca7      	ldr	r4, [pc, #668]	; (8002660 <HAL_RCC_OscConfig+0x2b0>)
  if(((RCC_OscInitStruct->OscillatorType) & RCC_OSCILLATORTYPE_MSI) == RCC_OSCILLATORTYPE_MSI)
 80023c2:	6803      	ldr	r3, [r0, #0]
  sysclk_source = __HAL_RCC_GET_SYSCLK_SOURCE();
 80023c4:	68a6      	ldr	r6, [r4, #8]
  pll_config = __HAL_RCC_GET_PLL_OSCSOURCE();
 80023c6:	68e7      	ldr	r7, [r4, #12]
  if(((RCC_OscInitStruct->OscillatorType) & RCC_OSCILLATORTYPE_MSI) == RCC_OSCILLATORTYPE_MSI)
 80023c8:	06d8      	lsls	r0, r3, #27
  sysclk_source = __HAL_RCC_GET_SYSCLK_SOURCE();
 80023ca:	f006 060c 	and.w	r6, r6, #12
  pll_config = __HAL_RCC_GET_PLL_OSCSOURCE();
 80023ce:	f007 0703 	and.w	r7, r7, #3
  if(((RCC_OscInitStruct->OscillatorType) & RCC_OSCILLATORTYPE_MSI) == RCC_OSCILLATORTYPE_MSI)
 80023d2:	d53d      	bpl.n	8002450 <HAL_RCC_OscConfig+0xa0>
    if((sysclk_source == RCC_CFGR_SWS_MSI) ||
 80023d4:	b11e      	cbz	r6, 80023de <HAL_RCC_OscConfig+0x2e>
 80023d6:	2e0c      	cmp	r6, #12
 80023d8:	d166      	bne.n	80024a8 <HAL_RCC_OscConfig+0xf8>
       ((sysclk_source == RCC_CFGR_SWS_PLL) && (pll_config == RCC_PLLSOURCE_MSI)))
 80023da:	2f01      	cmp	r7, #1
 80023dc:	d164      	bne.n	80024a8 <HAL_RCC_OscConfig+0xf8>
      if((READ_BIT(RCC->CR, RCC_CR_MSIRDY) != 0U) && (RCC_OscInitStruct->MSIState == RCC_MSI_OFF))
 80023de:	6823      	ldr	r3, [r4, #0]
 80023e0:	0799      	lsls	r1, r3, #30
 80023e2:	d502      	bpl.n	80023ea <HAL_RCC_OscConfig+0x3a>
 80023e4:	69ab      	ldr	r3, [r5, #24]
 80023e6:	2b00      	cmp	r3, #0
 80023e8:	d0e6      	beq.n	80023b8 <HAL_RCC_OscConfig+0x8>
        if(RCC_OscInitStruct->MSIClockRange > __HAL_RCC_GET_MSI_RANGE())
 80023ea:	6823      	ldr	r3, [r4, #0]
 80023ec:	6a28      	ldr	r0, [r5, #32]
 80023ee:	071a      	lsls	r2, r3, #28
 80023f0:	bf56      	itet	pl
 80023f2:	f8d4 3094 	ldrpl.w	r3, [r4, #148]	; 0x94
 80023f6:	6823      	ldrmi	r3, [r4, #0]
 80023f8:	091b      	lsrpl	r3, r3, #4
 80023fa:	f003 03f0 	and.w	r3, r3, #240	; 0xf0
 80023fe:	4283      	cmp	r3, r0
 8002400:	d23b      	bcs.n	800247a <HAL_RCC_OscConfig+0xca>
          if(RCC_SetFlashLatencyFromMSIRange(RCC_OscInitStruct->MSIClockRange) != HAL_OK)
 8002402:	f7ff ff45 	bl	8002290 <RCC_SetFlashLatencyFromMSIRange>
 8002406:	2800      	cmp	r0, #0
 8002408:	d1d6      	bne.n	80023b8 <HAL_RCC_OscConfig+0x8>
          __HAL_RCC_MSI_RANGE_CONFIG(RCC_OscInitStruct->MSIClockRange);
 800240a:	6823      	ldr	r3, [r4, #0]
 800240c:	f043 0308 	orr.w	r3, r3, #8
 8002410:	6023      	str	r3, [r4, #0]
 8002412:	6823      	ldr	r3, [r4, #0]
 8002414:	6a2a      	ldr	r2, [r5, #32]
 8002416:	f023 03f0 	bic.w	r3, r3, #240	; 0xf0
 800241a:	4313      	orrs	r3, r2
 800241c:	6023      	str	r3, [r4, #0]
          __HAL_RCC_MSI_CALIBRATIONVALUE_ADJUST(RCC_OscInitStruct->MSICalibrationValue);
 800241e:	6863      	ldr	r3, [r4, #4]
 8002420:	69ea      	ldr	r2, [r5, #28]
 8002422:	f423 437f 	bic.w	r3, r3, #65280	; 0xff00
 8002426:	ea43 2302 	orr.w	r3, r3, r2, lsl #8
 800242a:	6063      	str	r3, [r4, #4]
        SystemCoreClock = HAL_RCC_GetSysClockFreq() >> (AHBPrescTable[READ_BIT(RCC->CFGR, RCC_CFGR_HPRE) >> RCC_CFGR_HPRE_Pos] & 0x1FU);
 800242c:	f7ff ff72 	bl	8002314 <HAL_RCC_GetSysClockFreq>
 8002430:	68a3      	ldr	r3, [r4, #8]
 8002432:	4a8c      	ldr	r2, [pc, #560]	; (8002664 <HAL_RCC_OscConfig+0x2b4>)
 8002434:	f3c3 1303 	ubfx	r3, r3, #4, #4
 8002438:	5cd3      	ldrb	r3, [r2, r3]
 800243a:	f003 031f 	and.w	r3, r3, #31
 800243e:	40d8      	lsrs	r0, r3
 8002440:	4b89      	ldr	r3, [pc, #548]	; (8002668 <HAL_RCC_OscConfig+0x2b8>)
 8002442:	6018      	str	r0, [r3, #0]
        status = HAL_InitTick(uwTickPrio);
 8002444:	4b89      	ldr	r3, [pc, #548]	; (800266c <HAL_RCC_OscConfig+0x2bc>)
 8002446:	6818      	ldr	r0, [r3, #0]
 8002448:	f005 f846 	bl	80074d8 <HAL_InitTick>
        if(status != HAL_OK)
 800244c:	2800      	cmp	r0, #0
 800244e:	d1b4      	bne.n	80023ba <HAL_RCC_OscConfig+0xa>
  if(((RCC_OscInitStruct->OscillatorType) & RCC_OSCILLATORTYPE_HSE) == RCC_OSCILLATORTYPE_HSE)
 8002450:	682b      	ldr	r3, [r5, #0]
 8002452:	07d9      	lsls	r1, r3, #31
 8002454:	d45f      	bmi.n	8002516 <HAL_RCC_OscConfig+0x166>
  if(((RCC_OscInitStruct->OscillatorType) & RCC_OSCILLATORTYPE_HSI) == RCC_OSCILLATORTYPE_HSI)
 8002456:	682b      	ldr	r3, [r5, #0]
 8002458:	079a      	lsls	r2, r3, #30
 800245a:	f100 809e 	bmi.w	800259a <HAL_RCC_OscConfig+0x1ea>
  if(((RCC_OscInitStruct->OscillatorType) & RCC_OSCILLATORTYPE_LSI) == RCC_OSCILLATORTYPE_LSI)
 800245e:	682b      	ldr	r3, [r5, #0]
 8002460:	0719      	lsls	r1, r3, #28
 8002462:	f100 80d2 	bmi.w	800260a <HAL_RCC_OscConfig+0x25a>
  if(((RCC_OscInitStruct->OscillatorType) & RCC_OSCILLATORTYPE_LSE) == RCC_OSCILLATORTYPE_LSE)
 8002466:	682b      	ldr	r3, [r5, #0]
 8002468:	075a      	lsls	r2, r3, #29
 800246a:	f100 8101 	bmi.w	8002670 <HAL_RCC_OscConfig+0x2c0>
  if(RCC_OscInitStruct->PLL.PLLState != RCC_PLL_NONE)
 800246e:	6aab      	ldr	r3, [r5, #40]	; 0x28
 8002470:	2b00      	cmp	r3, #0
 8002472:	f040 816a 	bne.w	800274a <HAL_RCC_OscConfig+0x39a>
  return HAL_OK;
 8002476:	2000      	movs	r0, #0
 8002478:	e79f      	b.n	80023ba <HAL_RCC_OscConfig+0xa>
          __HAL_RCC_MSI_RANGE_CONFIG(RCC_OscInitStruct->MSIClockRange);
 800247a:	6823      	ldr	r3, [r4, #0]
 800247c:	f043 0308 	orr.w	r3, r3, #8
 8002480:	6023      	str	r3, [r4, #0]
 8002482:	6823      	ldr	r3, [r4, #0]
 8002484:	f023 03f0 	bic.w	r3, r3, #240	; 0xf0
 8002488:	4303      	orrs	r3, r0
 800248a:	6023      	str	r3, [r4, #0]
          __HAL_RCC_MSI_CALIBRATIONVALUE_ADJUST(RCC_OscInitStruct->MSICalibrationValue);
 800248c:	6863      	ldr	r3, [r4, #4]
 800248e:	69ea      	ldr	r2, [r5, #28]
 8002490:	f423 437f 	bic.w	r3, r3, #65280	; 0xff00
 8002494:	ea43 2302 	orr.w	r3, r3, r2, lsl #8
 8002498:	6063      	str	r3, [r4, #4]
          if(sysclk_source == RCC_CFGR_SWS_MSI)
 800249a:	2e00      	cmp	r6, #0
 800249c:	d1c6      	bne.n	800242c <HAL_RCC_OscConfig+0x7c>
            if(RCC_SetFlashLatencyFromMSIRange(RCC_OscInitStruct->MSIClockRange) != HAL_OK)
 800249e:	f7ff fef7 	bl	8002290 <RCC_SetFlashLatencyFromMSIRange>
 80024a2:	2800      	cmp	r0, #0
 80024a4:	d0c2      	beq.n	800242c <HAL_RCC_OscConfig+0x7c>
 80024a6:	e787      	b.n	80023b8 <HAL_RCC_OscConfig+0x8>
      if(RCC_OscInitStruct->MSIState != RCC_MSI_OFF)
 80024a8:	69ab      	ldr	r3, [r5, #24]
 80024aa:	b31b      	cbz	r3, 80024f4 <HAL_RCC_OscConfig+0x144>
        __HAL_RCC_MSI_ENABLE();
 80024ac:	6823      	ldr	r3, [r4, #0]
 80024ae:	f043 0301 	orr.w	r3, r3, #1
 80024b2:	6023      	str	r3, [r4, #0]
        tickstart = HAL_GetTick();
 80024b4:	f7ff fcaa 	bl	8001e0c <HAL_GetTick>
 80024b8:	4680      	mov	r8, r0
        while(READ_BIT(RCC->CR, RCC_CR_MSIRDY) == 0U)
 80024ba:	6823      	ldr	r3, [r4, #0]
 80024bc:	079b      	lsls	r3, r3, #30
 80024be:	d511      	bpl.n	80024e4 <HAL_RCC_OscConfig+0x134>
        __HAL_RCC_MSI_RANGE_CONFIG(RCC_OscInitStruct->MSIClockRange);
 80024c0:	6823      	ldr	r3, [r4, #0]
 80024c2:	f043 0308 	orr.w	r3, r3, #8
 80024c6:	6023      	str	r3, [r4, #0]
 80024c8:	6823      	ldr	r3, [r4, #0]
 80024ca:	6a2a      	ldr	r2, [r5, #32]
 80024cc:	f023 03f0 	bic.w	r3, r3, #240	; 0xf0
 80024d0:	4313      	orrs	r3, r2
 80024d2:	6023      	str	r3, [r4, #0]
        __HAL_RCC_MSI_CALIBRATIONVALUE_ADJUST(RCC_OscInitStruct->MSICalibrationValue);
 80024d4:	6863      	ldr	r3, [r4, #4]
 80024d6:	69ea      	ldr	r2, [r5, #28]
 80024d8:	f423 437f 	bic.w	r3, r3, #65280	; 0xff00
 80024dc:	ea43 2302 	orr.w	r3, r3, r2, lsl #8
 80024e0:	6063      	str	r3, [r4, #4]
 80024e2:	e7b5      	b.n	8002450 <HAL_RCC_OscConfig+0xa0>
          if((HAL_GetTick() - tickstart) > MSI_TIMEOUT_VALUE)
 80024e4:	f7ff fc92 	bl	8001e0c <HAL_GetTick>
 80024e8:	eba0 0008 	sub.w	r0, r0, r8
 80024ec:	2802      	cmp	r0, #2
 80024ee:	d9e4      	bls.n	80024ba <HAL_RCC_OscConfig+0x10a>
            return HAL_TIMEOUT;
 80024f0:	2003      	movs	r0, #3
 80024f2:	e762      	b.n	80023ba <HAL_RCC_OscConfig+0xa>
        __HAL_RCC_MSI_DISABLE();
 80024f4:	6823      	ldr	r3, [r4, #0]
 80024f6:	f023 0301 	bic.w	r3, r3, #1
 80024fa:	6023      	str	r3, [r4, #0]
        tickstart = HAL_GetTick();
 80024fc:	f7ff fc86 	bl	8001e0c <HAL_GetTick>
 8002500:	4680      	mov	r8, r0
        while(READ_BIT(RCC->CR, RCC_CR_MSIRDY) != 0U)
 8002502:	6823      	ldr	r3, [r4, #0]
 8002504:	0798      	lsls	r0, r3, #30
 8002506:	d5a3      	bpl.n	8002450 <HAL_RCC_OscConfig+0xa0>
          if((HAL_GetTick() - tickstart) > MSI_TIMEOUT_VALUE)
 8002508:	f7ff fc80 	bl	8001e0c <HAL_GetTick>
 800250c:	eba0 0008 	sub.w	r0, r0, r8
 8002510:	2802      	cmp	r0, #2
 8002512:	d9f6      	bls.n	8002502 <HAL_RCC_OscConfig+0x152>
 8002514:	e7ec      	b.n	80024f0 <HAL_RCC_OscConfig+0x140>
    if((sysclk_source == RCC_CFGR_SWS_HSE) ||
 8002516:	2e08      	cmp	r6, #8
 8002518:	d003      	beq.n	8002522 <HAL_RCC_OscConfig+0x172>
 800251a:	2e0c      	cmp	r6, #12
 800251c:	d108      	bne.n	8002530 <HAL_RCC_OscConfig+0x180>
       ((sysclk_source == RCC_CFGR_SWS_PLL) && (pll_config == RCC_PLLSOURCE_HSE)))
 800251e:	2f03      	cmp	r7, #3
 8002520:	d106      	bne.n	8002530 <HAL_RCC_OscConfig+0x180>
      if((READ_BIT(RCC->CR, RCC_CR_HSERDY) != 0U) && (RCC_OscInitStruct->HSEState == RCC_HSE_OFF))
 8002522:	6823      	ldr	r3, [r4, #0]
 8002524:	039b      	lsls	r3, r3, #14
 8002526:	d596      	bpl.n	8002456 <HAL_RCC_OscConfig+0xa6>
 8002528:	686b      	ldr	r3, [r5, #4]
 800252a:	2b00      	cmp	r3, #0
 800252c:	d193      	bne.n	8002456 <HAL_RCC_OscConfig+0xa6>
 800252e:	e743      	b.n	80023b8 <HAL_RCC_OscConfig+0x8>
      __HAL_RCC_HSE_CONFIG(RCC_OscInitStruct->HSEState);
 8002530:	686b      	ldr	r3, [r5, #4]
 8002532:	f5b3 3f80 	cmp.w	r3, #65536	; 0x10000
 8002536:	d110      	bne.n	800255a <HAL_RCC_OscConfig+0x1aa>
 8002538:	6823      	ldr	r3, [r4, #0]
 800253a:	f443 3380 	orr.w	r3, r3, #65536	; 0x10000
 800253e:	6023      	str	r3, [r4, #0]
        tickstart = HAL_GetTick();
 8002540:	f7ff fc64 	bl	8001e0c <HAL_GetTick>
 8002544:	4680      	mov	r8, r0
        while(READ_BIT(RCC->CR, RCC_CR_HSERDY) == 0U)
 8002546:	6823      	ldr	r3, [r4, #0]
 8002548:	0398      	lsls	r0, r3, #14
 800254a:	d484      	bmi.n	8002456 <HAL_RCC_OscConfig+0xa6>
          if((HAL_GetTick() - tickstart) > HSE_TIMEOUT_VALUE)
 800254c:	f7ff fc5e 	bl	8001e0c <HAL_GetTick>
 8002550:	eba0 0008 	sub.w	r0, r0, r8
 8002554:	2864      	cmp	r0, #100	; 0x64
 8002556:	d9f6      	bls.n	8002546 <HAL_RCC_OscConfig+0x196>
 8002558:	e7ca      	b.n	80024f0 <HAL_RCC_OscConfig+0x140>
      __HAL_RCC_HSE_CONFIG(RCC_OscInitStruct->HSEState);
 800255a:	f5b3 2fa0 	cmp.w	r3, #327680	; 0x50000
 800255e:	d104      	bne.n	800256a <HAL_RCC_OscConfig+0x1ba>
 8002560:	6823      	ldr	r3, [r4, #0]
 8002562:	f443 2380 	orr.w	r3, r3, #262144	; 0x40000
 8002566:	6023      	str	r3, [r4, #0]
 8002568:	e7e6      	b.n	8002538 <HAL_RCC_OscConfig+0x188>
 800256a:	6822      	ldr	r2, [r4, #0]
 800256c:	f422 3280 	bic.w	r2, r2, #65536	; 0x10000
 8002570:	6022      	str	r2, [r4, #0]
 8002572:	6822      	ldr	r2, [r4, #0]
 8002574:	f422 2280 	bic.w	r2, r2, #262144	; 0x40000
 8002578:	6022      	str	r2, [r4, #0]
      if(RCC_OscInitStruct->HSEState != RCC_HSE_OFF)
 800257a:	2b00      	cmp	r3, #0
 800257c:	d1e0      	bne.n	8002540 <HAL_RCC_OscConfig+0x190>
        tickstart = HAL_GetTick();
 800257e:	f7ff fc45 	bl	8001e0c <HAL_GetTick>
 8002582:	4680      	mov	r8, r0
        while(READ_BIT(RCC->CR, RCC_CR_HSERDY) != 0U)
 8002584:	6823      	ldr	r3, [r4, #0]
 8002586:	0399      	lsls	r1, r3, #14
 8002588:	f57f af65 	bpl.w	8002456 <HAL_RCC_OscConfig+0xa6>
          if((HAL_GetTick() - tickstart) > HSE_TIMEOUT_VALUE)
 800258c:	f7ff fc3e 	bl	8001e0c <HAL_GetTick>
 8002590:	eba0 0008 	sub.w	r0, r0, r8
 8002594:	2864      	cmp	r0, #100	; 0x64
 8002596:	d9f5      	bls.n	8002584 <HAL_RCC_OscConfig+0x1d4>
 8002598:	e7aa      	b.n	80024f0 <HAL_RCC_OscConfig+0x140>
    if((sysclk_source == RCC_CFGR_SWS_HSI) ||
 800259a:	2e04      	cmp	r6, #4
 800259c:	d003      	beq.n	80025a6 <HAL_RCC_OscConfig+0x1f6>
 800259e:	2e0c      	cmp	r6, #12
 80025a0:	d110      	bne.n	80025c4 <HAL_RCC_OscConfig+0x214>
       ((sysclk_source == RCC_CFGR_SWS_PLL) && (pll_config == RCC_PLLSOURCE_HSI)))
 80025a2:	2f02      	cmp	r7, #2
 80025a4:	d10e      	bne.n	80025c4 <HAL_RCC_OscConfig+0x214>
      if((READ_BIT(RCC->CR, RCC_CR_HSIRDY) != 0U) && (RCC_OscInitStruct->HSIState == RCC_HSI_OFF))
 80025a6:	6823      	ldr	r3, [r4, #0]
 80025a8:	055a      	lsls	r2, r3, #21
 80025aa:	d503      	bpl.n	80025b4 <HAL_RCC_OscConfig+0x204>
 80025ac:	68eb      	ldr	r3, [r5, #12]
 80025ae:	2b00      	cmp	r3, #0
 80025b0:	f43f af02 	beq.w	80023b8 <HAL_RCC_OscConfig+0x8>
        __HAL_RCC_HSI_CALIBRATIONVALUE_ADJUST(RCC_OscInitStruct->HSICalibrationValue);
 80025b4:	6863      	ldr	r3, [r4, #4]
 80025b6:	692a      	ldr	r2, [r5, #16]
 80025b8:	f023 53f8 	bic.w	r3, r3, #520093696	; 0x1f000000
 80025bc:	ea43 6302 	orr.w	r3, r3, r2, lsl #24
 80025c0:	6063      	str	r3, [r4, #4]
 80025c2:	e74c      	b.n	800245e <HAL_RCC_OscConfig+0xae>
      if(RCC_OscInitStruct->HSIState != RCC_HSI_OFF)
 80025c4:	68eb      	ldr	r3, [r5, #12]
 80025c6:	b17b      	cbz	r3, 80025e8 <HAL_RCC_OscConfig+0x238>
        __HAL_RCC_HSI_ENABLE();
 80025c8:	6823      	ldr	r3, [r4, #0]
 80025ca:	f443 7380 	orr.w	r3, r3, #256	; 0x100
 80025ce:	6023      	str	r3, [r4, #0]
        tickstart = HAL_GetTick();
 80025d0:	f7ff fc1c 	bl	8001e0c <HAL_GetTick>
 80025d4:	4607      	mov	r7, r0
        while(READ_BIT(RCC->CR, RCC_CR_HSIRDY) == 0U)
 80025d6:	6823      	ldr	r3, [r4, #0]
 80025d8:	055b      	lsls	r3, r3, #21
 80025da:	d4eb      	bmi.n	80025b4 <HAL_RCC_OscConfig+0x204>
          if((HAL_GetTick() - tickstart) > HSI_TIMEOUT_VALUE)
 80025dc:	f7ff fc16 	bl	8001e0c <HAL_GetTick>
 80025e0:	1bc0      	subs	r0, r0, r7
 80025e2:	2802      	cmp	r0, #2
 80025e4:	d9f7      	bls.n	80025d6 <HAL_RCC_OscConfig+0x226>
 80025e6:	e783      	b.n	80024f0 <HAL_RCC_OscConfig+0x140>
        __HAL_RCC_HSI_DISABLE();
 80025e8:	6823      	ldr	r3, [r4, #0]
 80025ea:	f423 7380 	bic.w	r3, r3, #256	; 0x100
 80025ee:	6023      	str	r3, [r4, #0]
        tickstart = HAL_GetTick();
 80025f0:	f7ff fc0c 	bl	8001e0c <HAL_GetTick>
 80025f4:	4607      	mov	r7, r0
        while(READ_BIT(RCC->CR, RCC_CR_HSIRDY) != 0U)
 80025f6:	6823      	ldr	r3, [r4, #0]
 80025f8:	0558      	lsls	r0, r3, #21
 80025fa:	f57f af30 	bpl.w	800245e <HAL_RCC_OscConfig+0xae>
          if((HAL_GetTick() - tickstart) > HSI_TIMEOUT_VALUE)
 80025fe:	f7ff fc05 	bl	8001e0c <HAL_GetTick>
 8002602:	1bc0      	subs	r0, r0, r7
 8002604:	2802      	cmp	r0, #2
 8002606:	d9f6      	bls.n	80025f6 <HAL_RCC_OscConfig+0x246>
 8002608:	e772      	b.n	80024f0 <HAL_RCC_OscConfig+0x140>
    if(RCC_OscInitStruct->LSIState != RCC_LSI_OFF)
 800260a:	696b      	ldr	r3, [r5, #20]
 800260c:	b19b      	cbz	r3, 8002636 <HAL_RCC_OscConfig+0x286>
      __HAL_RCC_LSI_ENABLE();
 800260e:	f8d4 3094 	ldr.w	r3, [r4, #148]	; 0x94
 8002612:	f043 0301 	orr.w	r3, r3, #1
 8002616:	f8c4 3094 	str.w	r3, [r4, #148]	; 0x94
      tickstart = HAL_GetTick();
 800261a:	f7ff fbf7 	bl	8001e0c <HAL_GetTick>
 800261e:	4607      	mov	r7, r0
      while(READ_BIT(RCC->CSR, RCC_CSR_LSIRDY) == 0U)
 8002620:	f8d4 3094 	ldr.w	r3, [r4, #148]	; 0x94
 8002624:	079b      	lsls	r3, r3, #30
 8002626:	f53f af1e 	bmi.w	8002466 <HAL_RCC_OscConfig+0xb6>
        if((HAL_GetTick() - tickstart) > LSI_TIMEOUT_VALUE)
 800262a:	f7ff fbef 	bl	8001e0c <HAL_GetTick>
 800262e:	1bc0      	subs	r0, r0, r7
 8002630:	2802      	cmp	r0, #2
 8002632:	d9f5      	bls.n	8002620 <HAL_RCC_OscConfig+0x270>
 8002634:	e75c      	b.n	80024f0 <HAL_RCC_OscConfig+0x140>
      __HAL_RCC_LSI_DISABLE();
 8002636:	f8d4 3094 	ldr.w	r3, [r4, #148]	; 0x94
 800263a:	f023 0301 	bic.w	r3, r3, #1
 800263e:	f8c4 3094 	str.w	r3, [r4, #148]	; 0x94
      tickstart = HAL_GetTick();
 8002642:	f7ff fbe3 	bl	8001e0c <HAL_GetTick>
 8002646:	4607      	mov	r7, r0
      while(READ_BIT(RCC->CSR, RCC_CSR_LSIRDY) != 0U)
 8002648:	f8d4 3094 	ldr.w	r3, [r4, #148]	; 0x94
 800264c:	0798      	lsls	r0, r3, #30
 800264e:	f57f af0a 	bpl.w	8002466 <HAL_RCC_OscConfig+0xb6>
        if((HAL_GetTick() - tickstart) > LSI_TIMEOUT_VALUE)
 8002652:	f7ff fbdb 	bl	8001e0c <HAL_GetTick>
 8002656:	1bc0      	subs	r0, r0, r7
 8002658:	2802      	cmp	r0, #2
 800265a:	d9f5      	bls.n	8002648 <HAL_RCC_OscConfig+0x298>
 800265c:	e748      	b.n	80024f0 <HAL_RCC_OscConfig+0x140>
 800265e:	bf00      	nop
 8002660:	40021000 	.word	0x40021000
 8002664:	0800bbca 	.word	0x0800bbca
 8002668:	2000001c 	.word	0x2000001c
 800266c:	20000004 	.word	0x20000004
    if(HAL_IS_BIT_CLR(RCC->APB1ENR1, RCC_APB1ENR1_PWREN))
 8002670:	6da3      	ldr	r3, [r4, #88]	; 0x58
 8002672:	00d9      	lsls	r1, r3, #3
 8002674:	d429      	bmi.n	80026ca <HAL_RCC_OscConfig+0x31a>
      __HAL_RCC_PWR_CLK_ENABLE();
 8002676:	6da3      	ldr	r3, [r4, #88]	; 0x58
 8002678:	f043 5380 	orr.w	r3, r3, #268435456	; 0x10000000
 800267c:	65a3      	str	r3, [r4, #88]	; 0x58
 800267e:	6da3      	ldr	r3, [r4, #88]	; 0x58
 8002680:	f003 5380 	and.w	r3, r3, #268435456	; 0x10000000
 8002684:	9301      	str	r3, [sp, #4]
 8002686:	9b01      	ldr	r3, [sp, #4]
      pwrclkchanged = SET;
 8002688:	f04f 0801 	mov.w	r8, #1
    if(HAL_IS_BIT_CLR(PWR->CR1, PWR_CR1_DBP))
 800268c:	4f89      	ldr	r7, [pc, #548]	; (80028b4 <HAL_RCC_OscConfig+0x504>)
 800268e:	683b      	ldr	r3, [r7, #0]
 8002690:	05da      	lsls	r2, r3, #23
 8002692:	d51d      	bpl.n	80026d0 <HAL_RCC_OscConfig+0x320>
    __HAL_RCC_LSE_CONFIG(RCC_OscInitStruct->LSEState);
 8002694:	68ab      	ldr	r3, [r5, #8]
 8002696:	2b01      	cmp	r3, #1
 8002698:	d12b      	bne.n	80026f2 <HAL_RCC_OscConfig+0x342>
 800269a:	f8d4 3090 	ldr.w	r3, [r4, #144]	; 0x90
 800269e:	f043 0301 	orr.w	r3, r3, #1
 80026a2:	f8c4 3090 	str.w	r3, [r4, #144]	; 0x90
      tickstart = HAL_GetTick();
 80026a6:	f7ff fbb1 	bl	8001e0c <HAL_GetTick>
        if((HAL_GetTick() - tickstart) > RCC_LSE_TIMEOUT_VALUE)
 80026aa:	f241 3988 	movw	r9, #5000	; 0x1388
      tickstart = HAL_GetTick();
 80026ae:	4607      	mov	r7, r0
      while(READ_BIT(RCC->BDCR, RCC_BDCR_LSERDY) == 0U)
 80026b0:	f8d4 3090 	ldr.w	r3, [r4, #144]	; 0x90
 80026b4:	0798      	lsls	r0, r3, #30
 80026b6:	d542      	bpl.n	800273e <HAL_RCC_OscConfig+0x38e>
    if(pwrclkchanged == SET)
 80026b8:	f1b8 0f00 	cmp.w	r8, #0
 80026bc:	f43f aed7 	beq.w	800246e <HAL_RCC_OscConfig+0xbe>
      __HAL_RCC_PWR_CLK_DISABLE();
 80026c0:	6da3      	ldr	r3, [r4, #88]	; 0x58
 80026c2:	f023 5380 	bic.w	r3, r3, #268435456	; 0x10000000
 80026c6:	65a3      	str	r3, [r4, #88]	; 0x58
 80026c8:	e6d1      	b.n	800246e <HAL_RCC_OscConfig+0xbe>
    FlagStatus       pwrclkchanged = RESET;
 80026ca:	f04f 0800 	mov.w	r8, #0
 80026ce:	e7dd      	b.n	800268c <HAL_RCC_OscConfig+0x2dc>
      SET_BIT(PWR->CR1, PWR_CR1_DBP);
 80026d0:	683b      	ldr	r3, [r7, #0]
 80026d2:	f443 7380 	orr.w	r3, r3, #256	; 0x100
 80026d6:	603b      	str	r3, [r7, #0]
      tickstart = HAL_GetTick();
 80026d8:	f7ff fb98 	bl	8001e0c <HAL_GetTick>
 80026dc:	4681      	mov	r9, r0
      while(HAL_IS_BIT_CLR(PWR->CR1, PWR_CR1_DBP))
 80026de:	683b      	ldr	r3, [r7, #0]
 80026e0:	05db      	lsls	r3, r3, #23
 80026e2:	d4d7      	bmi.n	8002694 <HAL_RCC_OscConfig+0x2e4>
        if((HAL_GetTick() - tickstart) > RCC_DBP_TIMEOUT_VALUE)
 80026e4:	f7ff fb92 	bl	8001e0c <HAL_GetTick>
 80026e8:	eba0 0009 	sub.w	r0, r0, r9
 80026ec:	2802      	cmp	r0, #2
 80026ee:	d9f6      	bls.n	80026de <HAL_RCC_OscConfig+0x32e>
 80026f0:	e6fe      	b.n	80024f0 <HAL_RCC_OscConfig+0x140>
    __HAL_RCC_LSE_CONFIG(RCC_OscInitStruct->LSEState);
 80026f2:	2b05      	cmp	r3, #5
 80026f4:	d106      	bne.n	8002704 <HAL_RCC_OscConfig+0x354>
 80026f6:	f8d4 3090 	ldr.w	r3, [r4, #144]	; 0x90
 80026fa:	f043 0304 	orr.w	r3, r3, #4
 80026fe:	f8c4 3090 	str.w	r3, [r4, #144]	; 0x90
 8002702:	e7ca      	b.n	800269a <HAL_RCC_OscConfig+0x2ea>
 8002704:	f8d4 2090 	ldr.w	r2, [r4, #144]	; 0x90
 8002708:	f022 0201 	bic.w	r2, r2, #1
 800270c:	f8c4 2090 	str.w	r2, [r4, #144]	; 0x90
 8002710:	f8d4 2090 	ldr.w	r2, [r4, #144]	; 0x90
 8002714:	f022 0204 	bic.w	r2, r2, #4
 8002718:	f8c4 2090 	str.w	r2, [r4, #144]	; 0x90
    if(RCC_OscInitStruct->LSEState != RCC_LSE_OFF)
 800271c:	2b00      	cmp	r3, #0
 800271e:	d1c2      	bne.n	80026a6 <HAL_RCC_OscConfig+0x2f6>
      tickstart = HAL_GetTick();
 8002720:	f7ff fb74 	bl	8001e0c <HAL_GetTick>
        if((HAL_GetTick() - tickstart) > RCC_LSE_TIMEOUT_VALUE)
 8002724:	f241 3988 	movw	r9, #5000	; 0x1388
      tickstart = HAL_GetTick();
 8002728:	4607      	mov	r7, r0
      while(READ_BIT(RCC->BDCR, RCC_BDCR_LSERDY) != 0U)
 800272a:	f8d4 3090 	ldr.w	r3, [r4, #144]	; 0x90
 800272e:	0799      	lsls	r1, r3, #30
 8002730:	d5c2      	bpl.n	80026b8 <HAL_RCC_OscConfig+0x308>
        if((HAL_GetTick() - tickstart) > RCC_LSE_TIMEOUT_VALUE)
 8002732:	f7ff fb6b 	bl	8001e0c <HAL_GetTick>
 8002736:	1bc0      	subs	r0, r0, r7
 8002738:	4548      	cmp	r0, r9
 800273a:	d9f6      	bls.n	800272a <HAL_RCC_OscConfig+0x37a>
 800273c:	e6d8      	b.n	80024f0 <HAL_RCC_OscConfig+0x140>
        if((HAL_GetTick() - tickstart) > RCC_LSE_TIMEOUT_VALUE)
 800273e:	f7ff fb65 	bl	8001e0c <HAL_GetTick>
 8002742:	1bc0      	subs	r0, r0, r7
 8002744:	4548      	cmp	r0, r9
 8002746:	d9b3      	bls.n	80026b0 <HAL_RCC_OscConfig+0x300>
 8002748:	e6d2      	b.n	80024f0 <HAL_RCC_OscConfig+0x140>
    if(RCC_OscInitStruct->PLL.PLLState == RCC_PLL_ON)
 800274a:	2b02      	cmp	r3, #2
 800274c:	f040 808f 	bne.w	800286e <HAL_RCC_OscConfig+0x4be>
      pll_config = RCC->PLLCFGR;
 8002750:	68e3      	ldr	r3, [r4, #12]
      if((READ_BIT(pll_config, RCC_PLLCFGR_PLLSRC)  != RCC_OscInitStruct->PLL.PLLSource) ||
 8002752:	6aea      	ldr	r2, [r5, #44]	; 0x2c
 8002754:	f003 0103 	and.w	r1, r3, #3
 8002758:	4291      	cmp	r1, r2
 800275a:	d124      	bne.n	80027a6 <HAL_RCC_OscConfig+0x3f6>
         (READ_BIT(pll_config, RCC_PLLCFGR_PLLM)    != ((RCC_OscInitStruct->PLL.PLLM - 1U) << RCC_PLLCFGR_PLLM_Pos)) ||
 800275c:	6b29      	ldr	r1, [r5, #48]	; 0x30
 800275e:	f003 0270 	and.w	r2, r3, #112	; 0x70
 8002762:	3901      	subs	r1, #1
      if((READ_BIT(pll_config, RCC_PLLCFGR_PLLSRC)  != RCC_OscInitStruct->PLL.PLLSource) ||
 8002764:	ebb2 1f01 	cmp.w	r2, r1, lsl #4
 8002768:	d11d      	bne.n	80027a6 <HAL_RCC_OscConfig+0x3f6>
         (READ_BIT(pll_config, RCC_PLLCFGR_PLLN)    != (RCC_OscInitStruct->PLL.PLLN << RCC_PLLCFGR_PLLN_Pos)) ||
 800276a:	6b69      	ldr	r1, [r5, #52]	; 0x34
 800276c:	f403 42fe 	and.w	r2, r3, #32512	; 0x7f00
         (READ_BIT(pll_config, RCC_PLLCFGR_PLLM)    != ((RCC_OscInitStruct->PLL.PLLM - 1U) << RCC_PLLCFGR_PLLM_Pos)) ||
 8002770:	ebb2 2f01 	cmp.w	r2, r1, lsl #8
 8002774:	d117      	bne.n	80027a6 <HAL_RCC_OscConfig+0x3f6>
         (READ_BIT(pll_config, RCC_PLLCFGR_PLLP)    != ((RCC_OscInitStruct->PLL.PLLP == RCC_PLLP_DIV7) ? 0U : 1U)) ||
 8002776:	6baa      	ldr	r2, [r5, #56]	; 0x38
 8002778:	3a07      	subs	r2, #7
 800277a:	f403 3100 	and.w	r1, r3, #131072	; 0x20000
 800277e:	bf18      	it	ne
 8002780:	2201      	movne	r2, #1
         (READ_BIT(pll_config, RCC_PLLCFGR_PLLN)    != (RCC_OscInitStruct->PLL.PLLN << RCC_PLLCFGR_PLLN_Pos)) ||
 8002782:	4291      	cmp	r1, r2
 8002784:	d10f      	bne.n	80027a6 <HAL_RCC_OscConfig+0x3f6>
         (READ_BIT(pll_config, RCC_PLLCFGR_PLLQ)    != ((((RCC_OscInitStruct->PLL.PLLQ) >> 1U) - 1U) << RCC_PLLCFGR_PLLQ_Pos)) ||
 8002786:	6bea      	ldr	r2, [r5, #60]	; 0x3c
 8002788:	0852      	lsrs	r2, r2, #1
 800278a:	f403 01c0 	and.w	r1, r3, #6291456	; 0x600000
 800278e:	3a01      	subs	r2, #1
         (READ_BIT(pll_config, RCC_PLLCFGR_PLLP)    != ((RCC_OscInitStruct->PLL.PLLP == RCC_PLLP_DIV7) ? 0U : 1U)) ||
 8002790:	ebb1 5f42 	cmp.w	r1, r2, lsl #21
 8002794:	d107      	bne.n	80027a6 <HAL_RCC_OscConfig+0x3f6>
         (READ_BIT(pll_config, RCC_PLLCFGR_PLLR)    != ((((RCC_OscInitStruct->PLL.PLLR) >> 1U) - 1U) << RCC_PLLCFGR_PLLR_Pos)))
 8002796:	6c2a      	ldr	r2, [r5, #64]	; 0x40
 8002798:	0852      	lsrs	r2, r2, #1
 800279a:	f003 63c0 	and.w	r3, r3, #100663296	; 0x6000000
 800279e:	3a01      	subs	r2, #1
         (READ_BIT(pll_config, RCC_PLLCFGR_PLLQ)    != ((((RCC_OscInitStruct->PLL.PLLQ) >> 1U) - 1U) << RCC_PLLCFGR_PLLQ_Pos)) ||
 80027a0:	ebb3 6f42 	cmp.w	r3, r2, lsl #25
 80027a4:	d04a      	beq.n	800283c <HAL_RCC_OscConfig+0x48c>
        if(sysclk_source != RCC_CFGR_SWS_PLL)
 80027a6:	2e0c      	cmp	r6, #12
 80027a8:	f43f ae06 	beq.w	80023b8 <HAL_RCC_OscConfig+0x8>
          if((READ_BIT(RCC->CR, RCC_CR_PLLSAI1ON) != 0U)
 80027ac:	6823      	ldr	r3, [r4, #0]
 80027ae:	015a      	lsls	r2, r3, #5
 80027b0:	f53f ae02 	bmi.w	80023b8 <HAL_RCC_OscConfig+0x8>
             || (READ_BIT(RCC->CR, RCC_CR_PLLSAI2ON) != 0U)
 80027b4:	6823      	ldr	r3, [r4, #0]
 80027b6:	00db      	lsls	r3, r3, #3
 80027b8:	f53f adfe 	bmi.w	80023b8 <HAL_RCC_OscConfig+0x8>
            __HAL_RCC_PLL_DISABLE();
 80027bc:	6823      	ldr	r3, [r4, #0]
 80027be:	f023 7380 	bic.w	r3, r3, #16777216	; 0x1000000
 80027c2:	6023      	str	r3, [r4, #0]
            tickstart = HAL_GetTick();
 80027c4:	f7ff fb22 	bl	8001e0c <HAL_GetTick>
 80027c8:	4606      	mov	r6, r0
            while(READ_BIT(RCC->CR, RCC_CR_PLLRDY) != 0U)
 80027ca:	6823      	ldr	r3, [r4, #0]
 80027cc:	019f      	lsls	r7, r3, #6
 80027ce:	d42f      	bmi.n	8002830 <HAL_RCC_OscConfig+0x480>
            __HAL_RCC_PLL_CONFIG(RCC_OscInitStruct->PLL.PLLSource,
 80027d0:	68e2      	ldr	r2, [r4, #12]
 80027d2:	4b39      	ldr	r3, [pc, #228]	; (80028b8 <HAL_RCC_OscConfig+0x508>)
 80027d4:	4013      	ands	r3, r2
 80027d6:	6aea      	ldr	r2, [r5, #44]	; 0x2c
 80027d8:	4313      	orrs	r3, r2
 80027da:	6b6a      	ldr	r2, [r5, #52]	; 0x34
 80027dc:	ea43 2302 	orr.w	r3, r3, r2, lsl #8
 80027e0:	6b2a      	ldr	r2, [r5, #48]	; 0x30
 80027e2:	3a01      	subs	r2, #1
 80027e4:	ea43 1302 	orr.w	r3, r3, r2, lsl #4
 80027e8:	6baa      	ldr	r2, [r5, #56]	; 0x38
 80027ea:	0912      	lsrs	r2, r2, #4
 80027ec:	ea43 4342 	orr.w	r3, r3, r2, lsl #17
 80027f0:	6bea      	ldr	r2, [r5, #60]	; 0x3c
 80027f2:	0852      	lsrs	r2, r2, #1
 80027f4:	3a01      	subs	r2, #1
 80027f6:	ea43 5342 	orr.w	r3, r3, r2, lsl #21
 80027fa:	6c2a      	ldr	r2, [r5, #64]	; 0x40
 80027fc:	0852      	lsrs	r2, r2, #1
 80027fe:	3a01      	subs	r2, #1
 8002800:	ea43 6342 	orr.w	r3, r3, r2, lsl #25
 8002804:	60e3      	str	r3, [r4, #12]
            __HAL_RCC_PLL_ENABLE();
 8002806:	6823      	ldr	r3, [r4, #0]
 8002808:	f043 7380 	orr.w	r3, r3, #16777216	; 0x1000000
 800280c:	6023      	str	r3, [r4, #0]
            __HAL_RCC_PLLCLKOUT_ENABLE(RCC_PLL_SYSCLK);
 800280e:	68e3      	ldr	r3, [r4, #12]
 8002810:	f043 7380 	orr.w	r3, r3, #16777216	; 0x1000000
 8002814:	60e3      	str	r3, [r4, #12]
            tickstart = HAL_GetTick();
 8002816:	f7ff faf9 	bl	8001e0c <HAL_GetTick>
 800281a:	4605      	mov	r5, r0
            while(READ_BIT(RCC->CR, RCC_CR_PLLRDY) == 0U)
 800281c:	6823      	ldr	r3, [r4, #0]
 800281e:	0198      	lsls	r0, r3, #6
 8002820:	f53f ae29 	bmi.w	8002476 <HAL_RCC_OscConfig+0xc6>
              if((HAL_GetTick() - tickstart) > PLL_TIMEOUT_VALUE)
 8002824:	f7ff faf2 	bl	8001e0c <HAL_GetTick>
 8002828:	1b40      	subs	r0, r0, r5
 800282a:	2802      	cmp	r0, #2
 800282c:	d9f6      	bls.n	800281c <HAL_RCC_OscConfig+0x46c>
 800282e:	e65f      	b.n	80024f0 <HAL_RCC_OscConfig+0x140>
              if((HAL_GetTick() - tickstart) > PLL_TIMEOUT_VALUE)
 8002830:	f7ff faec 	bl	8001e0c <HAL_GetTick>
 8002834:	1b80      	subs	r0, r0, r6
 8002836:	2802      	cmp	r0, #2
 8002838:	d9c7      	bls.n	80027ca <HAL_RCC_OscConfig+0x41a>
 800283a:	e659      	b.n	80024f0 <HAL_RCC_OscConfig+0x140>
        if(READ_BIT(RCC->CR, RCC_CR_PLLRDY) == 0U)
 800283c:	6823      	ldr	r3, [r4, #0]
 800283e:	0199      	lsls	r1, r3, #6
 8002840:	f53f ae19 	bmi.w	8002476 <HAL_RCC_OscConfig+0xc6>
          __HAL_RCC_PLL_ENABLE();
 8002844:	6823      	ldr	r3, [r4, #0]
 8002846:	f043 7380 	orr.w	r3, r3, #16777216	; 0x1000000
 800284a:	6023      	str	r3, [r4, #0]
          __HAL_RCC_PLLCLKOUT_ENABLE(RCC_PLL_SYSCLK);
 800284c:	68e3      	ldr	r3, [r4, #12]
 800284e:	f043 7380 	orr.w	r3, r3, #16777216	; 0x1000000
 8002852:	60e3      	str	r3, [r4, #12]
          tickstart = HAL_GetTick();
 8002854:	f7ff fada 	bl	8001e0c <HAL_GetTick>
 8002858:	4605      	mov	r5, r0
          while(READ_BIT(RCC->CR, RCC_CR_PLLRDY) == 0U)
 800285a:	6823      	ldr	r3, [r4, #0]
 800285c:	019a      	lsls	r2, r3, #6
 800285e:	f53f ae0a 	bmi.w	8002476 <HAL_RCC_OscConfig+0xc6>
            if((HAL_GetTick() - tickstart) > PLL_TIMEOUT_VALUE)
 8002862:	f7ff fad3 	bl	8001e0c <HAL_GetTick>
 8002866:	1b40      	subs	r0, r0, r5
 8002868:	2802      	cmp	r0, #2
 800286a:	d9f6      	bls.n	800285a <HAL_RCC_OscConfig+0x4aa>
 800286c:	e640      	b.n	80024f0 <HAL_RCC_OscConfig+0x140>
      if(sysclk_source != RCC_CFGR_SWS_PLL)
 800286e:	2e0c      	cmp	r6, #12
 8002870:	f43f ada2 	beq.w	80023b8 <HAL_RCC_OscConfig+0x8>
        __HAL_RCC_PLL_DISABLE();
 8002874:	6823      	ldr	r3, [r4, #0]
 8002876:	f023 7380 	bic.w	r3, r3, #16777216	; 0x1000000
 800287a:	6023      	str	r3, [r4, #0]
        if(READ_BIT(RCC->CR, (RCC_CR_PLLSAI1RDY | RCC_CR_PLLSAI2RDY)) == 0U)
 800287c:	6823      	ldr	r3, [r4, #0]
 800287e:	f013 5f20 	tst.w	r3, #671088640	; 0x28000000
          MODIFY_REG(RCC->PLLCFGR, RCC_PLLCFGR_PLLSRC, RCC_PLLSOURCE_NONE);
 8002882:	bf02      	ittt	eq
 8002884:	68e3      	ldreq	r3, [r4, #12]
 8002886:	f023 0303 	biceq.w	r3, r3, #3
 800288a:	60e3      	streq	r3, [r4, #12]
        __HAL_RCC_PLLCLKOUT_DISABLE(RCC_PLL_SYSCLK | RCC_PLL_48M1CLK | RCC_PLL_SAI3CLK);
 800288c:	68e3      	ldr	r3, [r4, #12]
 800288e:	f023 7388 	bic.w	r3, r3, #17825792	; 0x1100000
 8002892:	f423 3380 	bic.w	r3, r3, #65536	; 0x10000
 8002896:	60e3      	str	r3, [r4, #12]
        tickstart = HAL_GetTick();
 8002898:	f7ff fab8 	bl	8001e0c <HAL_GetTick>
 800289c:	4605      	mov	r5, r0
        while(READ_BIT(RCC->CR, RCC_CR_PLLRDY) != 0U)
 800289e:	6823      	ldr	r3, [r4, #0]
 80028a0:	019b      	lsls	r3, r3, #6
 80028a2:	f57f ade8 	bpl.w	8002476 <HAL_RCC_OscConfig+0xc6>
          if((HAL_GetTick() - tickstart) > PLL_TIMEOUT_VALUE)
 80028a6:	f7ff fab1 	bl	8001e0c <HAL_GetTick>
 80028aa:	1b40      	subs	r0, r0, r5
 80028ac:	2802      	cmp	r0, #2
 80028ae:	d9f6      	bls.n	800289e <HAL_RCC_OscConfig+0x4ee>
 80028b0:	e61e      	b.n	80024f0 <HAL_RCC_OscConfig+0x140>
 80028b2:	bf00      	nop
 80028b4:	40007000 	.word	0x40007000
 80028b8:	f99d808c 	.word	0xf99d808c

080028bc <HAL_RCC_ClockConfig>:
{
 80028bc:	e92d 41f0 	stmdb	sp!, {r4, r5, r6, r7, r8, lr}
 80028c0:	460e      	mov	r6, r1
  if(RCC_ClkInitStruct == NULL)
 80028c2:	4604      	mov	r4, r0
 80028c4:	b910      	cbnz	r0, 80028cc <HAL_RCC_ClockConfig+0x10>
    return HAL_ERROR;
 80028c6:	2001      	movs	r0, #1
 80028c8:	e8bd 81f0 	ldmia.w	sp!, {r4, r5, r6, r7, r8, pc}
  if(FLatency > __HAL_FLASH_GET_LATENCY())
 80028cc:	4a41      	ldr	r2, [pc, #260]	; (80029d4 <HAL_RCC_ClockConfig+0x118>)
 80028ce:	6813      	ldr	r3, [r2, #0]
 80028d0:	f003 0307 	and.w	r3, r3, #7
 80028d4:	428b      	cmp	r3, r1
 80028d6:	d32a      	bcc.n	800292e <HAL_RCC_ClockConfig+0x72>
  if(((RCC_ClkInitStruct->ClockType) & RCC_CLOCKTYPE_SYSCLK) == RCC_CLOCKTYPE_SYSCLK)
 80028d8:	6823      	ldr	r3, [r4, #0]
 80028da:	07d9      	lsls	r1, r3, #31
 80028dc:	d432      	bmi.n	8002944 <HAL_RCC_ClockConfig+0x88>
  if(((RCC_ClkInitStruct->ClockType) & RCC_CLOCKTYPE_HCLK) == RCC_CLOCKTYPE_HCLK)
 80028de:	6821      	ldr	r1, [r4, #0]
 80028e0:	078a      	lsls	r2, r1, #30
 80028e2:	d45c      	bmi.n	800299e <HAL_RCC_ClockConfig+0xe2>
  if(FLatency < __HAL_FLASH_GET_LATENCY())
 80028e4:	4a3b      	ldr	r2, [pc, #236]	; (80029d4 <HAL_RCC_ClockConfig+0x118>)
 80028e6:	6813      	ldr	r3, [r2, #0]
 80028e8:	f003 0307 	and.w	r3, r3, #7
 80028ec:	429e      	cmp	r6, r3
 80028ee:	d35e      	bcc.n	80029ae <HAL_RCC_ClockConfig+0xf2>
  if(((RCC_ClkInitStruct->ClockType) & RCC_CLOCKTYPE_PCLK1) == RCC_CLOCKTYPE_PCLK1)
 80028f0:	f011 0f04 	tst.w	r1, #4
 80028f4:	4d38      	ldr	r5, [pc, #224]	; (80029d8 <HAL_RCC_ClockConfig+0x11c>)
 80028f6:	d165      	bne.n	80029c4 <HAL_RCC_ClockConfig+0x108>
  if(((RCC_ClkInitStruct->ClockType) & RCC_CLOCKTYPE_PCLK2) == RCC_CLOCKTYPE_PCLK2)
 80028f8:	070b      	lsls	r3, r1, #28
 80028fa:	d506      	bpl.n	800290a <HAL_RCC_ClockConfig+0x4e>
    MODIFY_REG(RCC->CFGR, RCC_CFGR_PPRE2, ((RCC_ClkInitStruct->APB2CLKDivider) << 3U));
 80028fc:	68ab      	ldr	r3, [r5, #8]
 80028fe:	6922      	ldr	r2, [r4, #16]
 8002900:	f423 5360 	bic.w	r3, r3, #14336	; 0x3800
 8002904:	ea43 03c2 	orr.w	r3, r3, r2, lsl #3
 8002908:	60ab      	str	r3, [r5, #8]
  SystemCoreClock = HAL_RCC_GetSysClockFreq() >> (AHBPrescTable[READ_BIT(RCC->CFGR, RCC_CFGR_HPRE) >> RCC_CFGR_HPRE_Pos] & 0x1FU);
 800290a:	f7ff fd03 	bl	8002314 <HAL_RCC_GetSysClockFreq>
 800290e:	68ab      	ldr	r3, [r5, #8]
 8002910:	4a32      	ldr	r2, [pc, #200]	; (80029dc <HAL_RCC_ClockConfig+0x120>)
 8002912:	f3c3 1303 	ubfx	r3, r3, #4, #4
}
 8002916:	e8bd 41f0 	ldmia.w	sp!, {r4, r5, r6, r7, r8, lr}
  SystemCoreClock = HAL_RCC_GetSysClockFreq() >> (AHBPrescTable[READ_BIT(RCC->CFGR, RCC_CFGR_HPRE) >> RCC_CFGR_HPRE_Pos] & 0x1FU);
 800291a:	5cd3      	ldrb	r3, [r2, r3]
 800291c:	f003 031f 	and.w	r3, r3, #31
 8002920:	40d8      	lsrs	r0, r3
 8002922:	4b2f      	ldr	r3, [pc, #188]	; (80029e0 <HAL_RCC_ClockConfig+0x124>)
 8002924:	6018      	str	r0, [r3, #0]
  status = HAL_InitTick(uwTickPrio);
 8002926:	4b2f      	ldr	r3, [pc, #188]	; (80029e4 <HAL_RCC_ClockConfig+0x128>)
 8002928:	6818      	ldr	r0, [r3, #0]
 800292a:	f004 bdd5 	b.w	80074d8 <HAL_InitTick>
    __HAL_FLASH_SET_LATENCY(FLatency);
 800292e:	6813      	ldr	r3, [r2, #0]
 8002930:	f023 0307 	bic.w	r3, r3, #7
 8002934:	430b      	orrs	r3, r1
 8002936:	6013      	str	r3, [r2, #0]
    if(__HAL_FLASH_GET_LATENCY() != FLatency)
 8002938:	6813      	ldr	r3, [r2, #0]
 800293a:	f003 0307 	and.w	r3, r3, #7
 800293e:	4299      	cmp	r1, r3
 8002940:	d1c1      	bne.n	80028c6 <HAL_RCC_ClockConfig+0xa>
 8002942:	e7c9      	b.n	80028d8 <HAL_RCC_ClockConfig+0x1c>
    if(RCC_ClkInitStruct->SYSCLKSource == RCC_SYSCLKSOURCE_PLLCLK)
 8002944:	6862      	ldr	r2, [r4, #4]
 8002946:	4d24      	ldr	r5, [pc, #144]	; (80029d8 <HAL_RCC_ClockConfig+0x11c>)
 8002948:	2a03      	cmp	r2, #3
      if(READ_BIT(RCC->CR, RCC_CR_PLLRDY) == 0U)
 800294a:	682b      	ldr	r3, [r5, #0]
    if(RCC_ClkInitStruct->SYSCLKSource == RCC_SYSCLKSOURCE_PLLCLK)
 800294c:	d11b      	bne.n	8002986 <HAL_RCC_ClockConfig+0xca>
      if(READ_BIT(RCC->CR, RCC_CR_PLLRDY) == 0U)
 800294e:	f013 7f00 	tst.w	r3, #33554432	; 0x2000000
        if(READ_BIT(RCC->CR, RCC_CR_HSIRDY) == 0U)
 8002952:	d0b8      	beq.n	80028c6 <HAL_RCC_ClockConfig+0xa>
    MODIFY_REG(RCC->CFGR, RCC_CFGR_SW, RCC_ClkInitStruct->SYSCLKSource);
 8002954:	68ab      	ldr	r3, [r5, #8]
 8002956:	f023 0303 	bic.w	r3, r3, #3
 800295a:	4313      	orrs	r3, r2
 800295c:	60ab      	str	r3, [r5, #8]
    tickstart = HAL_GetTick();
 800295e:	f7ff fa55 	bl	8001e0c <HAL_GetTick>
      if((HAL_GetTick() - tickstart) > CLOCKSWITCH_TIMEOUT_VALUE)
 8002962:	f241 3888 	movw	r8, #5000	; 0x1388
    tickstart = HAL_GetTick();
 8002966:	4607      	mov	r7, r0
    while(__HAL_RCC_GET_SYSCLK_SOURCE() != (RCC_ClkInitStruct->SYSCLKSource << RCC_CFGR_SWS_Pos))
 8002968:	68ab      	ldr	r3, [r5, #8]
 800296a:	6862      	ldr	r2, [r4, #4]
 800296c:	f003 030c 	and.w	r3, r3, #12
 8002970:	ebb3 0f82 	cmp.w	r3, r2, lsl #2
 8002974:	d0b3      	beq.n	80028de <HAL_RCC_ClockConfig+0x22>
      if((HAL_GetTick() - tickstart) > CLOCKSWITCH_TIMEOUT_VALUE)
 8002976:	f7ff fa49 	bl	8001e0c <HAL_GetTick>
 800297a:	1bc0      	subs	r0, r0, r7
 800297c:	4540      	cmp	r0, r8
 800297e:	d9f3      	bls.n	8002968 <HAL_RCC_ClockConfig+0xac>
        return HAL_TIMEOUT;
 8002980:	2003      	movs	r0, #3
}
 8002982:	e8bd 81f0 	ldmia.w	sp!, {r4, r5, r6, r7, r8, pc}
      if(RCC_ClkInitStruct->SYSCLKSource == RCC_SYSCLKSOURCE_HSE)
 8002986:	2a02      	cmp	r2, #2
 8002988:	d102      	bne.n	8002990 <HAL_RCC_ClockConfig+0xd4>
        if(READ_BIT(RCC->CR, RCC_CR_HSERDY) == 0U)
 800298a:	f413 3f00 	tst.w	r3, #131072	; 0x20000
 800298e:	e7e0      	b.n	8002952 <HAL_RCC_ClockConfig+0x96>
      else if(RCC_ClkInitStruct->SYSCLKSource == RCC_SYSCLKSOURCE_MSI)
 8002990:	b912      	cbnz	r2, 8002998 <HAL_RCC_ClockConfig+0xdc>
        if(READ_BIT(RCC->CR, RCC_CR_MSIRDY) == 0U)
 8002992:	f013 0f02 	tst.w	r3, #2
 8002996:	e7dc      	b.n	8002952 <HAL_RCC_ClockConfig+0x96>
        if(READ_BIT(RCC->CR, RCC_CR_HSIRDY) == 0U)
 8002998:	f413 6f80 	tst.w	r3, #1024	; 0x400
 800299c:	e7d9      	b.n	8002952 <HAL_RCC_ClockConfig+0x96>
    MODIFY_REG(RCC->CFGR, RCC_CFGR_HPRE, RCC_ClkInitStruct->AHBCLKDivider);
 800299e:	4a0e      	ldr	r2, [pc, #56]	; (80029d8 <HAL_RCC_ClockConfig+0x11c>)
 80029a0:	68a0      	ldr	r0, [r4, #8]
 80029a2:	6893      	ldr	r3, [r2, #8]
 80029a4:	f023 03f0 	bic.w	r3, r3, #240	; 0xf0
 80029a8:	4303      	orrs	r3, r0
 80029aa:	6093      	str	r3, [r2, #8]
 80029ac:	e79a      	b.n	80028e4 <HAL_RCC_ClockConfig+0x28>
    __HAL_FLASH_SET_LATENCY(FLatency);
 80029ae:	6813      	ldr	r3, [r2, #0]
 80029b0:	f023 0307 	bic.w	r3, r3, #7
 80029b4:	4333      	orrs	r3, r6
 80029b6:	6013      	str	r3, [r2, #0]
    if(__HAL_FLASH_GET_LATENCY() != FLatency)
 80029b8:	6813      	ldr	r3, [r2, #0]
 80029ba:	f003 0307 	and.w	r3, r3, #7
 80029be:	429e      	cmp	r6, r3
 80029c0:	d181      	bne.n	80028c6 <HAL_RCC_ClockConfig+0xa>
 80029c2:	e795      	b.n	80028f0 <HAL_RCC_ClockConfig+0x34>
    MODIFY_REG(RCC->CFGR, RCC_CFGR_PPRE1, RCC_ClkInitStruct->APB1CLKDivider);
 80029c4:	68ab      	ldr	r3, [r5, #8]
 80029c6:	68e2      	ldr	r2, [r4, #12]
 80029c8:	f423 63e0 	bic.w	r3, r3, #1792	; 0x700
 80029cc:	4313      	orrs	r3, r2
 80029ce:	60ab      	str	r3, [r5, #8]
 80029d0:	e792      	b.n	80028f8 <HAL_RCC_ClockConfig+0x3c>
 80029d2:	bf00      	nop
 80029d4:	40022000 	.word	0x40022000
 80029d8:	40021000 	.word	0x40021000
 80029dc:	0800bbca 	.word	0x0800bbca
 80029e0:	2000001c 	.word	0x2000001c
 80029e4:	20000004 	.word	0x20000004

080029e8 <HAL_RCC_GetPCLK1Freq>:
  return (HAL_RCC_GetHCLKFreq() >> (APBPrescTable[READ_BIT(RCC->CFGR, RCC_CFGR_PPRE1) >> RCC_CFGR_PPRE1_Pos] & 0x1FU));
 80029e8:	4b05      	ldr	r3, [pc, #20]	; (8002a00 <HAL_RCC_GetPCLK1Freq+0x18>)
 80029ea:	4a06      	ldr	r2, [pc, #24]	; (8002a04 <HAL_RCC_GetPCLK1Freq+0x1c>)
 80029ec:	689b      	ldr	r3, [r3, #8]
 80029ee:	f3c3 2302 	ubfx	r3, r3, #8, #3
 80029f2:	5cd3      	ldrb	r3, [r2, r3]
 80029f4:	4a04      	ldr	r2, [pc, #16]	; (8002a08 <HAL_RCC_GetPCLK1Freq+0x20>)
 80029f6:	6810      	ldr	r0, [r2, #0]
 80029f8:	f003 031f 	and.w	r3, r3, #31
}
 80029fc:	40d8      	lsrs	r0, r3
 80029fe:	4770      	bx	lr
 8002a00:	40021000 	.word	0x40021000
 8002a04:	0800bbda 	.word	0x0800bbda
 8002a08:	2000001c 	.word	0x2000001c

08002a0c <HAL_RCC_GetPCLK2Freq>:
  return (HAL_RCC_GetHCLKFreq()>> (APBPrescTable[READ_BIT(RCC->CFGR, RCC_CFGR_PPRE2) >> RCC_CFGR_PPRE2_Pos] & 0x1FU));
 8002a0c:	4b05      	ldr	r3, [pc, #20]	; (8002a24 <HAL_RCC_GetPCLK2Freq+0x18>)
 8002a0e:	4a06      	ldr	r2, [pc, #24]	; (8002a28 <HAL_RCC_GetPCLK2Freq+0x1c>)
 8002a10:	689b      	ldr	r3, [r3, #8]
 8002a12:	f3c3 23c2 	ubfx	r3, r3, #11, #3
 8002a16:	5cd3      	ldrb	r3, [r2, r3]
 8002a18:	4a04      	ldr	r2, [pc, #16]	; (8002a2c <HAL_RCC_GetPCLK2Freq+0x20>)
 8002a1a:	6810      	ldr	r0, [r2, #0]
 8002a1c:	f003 031f 	and.w	r3, r3, #31
}
 8002a20:	40d8      	lsrs	r0, r3
 8002a22:	4770      	bx	lr
 8002a24:	40021000 	.word	0x40021000
 8002a28:	0800bbda 	.word	0x0800bbda
 8002a2c:	2000001c 	.word	0x2000001c

08002a30 <HAL_RCC_GetClockConfig>:
  RCC_ClkInitStruct->ClockType = RCC_CLOCKTYPE_SYSCLK | RCC_CLOCKTYPE_HCLK | RCC_CLOCKTYPE_PCLK1 | RCC_CLOCKTYPE_PCLK2;
 8002a30:	230f      	movs	r3, #15
 8002a32:	6003      	str	r3, [r0, #0]
  RCC_ClkInitStruct->SYSCLKSource = READ_BIT(RCC->CFGR, RCC_CFGR_SW);
 8002a34:	4b0b      	ldr	r3, [pc, #44]	; (8002a64 <HAL_RCC_GetClockConfig+0x34>)
 8002a36:	689a      	ldr	r2, [r3, #8]
 8002a38:	f002 0203 	and.w	r2, r2, #3
 8002a3c:	6042      	str	r2, [r0, #4]
  RCC_ClkInitStruct->AHBCLKDivider = READ_BIT(RCC->CFGR, RCC_CFGR_HPRE);
 8002a3e:	689a      	ldr	r2, [r3, #8]
 8002a40:	f002 02f0 	and.w	r2, r2, #240	; 0xf0
 8002a44:	6082      	str	r2, [r0, #8]
  RCC_ClkInitStruct->APB1CLKDivider = READ_BIT(RCC->CFGR, RCC_CFGR_PPRE1);
 8002a46:	689a      	ldr	r2, [r3, #8]
 8002a48:	f402 62e0 	and.w	r2, r2, #1792	; 0x700
 8002a4c:	60c2      	str	r2, [r0, #12]
  RCC_ClkInitStruct->APB2CLKDivider = (READ_BIT(RCC->CFGR, RCC_CFGR_PPRE2) >> 3U);
 8002a4e:	689b      	ldr	r3, [r3, #8]
 8002a50:	08db      	lsrs	r3, r3, #3
 8002a52:	f403 63e0 	and.w	r3, r3, #1792	; 0x700
 8002a56:	6103      	str	r3, [r0, #16]
  *pFLatency = __HAL_FLASH_GET_LATENCY();
 8002a58:	4b03      	ldr	r3, [pc, #12]	; (8002a68 <HAL_RCC_GetClockConfig+0x38>)
 8002a5a:	681b      	ldr	r3, [r3, #0]
 8002a5c:	f003 0307 	and.w	r3, r3, #7
 8002a60:	600b      	str	r3, [r1, #0]
 8002a62:	4770      	bx	lr
 8002a64:	40021000 	.word	0x40021000
 8002a68:	40022000 	.word	0x40022000

08002a6c <RCCEx_PLLSAI1_Config>:
  * @note   PLLSAI1 is temporary disable to apply new parameters
  *
  * @retval HAL status
  */
static HAL_StatusTypeDef RCCEx_PLLSAI1_Config(RCC_PLLSAI1InitTypeDef *PllSai1, uint32_t Divider)
{
 8002a6c:	b5f8      	push	{r3, r4, r5, r6, r7, lr}
  assert_param(IS_RCC_PLLSAI1M_VALUE(PllSai1->PLLSAI1M));
  assert_param(IS_RCC_PLLSAI1N_VALUE(PllSai1->PLLSAI1N));
  assert_param(IS_RCC_PLLSAI1CLOCKOUT_VALUE(PllSai1->PLLSAI1ClockOut));

  /* Check that PLLSAI1 clock source and divider M can be applied */
  if(__HAL_RCC_GET_PLL_OSCSOURCE() != RCC_PLLSOURCE_NONE)
 8002a6e:	4b45      	ldr	r3, [pc, #276]	; (8002b84 <RCCEx_PLLSAI1_Config+0x118>)
 8002a70:	68da      	ldr	r2, [r3, #12]
 8002a72:	f012 0f03 	tst.w	r2, #3
{
 8002a76:	4605      	mov	r5, r0
 8002a78:	460e      	mov	r6, r1
 8002a7a:	461c      	mov	r4, r3
 8002a7c:	6800      	ldr	r0, [r0, #0]
  if(__HAL_RCC_GET_PLL_OSCSOURCE() != RCC_PLLSOURCE_NONE)
 8002a7e:	d02a      	beq.n	8002ad6 <RCCEx_PLLSAI1_Config+0x6a>
  {
    /* PLL clock source and divider M already set, check that no request for change  */
    if((__HAL_RCC_GET_PLL_OSCSOURCE() != PllSai1->PLLSAI1Source)
 8002a80:	68da      	ldr	r2, [r3, #12]
 8002a82:	f002 0203 	and.w	r2, r2, #3
 8002a86:	4282      	cmp	r2, r0
 8002a88:	d13c      	bne.n	8002b04 <RCCEx_PLLSAI1_Config+0x98>
       ||
 8002a8a:	2a00      	cmp	r2, #0
 8002a8c:	d03a      	beq.n	8002b04 <RCCEx_PLLSAI1_Config+0x98>
       (PllSai1->PLLSAI1Source == RCC_PLLSOURCE_NONE)
#if !defined(RCC_PLLSAI1M_DIV_1_16_SUPPORT)
       ||
       (((READ_BIT(RCC->PLLCFGR, RCC_PLLCFGR_PLLM) >> RCC_PLLCFGR_PLLM_Pos) + 1U) != PllSai1->PLLSAI1M)
 8002a8e:	68db      	ldr	r3, [r3, #12]
       ||
 8002a90:	686a      	ldr	r2, [r5, #4]
       (((READ_BIT(RCC->PLLCFGR, RCC_PLLCFGR_PLLM) >> RCC_PLLCFGR_PLLM_Pos) + 1U) != PllSai1->PLLSAI1M)
 8002a92:	f3c3 1302 	ubfx	r3, r3, #4, #3
 8002a96:	3301      	adds	r3, #1
       ||
 8002a98:	4293      	cmp	r3, r2
 8002a9a:	d133      	bne.n	8002b04 <RCCEx_PLLSAI1_Config+0x98>
  }

  if(status == HAL_OK)
  {
    /* Disable the PLLSAI1 */
    __HAL_RCC_PLLSAI1_DISABLE();
 8002a9c:	6823      	ldr	r3, [r4, #0]
 8002a9e:	f023 6380 	bic.w	r3, r3, #67108864	; 0x4000000
 8002aa2:	6023      	str	r3, [r4, #0]

    /* Get Start Tick*/
    tickstart = HAL_GetTick();
 8002aa4:	f7ff f9b2 	bl	8001e0c <HAL_GetTick>
 8002aa8:	4607      	mov	r7, r0

    /* Wait till PLLSAI1 is ready to be updated */
    while(READ_BIT(RCC->CR, RCC_CR_PLLSAI1RDY) != 0U)
 8002aaa:	6823      	ldr	r3, [r4, #0]
 8002aac:	011a      	lsls	r2, r3, #4
 8002aae:	d432      	bmi.n	8002b16 <RCCEx_PLLSAI1_Config+0xaa>
 8002ab0:	68af      	ldr	r7, [r5, #8]
      }
    }

    if(status == HAL_OK)
    {
      if(Divider == DIVIDER_P_UPDATE)
 8002ab2:	2e00      	cmp	r6, #0
 8002ab4:	d036      	beq.n	8002b24 <RCCEx_PLLSAI1_Config+0xb8>
                   ((PllSai1->PLLSAI1P >> 4U) << RCC_PLLSAI1CFGR_PLLSAI1P_Pos));
#endif /* RCC_PLLSAI1P_DIV_2_31_SUPPORT */

#endif /* RCC_PLLSAI1M_DIV_1_16_SUPPORT */
      }
      else if(Divider == DIVIDER_Q_UPDATE)
 8002ab6:	2e01      	cmp	r6, #1
 8002ab8:	d150      	bne.n	8002b5c <RCCEx_PLLSAI1_Config+0xf0>
                   (PllSai1->PLLSAI1N << RCC_PLLSAI1CFGR_PLLSAI1N_Pos) |
                   (((PllSai1->PLLSAI1Q >> 1U) - 1U) << RCC_PLLSAI1CFGR_PLLSAI1Q_Pos) |
                   ((PllSai1->PLLSAI1M - 1U) << RCC_PLLSAI1CFGR_PLLSAI1M_Pos));
#else
        /* Configure the PLLSAI1 Division factor Q and Multiplication factor N*/
        MODIFY_REG(RCC->PLLSAI1CFGR,
 8002aba:	6922      	ldr	r2, [r4, #16]
 8002abc:	6928      	ldr	r0, [r5, #16]
 8002abe:	f422 02c0 	bic.w	r2, r2, #6291456	; 0x600000
 8002ac2:	0840      	lsrs	r0, r0, #1
 8002ac4:	f422 42fe 	bic.w	r2, r2, #32512	; 0x7f00
 8002ac8:	3801      	subs	r0, #1
 8002aca:	ea42 2207 	orr.w	r2, r2, r7, lsl #8
 8002ace:	ea42 5240 	orr.w	r2, r2, r0, lsl #21
 8002ad2:	6122      	str	r2, [r4, #16]
 8002ad4:	e032      	b.n	8002b3c <RCCEx_PLLSAI1_Config+0xd0>
    switch(PllSai1->PLLSAI1Source)
 8002ad6:	2802      	cmp	r0, #2
 8002ad8:	d010      	beq.n	8002afc <RCCEx_PLLSAI1_Config+0x90>
 8002ada:	2803      	cmp	r0, #3
 8002adc:	d014      	beq.n	8002b08 <RCCEx_PLLSAI1_Config+0x9c>
 8002ade:	2801      	cmp	r0, #1
 8002ae0:	d110      	bne.n	8002b04 <RCCEx_PLLSAI1_Config+0x98>
      if(HAL_IS_BIT_CLR(RCC->CR, RCC_CR_MSIRDY))
 8002ae2:	681b      	ldr	r3, [r3, #0]
 8002ae4:	079f      	lsls	r7, r3, #30
 8002ae6:	d538      	bpl.n	8002b5a <RCCEx_PLLSAI1_Config+0xee>
      MODIFY_REG(RCC->PLLCFGR, RCC_PLLCFGR_PLLSRC | RCC_PLLCFGR_PLLM, PllSai1->PLLSAI1Source | (PllSai1->PLLSAI1M - 1U) << RCC_PLLCFGR_PLLM_Pos);
 8002ae8:	68e3      	ldr	r3, [r4, #12]
 8002aea:	686a      	ldr	r2, [r5, #4]
 8002aec:	f023 0373 	bic.w	r3, r3, #115	; 0x73
 8002af0:	3a01      	subs	r2, #1
 8002af2:	4318      	orrs	r0, r3
 8002af4:	ea40 1002 	orr.w	r0, r0, r2, lsl #4
 8002af8:	60e0      	str	r0, [r4, #12]
 8002afa:	e7cf      	b.n	8002a9c <RCCEx_PLLSAI1_Config+0x30>
      if(HAL_IS_BIT_CLR(RCC->CR, RCC_CR_HSIRDY))
 8002afc:	681b      	ldr	r3, [r3, #0]
 8002afe:	f413 6f80 	tst.w	r3, #1024	; 0x400
        if(HAL_IS_BIT_CLR(RCC->CR, RCC_CR_HSEBYP))
 8002b02:	d1f1      	bne.n	8002ae8 <RCCEx_PLLSAI1_Config+0x7c>
 8002b04:	2001      	movs	r0, #1
 8002b06:	bdf8      	pop	{r3, r4, r5, r6, r7, pc}
      if(HAL_IS_BIT_CLR(RCC->CR, RCC_CR_HSERDY))
 8002b08:	681a      	ldr	r2, [r3, #0]
 8002b0a:	0391      	lsls	r1, r2, #14
 8002b0c:	d4ec      	bmi.n	8002ae8 <RCCEx_PLLSAI1_Config+0x7c>
        if(HAL_IS_BIT_CLR(RCC->CR, RCC_CR_HSEBYP))
 8002b0e:	681b      	ldr	r3, [r3, #0]
 8002b10:	f413 2f80 	tst.w	r3, #262144	; 0x40000
 8002b14:	e7f5      	b.n	8002b02 <RCCEx_PLLSAI1_Config+0x96>
      if((HAL_GetTick() - tickstart) > PLLSAI1_TIMEOUT_VALUE)
 8002b16:	f7ff f979 	bl	8001e0c <HAL_GetTick>
 8002b1a:	1bc0      	subs	r0, r0, r7
 8002b1c:	2802      	cmp	r0, #2
 8002b1e:	d9c4      	bls.n	8002aaa <RCCEx_PLLSAI1_Config+0x3e>
        status = HAL_TIMEOUT;
 8002b20:	2003      	movs	r0, #3
 8002b22:	bdf8      	pop	{r3, r4, r5, r6, r7, pc}
        MODIFY_REG(RCC->PLLSAI1CFGR,
 8002b24:	6921      	ldr	r1, [r4, #16]
 8002b26:	68eb      	ldr	r3, [r5, #12]
 8002b28:	f421 311f 	bic.w	r1, r1, #162816	; 0x27c00
 8002b2c:	f421 7140 	bic.w	r1, r1, #768	; 0x300
 8002b30:	ea41 2107 	orr.w	r1, r1, r7, lsl #8
 8002b34:	091b      	lsrs	r3, r3, #4
 8002b36:	ea41 4143 	orr.w	r1, r1, r3, lsl #17
 8002b3a:	6121      	str	r1, [r4, #16]
                   (((PllSai1->PLLSAI1R >> 1U) - 1U) << RCC_PLLSAI1CFGR_PLLSAI1R_Pos));
#endif /* RCC_PLLSAI1M_DIV_1_16_SUPPORT */
      }

      /* Enable the PLLSAI1 again by setting PLLSAI1ON to 1*/
      __HAL_RCC_PLLSAI1_ENABLE();
 8002b3c:	6823      	ldr	r3, [r4, #0]
 8002b3e:	f043 6380 	orr.w	r3, r3, #67108864	; 0x4000000
 8002b42:	6023      	str	r3, [r4, #0]

      /* Get Start Tick*/
      tickstart = HAL_GetTick();
 8002b44:	f7ff f962 	bl	8001e0c <HAL_GetTick>
 8002b48:	4606      	mov	r6, r0

      /* Wait till PLLSAI1 is ready */
      while(READ_BIT(RCC->CR, RCC_CR_PLLSAI1RDY) == 0U)
 8002b4a:	6823      	ldr	r3, [r4, #0]
 8002b4c:	011b      	lsls	r3, r3, #4
 8002b4e:	d513      	bpl.n	8002b78 <RCCEx_PLLSAI1_Config+0x10c>
      }

      if(status == HAL_OK)
      {
        /* Configure the PLLSAI1 Clock output(s) */
        __HAL_RCC_PLLSAI1CLKOUT_ENABLE(PllSai1->PLLSAI1ClockOut);
 8002b50:	6923      	ldr	r3, [r4, #16]
 8002b52:	69aa      	ldr	r2, [r5, #24]
 8002b54:	4313      	orrs	r3, r2
 8002b56:	6123      	str	r3, [r4, #16]
 8002b58:	2000      	movs	r0, #0
      }
    }
  }

  return status;
}
 8002b5a:	bdf8      	pop	{r3, r4, r5, r6, r7, pc}
        MODIFY_REG(RCC->PLLSAI1CFGR,
 8002b5c:	6923      	ldr	r3, [r4, #16]
 8002b5e:	6968      	ldr	r0, [r5, #20]
 8002b60:	f023 63c0 	bic.w	r3, r3, #100663296	; 0x6000000
 8002b64:	0840      	lsrs	r0, r0, #1
 8002b66:	f423 43fe 	bic.w	r3, r3, #32512	; 0x7f00
 8002b6a:	3801      	subs	r0, #1
 8002b6c:	ea43 2307 	orr.w	r3, r3, r7, lsl #8
 8002b70:	ea43 6340 	orr.w	r3, r3, r0, lsl #25
 8002b74:	6123      	str	r3, [r4, #16]
 8002b76:	e7e1      	b.n	8002b3c <RCCEx_PLLSAI1_Config+0xd0>
        if((HAL_GetTick() - tickstart) > PLLSAI1_TIMEOUT_VALUE)
 8002b78:	f7ff f948 	bl	8001e0c <HAL_GetTick>
 8002b7c:	1b80      	subs	r0, r0, r6
 8002b7e:	2802      	cmp	r0, #2
 8002b80:	d9e3      	bls.n	8002b4a <RCCEx_PLLSAI1_Config+0xde>
 8002b82:	e7cd      	b.n	8002b20 <RCCEx_PLLSAI1_Config+0xb4>
 8002b84:	40021000 	.word	0x40021000

08002b88 <RCCEx_PLLSAI2_Config>:
  * @note   PLLSAI2 is temporary disable to apply new parameters
  *
  * @retval HAL status
  */
static HAL_StatusTypeDef RCCEx_PLLSAI2_Config(RCC_PLLSAI2InitTypeDef *PllSai2, uint32_t Divider)
{
 8002b88:	b5f8      	push	{r3, r4, r5, r6, r7, lr}
  assert_param(IS_RCC_PLLSAI2M_VALUE(PllSai2->PLLSAI2M));
  assert_param(IS_RCC_PLLSAI2N_VALUE(PllSai2->PLLSAI2N));
  assert_param(IS_RCC_PLLSAI2CLOCKOUT_VALUE(PllSai2->PLLSAI2ClockOut));

  /* Check that PLLSAI2 clock source and divider M can be applied */
  if(__HAL_RCC_GET_PLL_OSCSOURCE() != RCC_PLLSOURCE_NONE)
 8002b8a:	4b3d      	ldr	r3, [pc, #244]	; (8002c80 <RCCEx_PLLSAI2_Config+0xf8>)
 8002b8c:	68da      	ldr	r2, [r3, #12]
 8002b8e:	f012 0f03 	tst.w	r2, #3
{
 8002b92:	4605      	mov	r5, r0
 8002b94:	460e      	mov	r6, r1
 8002b96:	461c      	mov	r4, r3
 8002b98:	6800      	ldr	r0, [r0, #0]
  if(__HAL_RCC_GET_PLL_OSCSOURCE() != RCC_PLLSOURCE_NONE)
 8002b9a:	d028      	beq.n	8002bee <RCCEx_PLLSAI2_Config+0x66>
  {
    /* PLL clock source and divider M already set, check that no request for change  */
    if((__HAL_RCC_GET_PLL_OSCSOURCE() != PllSai2->PLLSAI2Source)
 8002b9c:	68da      	ldr	r2, [r3, #12]
 8002b9e:	f002 0203 	and.w	r2, r2, #3
 8002ba2:	4282      	cmp	r2, r0
 8002ba4:	d13a      	bne.n	8002c1c <RCCEx_PLLSAI2_Config+0x94>
       ||
 8002ba6:	2a00      	cmp	r2, #0
 8002ba8:	d038      	beq.n	8002c1c <RCCEx_PLLSAI2_Config+0x94>
       (PllSai2->PLLSAI2Source == RCC_PLLSOURCE_NONE)
#if !defined(RCC_PLLSAI2M_DIV_1_16_SUPPORT)
       ||
       (((READ_BIT(RCC->PLLCFGR, RCC_PLLCFGR_PLLM) >> RCC_PLLCFGR_PLLM_Pos) + 1U) != PllSai2->PLLSAI2M)
 8002baa:	68db      	ldr	r3, [r3, #12]
       ||
 8002bac:	686a      	ldr	r2, [r5, #4]
       (((READ_BIT(RCC->PLLCFGR, RCC_PLLCFGR_PLLM) >> RCC_PLLCFGR_PLLM_Pos) + 1U) != PllSai2->PLLSAI2M)
 8002bae:	f3c3 1302 	ubfx	r3, r3, #4, #3
 8002bb2:	3301      	adds	r3, #1
       ||
 8002bb4:	4293      	cmp	r3, r2
 8002bb6:	d131      	bne.n	8002c1c <RCCEx_PLLSAI2_Config+0x94>
  }

  if(status == HAL_OK)
  {
    /* Disable the PLLSAI2 */
    __HAL_RCC_PLLSAI2_DISABLE();
 8002bb8:	6823      	ldr	r3, [r4, #0]
 8002bba:	f023 5380 	bic.w	r3, r3, #268435456	; 0x10000000
 8002bbe:	6023      	str	r3, [r4, #0]

    /* Get Start Tick*/
    tickstart = HAL_GetTick();
 8002bc0:	f7ff f924 	bl	8001e0c <HAL_GetTick>
 8002bc4:	4607      	mov	r7, r0

    /* Wait till PLLSAI2 is ready to be updated */
    while(READ_BIT(RCC->CR, RCC_CR_PLLSAI2RDY) != 0U)
 8002bc6:	6823      	ldr	r3, [r4, #0]
 8002bc8:	009a      	lsls	r2, r3, #2
 8002bca:	d430      	bmi.n	8002c2e <RCCEx_PLLSAI2_Config+0xa6>
 8002bcc:	68a8      	ldr	r0, [r5, #8]
      }
    }

    if(status == HAL_OK)
    {
      if(Divider == DIVIDER_P_UPDATE)
 8002bce:	2e00      	cmp	r6, #0
 8002bd0:	d034      	beq.n	8002c3c <RCCEx_PLLSAI2_Config+0xb4>
                   (PllSai2->PLLSAI2N << RCC_PLLSAI2CFGR_PLLSAI2N_Pos) |
                   (((PllSai2->PLLSAI2R >> 1U) - 1U) << RCC_PLLSAI2CFGR_PLLSAI2R_Pos) |
                   ((PllSai2->PLLSAI2M - 1U) << RCC_PLLSAI2CFGR_PLLSAI2M_Pos));
#else
        /* Configure the PLLSAI2 Division factor R and Multiplication factor N*/
        MODIFY_REG(RCC->PLLSAI2CFGR,
 8002bd2:	6963      	ldr	r3, [r4, #20]
 8002bd4:	6929      	ldr	r1, [r5, #16]
 8002bd6:	f023 63c0 	bic.w	r3, r3, #100663296	; 0x6000000
 8002bda:	0849      	lsrs	r1, r1, #1
 8002bdc:	f423 43fe 	bic.w	r3, r3, #32512	; 0x7f00
 8002be0:	3901      	subs	r1, #1
 8002be2:	ea43 2300 	orr.w	r3, r3, r0, lsl #8
 8002be6:	ea43 6341 	orr.w	r3, r3, r1, lsl #25
 8002bea:	6163      	str	r3, [r4, #20]
 8002bec:	e032      	b.n	8002c54 <RCCEx_PLLSAI2_Config+0xcc>
    switch(PllSai2->PLLSAI2Source)
 8002bee:	2802      	cmp	r0, #2
 8002bf0:	d010      	beq.n	8002c14 <RCCEx_PLLSAI2_Config+0x8c>
 8002bf2:	2803      	cmp	r0, #3
 8002bf4:	d014      	beq.n	8002c20 <RCCEx_PLLSAI2_Config+0x98>
 8002bf6:	2801      	cmp	r0, #1
 8002bf8:	d110      	bne.n	8002c1c <RCCEx_PLLSAI2_Config+0x94>
      if(HAL_IS_BIT_CLR(RCC->CR, RCC_CR_MSIRDY))
 8002bfa:	681b      	ldr	r3, [r3, #0]
 8002bfc:	079f      	lsls	r7, r3, #30
 8002bfe:	d538      	bpl.n	8002c72 <RCCEx_PLLSAI2_Config+0xea>
      MODIFY_REG(RCC->PLLCFGR, RCC_PLLCFGR_PLLSRC | RCC_PLLCFGR_PLLM, PllSai2->PLLSAI2Source | (PllSai2->PLLSAI2M - 1U) << RCC_PLLCFGR_PLLM_Pos);
 8002c00:	68e3      	ldr	r3, [r4, #12]
 8002c02:	686a      	ldr	r2, [r5, #4]
 8002c04:	f023 0373 	bic.w	r3, r3, #115	; 0x73
 8002c08:	3a01      	subs	r2, #1
 8002c0a:	4318      	orrs	r0, r3
 8002c0c:	ea40 1002 	orr.w	r0, r0, r2, lsl #4
 8002c10:	60e0      	str	r0, [r4, #12]
 8002c12:	e7d1      	b.n	8002bb8 <RCCEx_PLLSAI2_Config+0x30>
      if(HAL_IS_BIT_CLR(RCC->CR, RCC_CR_HSIRDY))
 8002c14:	681b      	ldr	r3, [r3, #0]
 8002c16:	f413 6f80 	tst.w	r3, #1024	; 0x400
        if(HAL_IS_BIT_CLR(RCC->CR, RCC_CR_HSEBYP))
 8002c1a:	d1f1      	bne.n	8002c00 <RCCEx_PLLSAI2_Config+0x78>
 8002c1c:	2001      	movs	r0, #1
 8002c1e:	bdf8      	pop	{r3, r4, r5, r6, r7, pc}
      if(HAL_IS_BIT_CLR(RCC->CR, RCC_CR_HSERDY))
 8002c20:	681a      	ldr	r2, [r3, #0]
 8002c22:	0391      	lsls	r1, r2, #14
 8002c24:	d4ec      	bmi.n	8002c00 <RCCEx_PLLSAI2_Config+0x78>
        if(HAL_IS_BIT_CLR(RCC->CR, RCC_CR_HSEBYP))
 8002c26:	681b      	ldr	r3, [r3, #0]
 8002c28:	f413 2f80 	tst.w	r3, #262144	; 0x40000
 8002c2c:	e7f5      	b.n	8002c1a <RCCEx_PLLSAI2_Config+0x92>
      if((HAL_GetTick() - tickstart) > PLLSAI2_TIMEOUT_VALUE)
 8002c2e:	f7ff f8ed 	bl	8001e0c <HAL_GetTick>
 8002c32:	1bc0      	subs	r0, r0, r7
 8002c34:	2802      	cmp	r0, #2
 8002c36:	d9c6      	bls.n	8002bc6 <RCCEx_PLLSAI2_Config+0x3e>
        status = HAL_TIMEOUT;
 8002c38:	2003      	movs	r0, #3
 8002c3a:	bdf8      	pop	{r3, r4, r5, r6, r7, pc}
        MODIFY_REG(RCC->PLLSAI2CFGR,
 8002c3c:	6962      	ldr	r2, [r4, #20]
 8002c3e:	68eb      	ldr	r3, [r5, #12]
 8002c40:	f422 321f 	bic.w	r2, r2, #162816	; 0x27c00
 8002c44:	f422 7240 	bic.w	r2, r2, #768	; 0x300
 8002c48:	ea42 2200 	orr.w	r2, r2, r0, lsl #8
 8002c4c:	091b      	lsrs	r3, r3, #4
 8002c4e:	ea42 4243 	orr.w	r2, r2, r3, lsl #17
 8002c52:	6162      	str	r2, [r4, #20]
                   (((PllSai2->PLLSAI2R >> 1U) - 1U) << RCC_PLLSAI2CFGR_PLLSAI2R_Pos));
#endif /* RCC_PLLSAI2M_DIV_1_16_SUPPORT */
      }

      /* Enable the PLLSAI2 again by setting PLLSAI2ON to 1*/
      __HAL_RCC_PLLSAI2_ENABLE();
 8002c54:	6823      	ldr	r3, [r4, #0]
 8002c56:	f043 5380 	orr.w	r3, r3, #268435456	; 0x10000000
 8002c5a:	6023      	str	r3, [r4, #0]

      /* Get Start Tick*/
      tickstart = HAL_GetTick();
 8002c5c:	f7ff f8d6 	bl	8001e0c <HAL_GetTick>
 8002c60:	4606      	mov	r6, r0

      /* Wait till PLLSAI2 is ready */
      while(READ_BIT(RCC->CR, RCC_CR_PLLSAI2RDY) == 0U)
 8002c62:	6823      	ldr	r3, [r4, #0]
 8002c64:	009b      	lsls	r3, r3, #2
 8002c66:	d505      	bpl.n	8002c74 <RCCEx_PLLSAI2_Config+0xec>
      }

      if(status == HAL_OK)
      {
        /* Configure the PLLSAI2 Clock output(s) */
        __HAL_RCC_PLLSAI2CLKOUT_ENABLE(PllSai2->PLLSAI2ClockOut);
 8002c68:	6963      	ldr	r3, [r4, #20]
 8002c6a:	696a      	ldr	r2, [r5, #20]
 8002c6c:	4313      	orrs	r3, r2
 8002c6e:	6163      	str	r3, [r4, #20]
 8002c70:	2000      	movs	r0, #0
      }
    }
  }

  return status;
}
 8002c72:	bdf8      	pop	{r3, r4, r5, r6, r7, pc}
        if((HAL_GetTick() - tickstart) > PLLSAI2_TIMEOUT_VALUE)
 8002c74:	f7ff f8ca 	bl	8001e0c <HAL_GetTick>
 8002c78:	1b80      	subs	r0, r0, r6
 8002c7a:	2802      	cmp	r0, #2
 8002c7c:	d9f1      	bls.n	8002c62 <RCCEx_PLLSAI2_Config+0xda>
 8002c7e:	e7db      	b.n	8002c38 <RCCEx_PLLSAI2_Config+0xb0>
 8002c80:	40021000 	.word	0x40021000

08002c84 <HAL_RCCEx_PeriphCLKConfig>:
{
 8002c84:	e92d 47f3 	stmdb	sp!, {r0, r1, r4, r5, r6, r7, r8, r9, sl, lr}
  if((((PeriphClkInit->PeriphClockSelection) & RCC_PERIPHCLK_SAI1) == RCC_PERIPHCLK_SAI1))
 8002c88:	6806      	ldr	r6, [r0, #0]
 8002c8a:	f416 6600 	ands.w	r6, r6, #2048	; 0x800
{
 8002c8e:	4604      	mov	r4, r0
  if((((PeriphClkInit->PeriphClockSelection) & RCC_PERIPHCLK_SAI1) == RCC_PERIPHCLK_SAI1))
 8002c90:	d024      	beq.n	8002cdc <HAL_RCCEx_PeriphCLKConfig+0x58>
    switch(PeriphClkInit->Sai1ClockSelection)
 8002c92:	6e41      	ldr	r1, [r0, #100]	; 0x64
 8002c94:	f5b1 0f80 	cmp.w	r1, #4194304	; 0x400000
 8002c98:	d02c      	beq.n	8002cf4 <HAL_RCCEx_PeriphCLKConfig+0x70>
 8002c9a:	d802      	bhi.n	8002ca2 <HAL_RCCEx_PeriphCLKConfig+0x1e>
 8002c9c:	b1c1      	cbz	r1, 8002cd0 <HAL_RCCEx_PeriphCLKConfig+0x4c>
      ret = HAL_ERROR;
 8002c9e:	2601      	movs	r6, #1
 8002ca0:	e01c      	b.n	8002cdc <HAL_RCCEx_PeriphCLKConfig+0x58>
    switch(PeriphClkInit->Sai1ClockSelection)
 8002ca2:	f5b1 0f00 	cmp.w	r1, #8388608	; 0x800000
 8002ca6:	d00d      	beq.n	8002cc4 <HAL_RCCEx_PeriphCLKConfig+0x40>
 8002ca8:	f5b1 0f40 	cmp.w	r1, #12582912	; 0xc00000
 8002cac:	d1f7      	bne.n	8002c9e <HAL_RCCEx_PeriphCLKConfig+0x1a>
      __HAL_RCC_SAI1_CONFIG(PeriphClkInit->Sai1ClockSelection);
 8002cae:	4a4d      	ldr	r2, [pc, #308]	; (8002de4 <HAL_RCCEx_PeriphCLKConfig+0x160>)
 8002cb0:	6e61      	ldr	r1, [r4, #100]	; 0x64
 8002cb2:	f8d2 3088 	ldr.w	r3, [r2, #136]	; 0x88
 8002cb6:	f423 0340 	bic.w	r3, r3, #12582912	; 0xc00000
 8002cba:	430b      	orrs	r3, r1
 8002cbc:	f8c2 3088 	str.w	r3, [r2, #136]	; 0x88
 8002cc0:	2600      	movs	r6, #0
 8002cc2:	e00b      	b.n	8002cdc <HAL_RCCEx_PeriphCLKConfig+0x58>
      __HAL_RCC_PLLCLKOUT_ENABLE(RCC_PLL_SAI3CLK);
 8002cc4:	4a47      	ldr	r2, [pc, #284]	; (8002de4 <HAL_RCCEx_PeriphCLKConfig+0x160>)
 8002cc6:	68d3      	ldr	r3, [r2, #12]
 8002cc8:	f443 3380 	orr.w	r3, r3, #65536	; 0x10000
 8002ccc:	60d3      	str	r3, [r2, #12]
      break;
 8002cce:	e7ee      	b.n	8002cae <HAL_RCCEx_PeriphCLKConfig+0x2a>
      ret = RCCEx_PLLSAI1_Config(&(PeriphClkInit->PLLSAI1), DIVIDER_P_UPDATE);
 8002cd0:	3004      	adds	r0, #4
 8002cd2:	f7ff fecb 	bl	8002a6c <RCCEx_PLLSAI1_Config>
      ret = RCCEx_PLLSAI2_Config(&(PeriphClkInit->PLLSAI2), DIVIDER_P_UPDATE);
 8002cd6:	4606      	mov	r6, r0
    if(ret == HAL_OK)
 8002cd8:	2800      	cmp	r0, #0
 8002cda:	d0e8      	beq.n	8002cae <HAL_RCCEx_PeriphCLKConfig+0x2a>
  if((((PeriphClkInit->PeriphClockSelection) & RCC_PERIPHCLK_SAI2) == RCC_PERIPHCLK_SAI2))
 8002cdc:	6823      	ldr	r3, [r4, #0]
 8002cde:	04d8      	lsls	r0, r3, #19
 8002ce0:	d506      	bpl.n	8002cf0 <HAL_RCCEx_PeriphCLKConfig+0x6c>
    switch(PeriphClkInit->Sai2ClockSelection)
 8002ce2:	6ea1      	ldr	r1, [r4, #104]	; 0x68
 8002ce4:	f1b1 7f80 	cmp.w	r1, #16777216	; 0x1000000
 8002ce8:	d074      	beq.n	8002dd4 <HAL_RCCEx_PeriphCLKConfig+0x150>
 8002cea:	d808      	bhi.n	8002cfe <HAL_RCCEx_PeriphCLKConfig+0x7a>
 8002cec:	b1a9      	cbz	r1, 8002d1a <HAL_RCCEx_PeriphCLKConfig+0x96>
      ret = HAL_ERROR;
 8002cee:	2601      	movs	r6, #1
 8002cf0:	4635      	mov	r5, r6
 8002cf2:	e021      	b.n	8002d38 <HAL_RCCEx_PeriphCLKConfig+0xb4>
      ret = RCCEx_PLLSAI2_Config(&(PeriphClkInit->PLLSAI2), DIVIDER_P_UPDATE);
 8002cf4:	2100      	movs	r1, #0
 8002cf6:	3020      	adds	r0, #32
 8002cf8:	f7ff ff46 	bl	8002b88 <RCCEx_PLLSAI2_Config>
 8002cfc:	e7eb      	b.n	8002cd6 <HAL_RCCEx_PeriphCLKConfig+0x52>
    switch(PeriphClkInit->Sai2ClockSelection)
 8002cfe:	f1b1 7f00 	cmp.w	r1, #33554432	; 0x2000000
 8002d02:	d004      	beq.n	8002d0e <HAL_RCCEx_PeriphCLKConfig+0x8a>
 8002d04:	f1b1 7f40 	cmp.w	r1, #50331648	; 0x3000000
 8002d08:	d1f1      	bne.n	8002cee <HAL_RCCEx_PeriphCLKConfig+0x6a>
 8002d0a:	4635      	mov	r5, r6
 8002d0c:	e009      	b.n	8002d22 <HAL_RCCEx_PeriphCLKConfig+0x9e>
      __HAL_RCC_PLLCLKOUT_ENABLE(RCC_PLL_SAI3CLK);
 8002d0e:	4a35      	ldr	r2, [pc, #212]	; (8002de4 <HAL_RCCEx_PeriphCLKConfig+0x160>)
 8002d10:	68d3      	ldr	r3, [r2, #12]
 8002d12:	f443 3380 	orr.w	r3, r3, #65536	; 0x10000
 8002d16:	60d3      	str	r3, [r2, #12]
 8002d18:	e7f7      	b.n	8002d0a <HAL_RCCEx_PeriphCLKConfig+0x86>
      ret = RCCEx_PLLSAI1_Config(&(PeriphClkInit->PLLSAI1), DIVIDER_P_UPDATE);
 8002d1a:	1d20      	adds	r0, r4, #4
 8002d1c:	f7ff fea6 	bl	8002a6c <RCCEx_PLLSAI1_Config>
      ret = RCCEx_PLLSAI2_Config(&(PeriphClkInit->PLLSAI2), DIVIDER_P_UPDATE);
 8002d20:	4605      	mov	r5, r0
    if(ret == HAL_OK)
 8002d22:	2d00      	cmp	r5, #0
 8002d24:	d15c      	bne.n	8002de0 <HAL_RCCEx_PeriphCLKConfig+0x15c>
      __HAL_RCC_SAI2_CONFIG(PeriphClkInit->Sai2ClockSelection);
 8002d26:	4a2f      	ldr	r2, [pc, #188]	; (8002de4 <HAL_RCCEx_PeriphCLKConfig+0x160>)
 8002d28:	6ea1      	ldr	r1, [r4, #104]	; 0x68
 8002d2a:	f8d2 3088 	ldr.w	r3, [r2, #136]	; 0x88
 8002d2e:	f023 7340 	bic.w	r3, r3, #50331648	; 0x3000000
 8002d32:	430b      	orrs	r3, r1
 8002d34:	f8c2 3088 	str.w	r3, [r2, #136]	; 0x88
  if((PeriphClkInit->PeriphClockSelection & RCC_PERIPHCLK_RTC) == RCC_PERIPHCLK_RTC)
 8002d38:	6823      	ldr	r3, [r4, #0]
 8002d3a:	0399      	lsls	r1, r3, #14
 8002d3c:	f140 814f 	bpl.w	8002fde <HAL_RCCEx_PeriphCLKConfig+0x35a>
    if(__HAL_RCC_PWR_IS_CLK_DISABLED() != 0U)
 8002d40:	4f28      	ldr	r7, [pc, #160]	; (8002de4 <HAL_RCCEx_PeriphCLKConfig+0x160>)
 8002d42:	6dbb      	ldr	r3, [r7, #88]	; 0x58
 8002d44:	00da      	lsls	r2, r3, #3
 8002d46:	f140 8176 	bpl.w	8003036 <HAL_RCCEx_PeriphCLKConfig+0x3b2>
    FlagStatus       pwrclkchanged = RESET;
 8002d4a:	f04f 0800 	mov.w	r8, #0
    SET_BIT(PWR->CR1, PWR_CR1_DBP);
 8002d4e:	f8df 9098 	ldr.w	r9, [pc, #152]	; 8002de8 <HAL_RCCEx_PeriphCLKConfig+0x164>
 8002d52:	f8d9 3000 	ldr.w	r3, [r9]
 8002d56:	f443 7380 	orr.w	r3, r3, #256	; 0x100
 8002d5a:	f8c9 3000 	str.w	r3, [r9]
    tickstart = HAL_GetTick();
 8002d5e:	f7ff f855 	bl	8001e0c <HAL_GetTick>
 8002d62:	4682      	mov	sl, r0
    while(READ_BIT(PWR->CR1, PWR_CR1_DBP) == 0U)
 8002d64:	f8d9 3000 	ldr.w	r3, [r9]
 8002d68:	05db      	lsls	r3, r3, #23
 8002d6a:	d53f      	bpl.n	8002dec <HAL_RCCEx_PeriphCLKConfig+0x168>
    if(ret == HAL_OK)
 8002d6c:	2d00      	cmp	r5, #0
 8002d6e:	d144      	bne.n	8002dfa <HAL_RCCEx_PeriphCLKConfig+0x176>
      tmpregister = READ_BIT(RCC->BDCR, RCC_BDCR_RTCSEL);
 8002d70:	f8d7 3090 	ldr.w	r3, [r7, #144]	; 0x90
      if((tmpregister != RCC_RTCCLKSOURCE_NONE) && (tmpregister != PeriphClkInit->RTCClockSelection))
 8002d74:	f413 7340 	ands.w	r3, r3, #768	; 0x300
 8002d78:	d015      	beq.n	8002da6 <HAL_RCCEx_PeriphCLKConfig+0x122>
 8002d7a:	f8d4 2084 	ldr.w	r2, [r4, #132]	; 0x84
 8002d7e:	4293      	cmp	r3, r2
 8002d80:	d011      	beq.n	8002da6 <HAL_RCCEx_PeriphCLKConfig+0x122>
        tmpregister = READ_BIT(RCC->BDCR, ~(RCC_BDCR_RTCSEL));
 8002d82:	f8d7 3090 	ldr.w	r3, [r7, #144]	; 0x90
        __HAL_RCC_BACKUPRESET_FORCE();
 8002d86:	f8d7 2090 	ldr.w	r2, [r7, #144]	; 0x90
 8002d8a:	f442 3280 	orr.w	r2, r2, #65536	; 0x10000
 8002d8e:	f8c7 2090 	str.w	r2, [r7, #144]	; 0x90
        __HAL_RCC_BACKUPRESET_RELEASE();
 8002d92:	f8d7 2090 	ldr.w	r2, [r7, #144]	; 0x90
        tmpregister = READ_BIT(RCC->BDCR, ~(RCC_BDCR_RTCSEL));
 8002d96:	f423 7340 	bic.w	r3, r3, #768	; 0x300
        __HAL_RCC_BACKUPRESET_RELEASE();
 8002d9a:	f422 3280 	bic.w	r2, r2, #65536	; 0x10000
 8002d9e:	f8c7 2090 	str.w	r2, [r7, #144]	; 0x90
        RCC->BDCR = tmpregister;
 8002da2:	f8c7 3090 	str.w	r3, [r7, #144]	; 0x90
      if (HAL_IS_BIT_SET(tmpregister, RCC_BDCR_LSEON))
 8002da6:	07d8      	lsls	r0, r3, #31
 8002da8:	d509      	bpl.n	8002dbe <HAL_RCCEx_PeriphCLKConfig+0x13a>
        tickstart = HAL_GetTick();
 8002daa:	f7ff f82f 	bl	8001e0c <HAL_GetTick>
          if((HAL_GetTick() - tickstart) > RCC_LSE_TIMEOUT_VALUE)
 8002dae:	f241 3988 	movw	r9, #5000	; 0x1388
        tickstart = HAL_GetTick();
 8002db2:	4605      	mov	r5, r0
        while(READ_BIT(RCC->BDCR, RCC_BDCR_LSERDY) == 0U)
 8002db4:	f8d7 3090 	ldr.w	r3, [r7, #144]	; 0x90
 8002db8:	0799      	lsls	r1, r3, #30
 8002dba:	f140 8109 	bpl.w	8002fd0 <HAL_RCCEx_PeriphCLKConfig+0x34c>
        __HAL_RCC_RTC_CONFIG(PeriphClkInit->RTCClockSelection);
 8002dbe:	f8d7 3090 	ldr.w	r3, [r7, #144]	; 0x90
 8002dc2:	f8d4 2084 	ldr.w	r2, [r4, #132]	; 0x84
 8002dc6:	f423 7340 	bic.w	r3, r3, #768	; 0x300
 8002dca:	4313      	orrs	r3, r2
 8002dcc:	f8c7 3090 	str.w	r3, [r7, #144]	; 0x90
 8002dd0:	4635      	mov	r5, r6
 8002dd2:	e012      	b.n	8002dfa <HAL_RCCEx_PeriphCLKConfig+0x176>
      ret = RCCEx_PLLSAI2_Config(&(PeriphClkInit->PLLSAI2), DIVIDER_P_UPDATE);
 8002dd4:	2100      	movs	r1, #0
 8002dd6:	f104 0020 	add.w	r0, r4, #32
 8002dda:	f7ff fed5 	bl	8002b88 <RCCEx_PLLSAI2_Config>
 8002dde:	e79f      	b.n	8002d20 <HAL_RCCEx_PeriphCLKConfig+0x9c>
 8002de0:	462e      	mov	r6, r5
 8002de2:	e7a9      	b.n	8002d38 <HAL_RCCEx_PeriphCLKConfig+0xb4>
 8002de4:	40021000 	.word	0x40021000
 8002de8:	40007000 	.word	0x40007000
      if((HAL_GetTick() - tickstart) > RCC_DBP_TIMEOUT_VALUE)
 8002dec:	f7ff f80e 	bl	8001e0c <HAL_GetTick>
 8002df0:	eba0 000a 	sub.w	r0, r0, sl
 8002df4:	2802      	cmp	r0, #2
 8002df6:	d9b5      	bls.n	8002d64 <HAL_RCCEx_PeriphCLKConfig+0xe0>
        ret = HAL_TIMEOUT;
 8002df8:	2503      	movs	r5, #3
    if(pwrclkchanged == SET)
 8002dfa:	f1b8 0f00 	cmp.w	r8, #0
 8002dfe:	d003      	beq.n	8002e08 <HAL_RCCEx_PeriphCLKConfig+0x184>
      __HAL_RCC_PWR_CLK_DISABLE();
 8002e00:	6dbb      	ldr	r3, [r7, #88]	; 0x58
 8002e02:	f023 5380 	bic.w	r3, r3, #268435456	; 0x10000000
 8002e06:	65bb      	str	r3, [r7, #88]	; 0x58
  if(((PeriphClkInit->PeriphClockSelection) & RCC_PERIPHCLK_USART1) == RCC_PERIPHCLK_USART1)
 8002e08:	6823      	ldr	r3, [r4, #0]
 8002e0a:	07da      	lsls	r2, r3, #31
 8002e0c:	d508      	bpl.n	8002e20 <HAL_RCCEx_PeriphCLKConfig+0x19c>
    __HAL_RCC_USART1_CONFIG(PeriphClkInit->Usart1ClockSelection);
 8002e0e:	4990      	ldr	r1, [pc, #576]	; (8003050 <HAL_RCCEx_PeriphCLKConfig+0x3cc>)
 8002e10:	6ba0      	ldr	r0, [r4, #56]	; 0x38
 8002e12:	f8d1 2088 	ldr.w	r2, [r1, #136]	; 0x88
 8002e16:	f022 0203 	bic.w	r2, r2, #3
 8002e1a:	4302      	orrs	r2, r0
 8002e1c:	f8c1 2088 	str.w	r2, [r1, #136]	; 0x88
  if(((PeriphClkInit->PeriphClockSelection) & RCC_PERIPHCLK_USART2) == RCC_PERIPHCLK_USART2)
 8002e20:	079f      	lsls	r7, r3, #30
 8002e22:	d508      	bpl.n	8002e36 <HAL_RCCEx_PeriphCLKConfig+0x1b2>
    __HAL_RCC_USART2_CONFIG(PeriphClkInit->Usart2ClockSelection);
 8002e24:	498a      	ldr	r1, [pc, #552]	; (8003050 <HAL_RCCEx_PeriphCLKConfig+0x3cc>)
 8002e26:	6be0      	ldr	r0, [r4, #60]	; 0x3c
 8002e28:	f8d1 2088 	ldr.w	r2, [r1, #136]	; 0x88
 8002e2c:	f022 020c 	bic.w	r2, r2, #12
 8002e30:	4302      	orrs	r2, r0
 8002e32:	f8c1 2088 	str.w	r2, [r1, #136]	; 0x88
  if(((PeriphClkInit->PeriphClockSelection) & RCC_PERIPHCLK_USART3) == RCC_PERIPHCLK_USART3)
 8002e36:	075e      	lsls	r6, r3, #29
 8002e38:	d508      	bpl.n	8002e4c <HAL_RCCEx_PeriphCLKConfig+0x1c8>
    __HAL_RCC_USART3_CONFIG(PeriphClkInit->Usart3ClockSelection);
 8002e3a:	4985      	ldr	r1, [pc, #532]	; (8003050 <HAL_RCCEx_PeriphCLKConfig+0x3cc>)
 8002e3c:	6c20      	ldr	r0, [r4, #64]	; 0x40
 8002e3e:	f8d1 2088 	ldr.w	r2, [r1, #136]	; 0x88
 8002e42:	f022 0230 	bic.w	r2, r2, #48	; 0x30
 8002e46:	4302      	orrs	r2, r0
 8002e48:	f8c1 2088 	str.w	r2, [r1, #136]	; 0x88
  if(((PeriphClkInit->PeriphClockSelection) & RCC_PERIPHCLK_UART4) == RCC_PERIPHCLK_UART4)
 8002e4c:	0718      	lsls	r0, r3, #28
 8002e4e:	d508      	bpl.n	8002e62 <HAL_RCCEx_PeriphCLKConfig+0x1de>
    __HAL_RCC_UART4_CONFIG(PeriphClkInit->Uart4ClockSelection);
 8002e50:	497f      	ldr	r1, [pc, #508]	; (8003050 <HAL_RCCEx_PeriphCLKConfig+0x3cc>)
 8002e52:	6c60      	ldr	r0, [r4, #68]	; 0x44
 8002e54:	f8d1 2088 	ldr.w	r2, [r1, #136]	; 0x88
 8002e58:	f022 02c0 	bic.w	r2, r2, #192	; 0xc0
 8002e5c:	4302      	orrs	r2, r0
 8002e5e:	f8c1 2088 	str.w	r2, [r1, #136]	; 0x88
  if(((PeriphClkInit->PeriphClockSelection) & RCC_PERIPHCLK_UART5) == RCC_PERIPHCLK_UART5)
 8002e62:	06d9      	lsls	r1, r3, #27
 8002e64:	d508      	bpl.n	8002e78 <HAL_RCCEx_PeriphCLKConfig+0x1f4>
    __HAL_RCC_UART5_CONFIG(PeriphClkInit->Uart5ClockSelection);
 8002e66:	497a      	ldr	r1, [pc, #488]	; (8003050 <HAL_RCCEx_PeriphCLKConfig+0x3cc>)
 8002e68:	6ca0      	ldr	r0, [r4, #72]	; 0x48
 8002e6a:	f8d1 2088 	ldr.w	r2, [r1, #136]	; 0x88
 8002e6e:	f422 7240 	bic.w	r2, r2, #768	; 0x300
 8002e72:	4302      	orrs	r2, r0
 8002e74:	f8c1 2088 	str.w	r2, [r1, #136]	; 0x88
  if(((PeriphClkInit->PeriphClockSelection) & RCC_PERIPHCLK_LPUART1) == RCC_PERIPHCLK_LPUART1)
 8002e78:	069a      	lsls	r2, r3, #26
 8002e7a:	d508      	bpl.n	8002e8e <HAL_RCCEx_PeriphCLKConfig+0x20a>
    __HAL_RCC_LPUART1_CONFIG(PeriphClkInit->Lpuart1ClockSelection);
 8002e7c:	4974      	ldr	r1, [pc, #464]	; (8003050 <HAL_RCCEx_PeriphCLKConfig+0x3cc>)
 8002e7e:	6ce0      	ldr	r0, [r4, #76]	; 0x4c
 8002e80:	f8d1 2088 	ldr.w	r2, [r1, #136]	; 0x88
 8002e84:	f422 6240 	bic.w	r2, r2, #3072	; 0xc00
 8002e88:	4302      	orrs	r2, r0
 8002e8a:	f8c1 2088 	str.w	r2, [r1, #136]	; 0x88
  if(((PeriphClkInit->PeriphClockSelection) & RCC_PERIPHCLK_LPTIM1) == (RCC_PERIPHCLK_LPTIM1))
 8002e8e:	059f      	lsls	r7, r3, #22
 8002e90:	d508      	bpl.n	8002ea4 <HAL_RCCEx_PeriphCLKConfig+0x220>
    __HAL_RCC_LPTIM1_CONFIG(PeriphClkInit->Lptim1ClockSelection);
 8002e92:	496f      	ldr	r1, [pc, #444]	; (8003050 <HAL_RCCEx_PeriphCLKConfig+0x3cc>)
 8002e94:	6de0      	ldr	r0, [r4, #92]	; 0x5c
 8002e96:	f8d1 2088 	ldr.w	r2, [r1, #136]	; 0x88
 8002e9a:	f422 2240 	bic.w	r2, r2, #786432	; 0xc0000
 8002e9e:	4302      	orrs	r2, r0
 8002ea0:	f8c1 2088 	str.w	r2, [r1, #136]	; 0x88
  if(((PeriphClkInit->PeriphClockSelection) & RCC_PERIPHCLK_LPTIM2) == (RCC_PERIPHCLK_LPTIM2))
 8002ea4:	055e      	lsls	r6, r3, #21
 8002ea6:	d508      	bpl.n	8002eba <HAL_RCCEx_PeriphCLKConfig+0x236>
    __HAL_RCC_LPTIM2_CONFIG(PeriphClkInit->Lptim2ClockSelection);
 8002ea8:	4969      	ldr	r1, [pc, #420]	; (8003050 <HAL_RCCEx_PeriphCLKConfig+0x3cc>)
 8002eaa:	6e20      	ldr	r0, [r4, #96]	; 0x60
 8002eac:	f8d1 2088 	ldr.w	r2, [r1, #136]	; 0x88
 8002eb0:	f422 1240 	bic.w	r2, r2, #3145728	; 0x300000
 8002eb4:	4302      	orrs	r2, r0
 8002eb6:	f8c1 2088 	str.w	r2, [r1, #136]	; 0x88
  if(((PeriphClkInit->PeriphClockSelection) & RCC_PERIPHCLK_I2C1) == RCC_PERIPHCLK_I2C1)
 8002eba:	0658      	lsls	r0, r3, #25
 8002ebc:	d508      	bpl.n	8002ed0 <HAL_RCCEx_PeriphCLKConfig+0x24c>
    __HAL_RCC_I2C1_CONFIG(PeriphClkInit->I2c1ClockSelection);
 8002ebe:	4964      	ldr	r1, [pc, #400]	; (8003050 <HAL_RCCEx_PeriphCLKConfig+0x3cc>)
 8002ec0:	6d20      	ldr	r0, [r4, #80]	; 0x50
 8002ec2:	f8d1 2088 	ldr.w	r2, [r1, #136]	; 0x88
 8002ec6:	f422 5240 	bic.w	r2, r2, #12288	; 0x3000
 8002eca:	4302      	orrs	r2, r0
 8002ecc:	f8c1 2088 	str.w	r2, [r1, #136]	; 0x88
  if(((PeriphClkInit->PeriphClockSelection) & RCC_PERIPHCLK_I2C2) == RCC_PERIPHCLK_I2C2)
 8002ed0:	0619      	lsls	r1, r3, #24
 8002ed2:	d508      	bpl.n	8002ee6 <HAL_RCCEx_PeriphCLKConfig+0x262>
    __HAL_RCC_I2C2_CONFIG(PeriphClkInit->I2c2ClockSelection);
 8002ed4:	495e      	ldr	r1, [pc, #376]	; (8003050 <HAL_RCCEx_PeriphCLKConfig+0x3cc>)
 8002ed6:	6d60      	ldr	r0, [r4, #84]	; 0x54
 8002ed8:	f8d1 2088 	ldr.w	r2, [r1, #136]	; 0x88
 8002edc:	f422 4240 	bic.w	r2, r2, #49152	; 0xc000
 8002ee0:	4302      	orrs	r2, r0
 8002ee2:	f8c1 2088 	str.w	r2, [r1, #136]	; 0x88
  if(((PeriphClkInit->PeriphClockSelection) & RCC_PERIPHCLK_I2C3) == RCC_PERIPHCLK_I2C3)
 8002ee6:	05da      	lsls	r2, r3, #23
 8002ee8:	d508      	bpl.n	8002efc <HAL_RCCEx_PeriphCLKConfig+0x278>
    __HAL_RCC_I2C3_CONFIG(PeriphClkInit->I2c3ClockSelection);
 8002eea:	4959      	ldr	r1, [pc, #356]	; (8003050 <HAL_RCCEx_PeriphCLKConfig+0x3cc>)
 8002eec:	6da0      	ldr	r0, [r4, #88]	; 0x58
 8002eee:	f8d1 2088 	ldr.w	r2, [r1, #136]	; 0x88
 8002ef2:	f422 3240 	bic.w	r2, r2, #196608	; 0x30000
 8002ef6:	4302      	orrs	r2, r0
 8002ef8:	f8c1 2088 	str.w	r2, [r1, #136]	; 0x88
  if(((PeriphClkInit->PeriphClockSelection) & RCC_PERIPHCLK_USB) == (RCC_PERIPHCLK_USB))
 8002efc:	049b      	lsls	r3, r3, #18
 8002efe:	d50f      	bpl.n	8002f20 <HAL_RCCEx_PeriphCLKConfig+0x29c>
    __HAL_RCC_USB_CONFIG(PeriphClkInit->UsbClockSelection);
 8002f00:	4a53      	ldr	r2, [pc, #332]	; (8003050 <HAL_RCCEx_PeriphCLKConfig+0x3cc>)
 8002f02:	6ee1      	ldr	r1, [r4, #108]	; 0x6c
 8002f04:	f8d2 3088 	ldr.w	r3, [r2, #136]	; 0x88
 8002f08:	f023 6340 	bic.w	r3, r3, #201326592	; 0xc000000
 8002f0c:	430b      	orrs	r3, r1
    if(PeriphClkInit->UsbClockSelection == RCC_USBCLKSOURCE_PLL)
 8002f0e:	f1b1 6f00 	cmp.w	r1, #134217728	; 0x8000000
    __HAL_RCC_USB_CONFIG(PeriphClkInit->UsbClockSelection);
 8002f12:	f8c2 3088 	str.w	r3, [r2, #136]	; 0x88
    if(PeriphClkInit->UsbClockSelection == RCC_USBCLKSOURCE_PLL)
 8002f16:	d164      	bne.n	8002fe2 <HAL_RCCEx_PeriphCLKConfig+0x35e>
      __HAL_RCC_PLLCLKOUT_ENABLE(RCC_PLL_48M1CLK);
 8002f18:	68d3      	ldr	r3, [r2, #12]
 8002f1a:	f443 1380 	orr.w	r3, r3, #1048576	; 0x100000
 8002f1e:	60d3      	str	r3, [r2, #12]
  if(((PeriphClkInit->PeriphClockSelection) & RCC_PERIPHCLK_SDMMC1) == (RCC_PERIPHCLK_SDMMC1))
 8002f20:	6823      	ldr	r3, [r4, #0]
 8002f22:	031f      	lsls	r7, r3, #12
 8002f24:	d50f      	bpl.n	8002f46 <HAL_RCCEx_PeriphCLKConfig+0x2c2>
    __HAL_RCC_SDMMC1_CONFIG(PeriphClkInit->Sdmmc1ClockSelection);
 8002f26:	4a4a      	ldr	r2, [pc, #296]	; (8003050 <HAL_RCCEx_PeriphCLKConfig+0x3cc>)
 8002f28:	6f21      	ldr	r1, [r4, #112]	; 0x70
 8002f2a:	f8d2 3088 	ldr.w	r3, [r2, #136]	; 0x88
 8002f2e:	f023 6340 	bic.w	r3, r3, #201326592	; 0xc000000
 8002f32:	430b      	orrs	r3, r1
    if(PeriphClkInit->Sdmmc1ClockSelection == RCC_SDMMC1CLKSOURCE_PLL)   /* PLL "Q" ? */
 8002f34:	f1b1 6f00 	cmp.w	r1, #134217728	; 0x8000000
    __HAL_RCC_SDMMC1_CONFIG(PeriphClkInit->Sdmmc1ClockSelection);
 8002f38:	f8c2 3088 	str.w	r3, [r2, #136]	; 0x88
    if(PeriphClkInit->Sdmmc1ClockSelection == RCC_SDMMC1CLKSOURCE_PLL)   /* PLL "Q" ? */
 8002f3c:	d15c      	bne.n	8002ff8 <HAL_RCCEx_PeriphCLKConfig+0x374>
      __HAL_RCC_PLLCLKOUT_ENABLE(RCC_PLL_48M1CLK);
 8002f3e:	68d3      	ldr	r3, [r2, #12]
 8002f40:	f443 1380 	orr.w	r3, r3, #1048576	; 0x100000
 8002f44:	60d3      	str	r3, [r2, #12]
  if(((PeriphClkInit->PeriphClockSelection) & RCC_PERIPHCLK_RNG) == (RCC_PERIPHCLK_RNG))
 8002f46:	6823      	ldr	r3, [r4, #0]
 8002f48:	035e      	lsls	r6, r3, #13
 8002f4a:	d50f      	bpl.n	8002f6c <HAL_RCCEx_PeriphCLKConfig+0x2e8>
    __HAL_RCC_RNG_CONFIG(PeriphClkInit->RngClockSelection);
 8002f4c:	4a40      	ldr	r2, [pc, #256]	; (8003050 <HAL_RCCEx_PeriphCLKConfig+0x3cc>)
 8002f4e:	6f61      	ldr	r1, [r4, #116]	; 0x74
 8002f50:	f8d2 3088 	ldr.w	r3, [r2, #136]	; 0x88
 8002f54:	f023 6340 	bic.w	r3, r3, #201326592	; 0xc000000
 8002f58:	430b      	orrs	r3, r1
    if(PeriphClkInit->RngClockSelection == RCC_RNGCLKSOURCE_PLL)
 8002f5a:	f1b1 6f00 	cmp.w	r1, #134217728	; 0x8000000
    __HAL_RCC_RNG_CONFIG(PeriphClkInit->RngClockSelection);
 8002f5e:	f8c2 3088 	str.w	r3, [r2, #136]	; 0x88
    if(PeriphClkInit->RngClockSelection == RCC_RNGCLKSOURCE_PLL)
 8002f62:	d154      	bne.n	800300e <HAL_RCCEx_PeriphCLKConfig+0x38a>
      __HAL_RCC_PLLCLKOUT_ENABLE(RCC_PLL_48M1CLK);
 8002f64:	68d3      	ldr	r3, [r2, #12]
 8002f66:	f443 1380 	orr.w	r3, r3, #1048576	; 0x100000
 8002f6a:	60d3      	str	r3, [r2, #12]
  if(((PeriphClkInit->PeriphClockSelection) & RCC_PERIPHCLK_ADC) == RCC_PERIPHCLK_ADC)
 8002f6c:	6823      	ldr	r3, [r4, #0]
 8002f6e:	0458      	lsls	r0, r3, #17
 8002f70:	d512      	bpl.n	8002f98 <HAL_RCCEx_PeriphCLKConfig+0x314>
    __HAL_RCC_ADC_CONFIG(PeriphClkInit->AdcClockSelection);
 8002f72:	4937      	ldr	r1, [pc, #220]	; (8003050 <HAL_RCCEx_PeriphCLKConfig+0x3cc>)
 8002f74:	6fa2      	ldr	r2, [r4, #120]	; 0x78
 8002f76:	f8d1 3088 	ldr.w	r3, [r1, #136]	; 0x88
 8002f7a:	f023 5340 	bic.w	r3, r3, #805306368	; 0x30000000
 8002f7e:	4313      	orrs	r3, r2
    if(PeriphClkInit->AdcClockSelection == RCC_ADCCLKSOURCE_PLLSAI1)
 8002f80:	f1b2 5f80 	cmp.w	r2, #268435456	; 0x10000000
    __HAL_RCC_ADC_CONFIG(PeriphClkInit->AdcClockSelection);
 8002f84:	f8c1 3088 	str.w	r3, [r1, #136]	; 0x88
    if(PeriphClkInit->AdcClockSelection == RCC_ADCCLKSOURCE_PLLSAI1)
 8002f88:	d14c      	bne.n	8003024 <HAL_RCCEx_PeriphCLKConfig+0x3a0>
      ret = RCCEx_PLLSAI1_Config(&(PeriphClkInit->PLLSAI1), DIVIDER_R_UPDATE);
 8002f8a:	2102      	movs	r1, #2
 8002f8c:	1d20      	adds	r0, r4, #4
 8002f8e:	f7ff fd6d 	bl	8002a6c <RCCEx_PLLSAI1_Config>
      if(ret != HAL_OK)
 8002f92:	2800      	cmp	r0, #0
 8002f94:	bf18      	it	ne
 8002f96:	4605      	movne	r5, r0
  if(((PeriphClkInit->PeriphClockSelection) & RCC_PERIPHCLK_SWPMI1) == RCC_PERIPHCLK_SWPMI1)
 8002f98:	6822      	ldr	r2, [r4, #0]
 8002f9a:	0411      	lsls	r1, r2, #16
 8002f9c:	d508      	bpl.n	8002fb0 <HAL_RCCEx_PeriphCLKConfig+0x32c>
    __HAL_RCC_SWPMI1_CONFIG(PeriphClkInit->Swpmi1ClockSelection);
 8002f9e:	492c      	ldr	r1, [pc, #176]	; (8003050 <HAL_RCCEx_PeriphCLKConfig+0x3cc>)
 8002fa0:	6fe0      	ldr	r0, [r4, #124]	; 0x7c
 8002fa2:	f8d1 3088 	ldr.w	r3, [r1, #136]	; 0x88
 8002fa6:	f023 4380 	bic.w	r3, r3, #1073741824	; 0x40000000
 8002faa:	4303      	orrs	r3, r0
 8002fac:	f8c1 3088 	str.w	r3, [r1, #136]	; 0x88
  if(((PeriphClkInit->PeriphClockSelection) & RCC_PERIPHCLK_DFSDM1) == RCC_PERIPHCLK_DFSDM1)
 8002fb0:	03d3      	lsls	r3, r2, #15
 8002fb2:	d509      	bpl.n	8002fc8 <HAL_RCCEx_PeriphCLKConfig+0x344>
    __HAL_RCC_DFSDM1_CONFIG(PeriphClkInit->Dfsdm1ClockSelection);
 8002fb4:	4a26      	ldr	r2, [pc, #152]	; (8003050 <HAL_RCCEx_PeriphCLKConfig+0x3cc>)
 8002fb6:	f8d4 1080 	ldr.w	r1, [r4, #128]	; 0x80
 8002fba:	f8d2 3088 	ldr.w	r3, [r2, #136]	; 0x88
 8002fbe:	f023 4300 	bic.w	r3, r3, #2147483648	; 0x80000000
 8002fc2:	430b      	orrs	r3, r1
 8002fc4:	f8c2 3088 	str.w	r3, [r2, #136]	; 0x88
}
 8002fc8:	4628      	mov	r0, r5
 8002fca:	b002      	add	sp, #8
 8002fcc:	e8bd 87f0 	ldmia.w	sp!, {r4, r5, r6, r7, r8, r9, sl, pc}
          if((HAL_GetTick() - tickstart) > RCC_LSE_TIMEOUT_VALUE)
 8002fd0:	f7fe ff1c 	bl	8001e0c <HAL_GetTick>
 8002fd4:	1b40      	subs	r0, r0, r5
 8002fd6:	4548      	cmp	r0, r9
 8002fd8:	f67f aeec 	bls.w	8002db4 <HAL_RCCEx_PeriphCLKConfig+0x130>
 8002fdc:	e70c      	b.n	8002df8 <HAL_RCCEx_PeriphCLKConfig+0x174>
 8002fde:	4635      	mov	r5, r6
 8002fe0:	e712      	b.n	8002e08 <HAL_RCCEx_PeriphCLKConfig+0x184>
      if(PeriphClkInit->UsbClockSelection == RCC_USBCLKSOURCE_PLLSAI1)
 8002fe2:	f1b1 6f80 	cmp.w	r1, #67108864	; 0x4000000
 8002fe6:	d19b      	bne.n	8002f20 <HAL_RCCEx_PeriphCLKConfig+0x29c>
        ret = RCCEx_PLLSAI1_Config(&(PeriphClkInit->PLLSAI1), DIVIDER_Q_UPDATE);
 8002fe8:	2101      	movs	r1, #1
 8002fea:	1d20      	adds	r0, r4, #4
 8002fec:	f7ff fd3e 	bl	8002a6c <RCCEx_PLLSAI1_Config>
        if(ret != HAL_OK)
 8002ff0:	2800      	cmp	r0, #0
 8002ff2:	bf18      	it	ne
 8002ff4:	4605      	movne	r5, r0
 8002ff6:	e793      	b.n	8002f20 <HAL_RCCEx_PeriphCLKConfig+0x29c>
    else if(PeriphClkInit->Sdmmc1ClockSelection == RCC_SDMMC1CLKSOURCE_PLLSAI1)
 8002ff8:	f1b1 6f80 	cmp.w	r1, #67108864	; 0x4000000
 8002ffc:	d1a3      	bne.n	8002f46 <HAL_RCCEx_PeriphCLKConfig+0x2c2>
      ret = RCCEx_PLLSAI1_Config(&(PeriphClkInit->PLLSAI1), DIVIDER_Q_UPDATE);
 8002ffe:	2101      	movs	r1, #1
 8003000:	1d20      	adds	r0, r4, #4
 8003002:	f7ff fd33 	bl	8002a6c <RCCEx_PLLSAI1_Config>
      if(ret != HAL_OK)
 8003006:	2800      	cmp	r0, #0
 8003008:	bf18      	it	ne
 800300a:	4605      	movne	r5, r0
 800300c:	e79b      	b.n	8002f46 <HAL_RCCEx_PeriphCLKConfig+0x2c2>
    else if(PeriphClkInit->RngClockSelection == RCC_RNGCLKSOURCE_PLLSAI1)
 800300e:	f1b1 6f80 	cmp.w	r1, #67108864	; 0x4000000
 8003012:	d1ab      	bne.n	8002f6c <HAL_RCCEx_PeriphCLKConfig+0x2e8>
      ret = RCCEx_PLLSAI1_Config(&(PeriphClkInit->PLLSAI1), DIVIDER_Q_UPDATE);
 8003014:	2101      	movs	r1, #1
 8003016:	1d20      	adds	r0, r4, #4
 8003018:	f7ff fd28 	bl	8002a6c <RCCEx_PLLSAI1_Config>
      if(ret != HAL_OK)
 800301c:	2800      	cmp	r0, #0
 800301e:	bf18      	it	ne
 8003020:	4605      	movne	r5, r0
 8003022:	e7a3      	b.n	8002f6c <HAL_RCCEx_PeriphCLKConfig+0x2e8>
    else if(PeriphClkInit->AdcClockSelection == RCC_ADCCLKSOURCE_PLLSAI2)
 8003024:	f1b2 5f00 	cmp.w	r2, #536870912	; 0x20000000
 8003028:	d1b6      	bne.n	8002f98 <HAL_RCCEx_PeriphCLKConfig+0x314>
      ret = RCCEx_PLLSAI2_Config(&(PeriphClkInit->PLLSAI2), DIVIDER_R_UPDATE);
 800302a:	2102      	movs	r1, #2
 800302c:	f104 0020 	add.w	r0, r4, #32
 8003030:	f7ff fdaa 	bl	8002b88 <RCCEx_PLLSAI2_Config>
 8003034:	e7ad      	b.n	8002f92 <HAL_RCCEx_PeriphCLKConfig+0x30e>
      __HAL_RCC_PWR_CLK_ENABLE();
 8003036:	6dbb      	ldr	r3, [r7, #88]	; 0x58
 8003038:	f043 5380 	orr.w	r3, r3, #268435456	; 0x10000000
 800303c:	65bb      	str	r3, [r7, #88]	; 0x58
 800303e:	6dbb      	ldr	r3, [r7, #88]	; 0x58
 8003040:	f003 5380 	and.w	r3, r3, #268435456	; 0x10000000
 8003044:	9301      	str	r3, [sp, #4]
 8003046:	9b01      	ldr	r3, [sp, #4]
      pwrclkchanged = SET;
 8003048:	f04f 0801 	mov.w	r8, #1
 800304c:	e67f      	b.n	8002d4e <HAL_RCCEx_PeriphCLKConfig+0xca>
 800304e:	bf00      	nop
 8003050:	40021000 	.word	0x40021000

08003054 <SPI_WaitFifoStateUntilTimeout.part.1>:
        /* Disable the SPI and reset the CRC: the CRC value should be cleared
           on both master and slave sides in order to resynchronize the master
           and slave for their respective CRC calculation */

        /* Disable TXE, RXNE and ERR interrupts for the interrupt process */
        __HAL_SPI_DISABLE_IT(hspi, (SPI_IT_TXE | SPI_IT_RXNE | SPI_IT_ERR));
 8003054:	6803      	ldr	r3, [r0, #0]
 8003056:	685a      	ldr	r2, [r3, #4]
 8003058:	f022 02e0 	bic.w	r2, r2, #224	; 0xe0
 800305c:	605a      	str	r2, [r3, #4]

        if ((hspi->Init.Mode == SPI_MODE_MASTER) && ((hspi->Init.Direction == SPI_DIRECTION_1LINE)
 800305e:	6842      	ldr	r2, [r0, #4]
 8003060:	f5b2 7f82 	cmp.w	r2, #260	; 0x104
 8003064:	d10a      	bne.n	800307c <SPI_WaitFifoStateUntilTimeout.part.1+0x28>
 8003066:	6882      	ldr	r2, [r0, #8]
 8003068:	f5b2 4f00 	cmp.w	r2, #32768	; 0x8000
 800306c:	d002      	beq.n	8003074 <SPI_WaitFifoStateUntilTimeout.part.1+0x20>
                                                     || (hspi->Init.Direction == SPI_DIRECTION_2LINES_RXONLY)))
 800306e:	f5b2 6f80 	cmp.w	r2, #1024	; 0x400
 8003072:	d103      	bne.n	800307c <SPI_WaitFifoStateUntilTimeout.part.1+0x28>
        {
          /* Disable SPI peripheral */
          __HAL_SPI_DISABLE(hspi);
 8003074:	681a      	ldr	r2, [r3, #0]
 8003076:	f022 0240 	bic.w	r2, r2, #64	; 0x40
 800307a:	601a      	str	r2, [r3, #0]
        }

        /* Reset CRC Calculation */
        if (hspi->Init.CRCCalculation == SPI_CRCCALCULATION_ENABLE)
 800307c:	6a82      	ldr	r2, [r0, #40]	; 0x28
 800307e:	f5b2 5f00 	cmp.w	r2, #8192	; 0x2000
 8003082:	d107      	bne.n	8003094 <SPI_WaitFifoStateUntilTimeout.part.1+0x40>
        {
          SPI_RESET_CRC(hspi);
 8003084:	681a      	ldr	r2, [r3, #0]
 8003086:	f422 5200 	bic.w	r2, r2, #8192	; 0x2000
 800308a:	601a      	str	r2, [r3, #0]
 800308c:	681a      	ldr	r2, [r3, #0]
 800308e:	f442 5200 	orr.w	r2, r2, #8192	; 0x2000
 8003092:	601a      	str	r2, [r3, #0]
        }

        hspi->State = HAL_SPI_STATE_READY;
 8003094:	2301      	movs	r3, #1
 8003096:	f880 305d 	strb.w	r3, [r0, #93]	; 0x5d

        /* Process Unlocked */
        __HAL_UNLOCK(hspi);
 800309a:	2300      	movs	r3, #0
 800309c:	f880 305c 	strb.w	r3, [r0, #92]	; 0x5c
      }
    }
  }

  return HAL_OK;
}
 80030a0:	2003      	movs	r0, #3
 80030a2:	4770      	bx	lr

080030a4 <SPI_WaitFlagStateUntilTimeout.constprop.10>:
static HAL_StatusTypeDef SPI_WaitFlagStateUntilTimeout(SPI_HandleTypeDef *hspi, uint32_t Flag, FlagStatus State,
 80030a4:	b570      	push	{r4, r5, r6, lr}
 80030a6:	4604      	mov	r4, r0
 80030a8:	460d      	mov	r5, r1
 80030aa:	4616      	mov	r6, r2
  while ((__HAL_SPI_GET_FLAG(hspi, Flag) ? SET : RESET) != State)
 80030ac:	6823      	ldr	r3, [r4, #0]
 80030ae:	6898      	ldr	r0, [r3, #8]
 80030b0:	f010 0080 	ands.w	r0, r0, #128	; 0x80
 80030b4:	d100      	bne.n	80030b8 <SPI_WaitFlagStateUntilTimeout.constprop.10+0x14>
}
 80030b6:	bd70      	pop	{r4, r5, r6, pc}
    if (Timeout != HAL_MAX_DELAY)
 80030b8:	1c6a      	adds	r2, r5, #1
 80030ba:	d0f8      	beq.n	80030ae <SPI_WaitFlagStateUntilTimeout.constprop.10+0xa>
      if (((HAL_GetTick() - Tickstart) >= Timeout) || (Timeout == 0U))
 80030bc:	f7fe fea6 	bl	8001e0c <HAL_GetTick>
 80030c0:	1b80      	subs	r0, r0, r6
 80030c2:	4285      	cmp	r5, r0
 80030c4:	d8f2      	bhi.n	80030ac <SPI_WaitFlagStateUntilTimeout.constprop.10+0x8>
 80030c6:	4620      	mov	r0, r4
}
 80030c8:	e8bd 4070 	ldmia.w	sp!, {r4, r5, r6, lr}
 80030cc:	f7ff bfc2 	b.w	8003054 <SPI_WaitFifoStateUntilTimeout.part.1>

080030d0 <SPI_WaitFifoStateUntilTimeout.constprop.11>:
static HAL_StatusTypeDef SPI_WaitFifoStateUntilTimeout(SPI_HandleTypeDef *hspi, uint32_t Fifo, uint32_t State,
 80030d0:	b5f8      	push	{r3, r4, r5, r6, r7, lr}
 80030d2:	4605      	mov	r5, r0
 80030d4:	460c      	mov	r4, r1
 80030d6:	4616      	mov	r6, r2
 80030d8:	461f      	mov	r7, r3
  while ((hspi->Instance->SR & Fifo) != State)
 80030da:	6829      	ldr	r1, [r5, #0]
 80030dc:	6888      	ldr	r0, [r1, #8]
 80030de:	4020      	ands	r0, r4
 80030e0:	d100      	bne.n	80030e4 <SPI_WaitFifoStateUntilTimeout.constprop.11+0x14>
}
 80030e2:	bdf8      	pop	{r3, r4, r5, r6, r7, pc}
    if ((Fifo == SPI_SR_FRLVL) && (State == SPI_FRLVL_EMPTY))
 80030e4:	f5b4 6fc0 	cmp.w	r4, #1536	; 0x600
      READ_REG(*((__IO uint8_t *)&hspi->Instance->DR));
 80030e8:	bf08      	it	eq
 80030ea:	7b0b      	ldrbeq	r3, [r1, #12]
    if (Timeout != HAL_MAX_DELAY)
 80030ec:	1c73      	adds	r3, r6, #1
 80030ee:	d0f5      	beq.n	80030dc <SPI_WaitFifoStateUntilTimeout.constprop.11+0xc>
      if (((HAL_GetTick() - Tickstart) >= Timeout) || (Timeout == 0U))
 80030f0:	f7fe fe8c 	bl	8001e0c <HAL_GetTick>
 80030f4:	1bc0      	subs	r0, r0, r7
 80030f6:	4286      	cmp	r6, r0
 80030f8:	d8ef      	bhi.n	80030da <SPI_WaitFifoStateUntilTimeout.constprop.11+0xa>
 80030fa:	4628      	mov	r0, r5
}
 80030fc:	e8bd 40f8 	ldmia.w	sp!, {r3, r4, r5, r6, r7, lr}
 8003100:	f7ff bfa8 	b.w	8003054 <SPI_WaitFifoStateUntilTimeout.part.1>

08003104 <SPI_EndRxTxTransaction>:
  * @param  Timeout Timeout duration
  * @param  Tickstart tick start value
  * @retval HAL status
  */
static HAL_StatusTypeDef SPI_EndRxTxTransaction(SPI_HandleTypeDef *hspi, uint32_t Timeout, uint32_t Tickstart)
{
 8003104:	b570      	push	{r4, r5, r6, lr}
  /* Control if the TX fifo is empty */
  if (SPI_WaitFifoStateUntilTimeout(hspi, SPI_FLAG_FTLVL, SPI_FTLVL_EMPTY, Timeout, Tickstart) != HAL_OK)
 8003106:	4613      	mov	r3, r2
{
 8003108:	460d      	mov	r5, r1
 800310a:	4616      	mov	r6, r2
  if (SPI_WaitFifoStateUntilTimeout(hspi, SPI_FLAG_FTLVL, SPI_FTLVL_EMPTY, Timeout, Tickstart) != HAL_OK)
 800310c:	460a      	mov	r2, r1
 800310e:	f44f 51c0 	mov.w	r1, #6144	; 0x1800
{
 8003112:	4604      	mov	r4, r0
  if (SPI_WaitFifoStateUntilTimeout(hspi, SPI_FLAG_FTLVL, SPI_FTLVL_EMPTY, Timeout, Tickstart) != HAL_OK)
 8003114:	f7ff ffdc 	bl	80030d0 <SPI_WaitFifoStateUntilTimeout.constprop.11>
 8003118:	b128      	cbz	r0, 8003126 <SPI_EndRxTxTransaction+0x22>
      SET_BIT(hspi->ErrorCode, HAL_SPI_ERROR_FLAG);
 800311a:	6e23      	ldr	r3, [r4, #96]	; 0x60
 800311c:	f043 0320 	orr.w	r3, r3, #32
 8003120:	6623      	str	r3, [r4, #96]	; 0x60
      return HAL_TIMEOUT;
 8003122:	2003      	movs	r0, #3
 8003124:	e00f      	b.n	8003146 <SPI_EndRxTxTransaction+0x42>
    SET_BIT(hspi->ErrorCode, HAL_SPI_ERROR_FLAG);
    return HAL_TIMEOUT;
  }

  /* Control the BSY flag */
  if (SPI_WaitFlagStateUntilTimeout(hspi, SPI_FLAG_BSY, RESET, Timeout, Tickstart) != HAL_OK)
 8003126:	4632      	mov	r2, r6
 8003128:	4629      	mov	r1, r5
 800312a:	4620      	mov	r0, r4
 800312c:	f7ff ffba 	bl	80030a4 <SPI_WaitFlagStateUntilTimeout.constprop.10>
 8003130:	2800      	cmp	r0, #0
 8003132:	d1f2      	bne.n	800311a <SPI_EndRxTxTransaction+0x16>
    if (SPI_WaitFifoStateUntilTimeout(hspi, SPI_FLAG_FRLVL, SPI_FRLVL_EMPTY, Timeout, Tickstart) != HAL_OK)
 8003134:	4633      	mov	r3, r6
 8003136:	462a      	mov	r2, r5
 8003138:	f44f 61c0 	mov.w	r1, #1536	; 0x600
 800313c:	4620      	mov	r0, r4
 800313e:	f7ff ffc7 	bl	80030d0 <SPI_WaitFifoStateUntilTimeout.constprop.11>
 8003142:	2800      	cmp	r0, #0
 8003144:	d1e9      	bne.n	800311a <SPI_EndRxTxTransaction+0x16>
    SET_BIT(hspi->ErrorCode, HAL_SPI_ERROR_FLAG);
    return HAL_TIMEOUT;
  }

  return HAL_OK;
}
 8003146:	bd70      	pop	{r4, r5, r6, pc}

08003148 <HAL_SPI_MspInit>:
 8003148:	4770      	bx	lr

0800314a <HAL_SPI_Init>:
{
 800314a:	b570      	push	{r4, r5, r6, lr}
  if (hspi == NULL)
 800314c:	4604      	mov	r4, r0
 800314e:	2800      	cmp	r0, #0
 8003150:	d04a      	beq.n	80031e8 <HAL_SPI_Init+0x9e>
  hspi->Init.CRCCalculation = SPI_CRCCALCULATION_DISABLE;
 8003152:	2300      	movs	r3, #0
 8003154:	6283      	str	r3, [r0, #40]	; 0x28
  if (hspi->State == HAL_SPI_STATE_RESET)
 8003156:	f890 305d 	ldrb.w	r3, [r0, #93]	; 0x5d
 800315a:	f003 02ff 	and.w	r2, r3, #255	; 0xff
 800315e:	b91b      	cbnz	r3, 8003168 <HAL_SPI_Init+0x1e>
    hspi->Lock = HAL_UNLOCKED;
 8003160:	f880 205c 	strb.w	r2, [r0, #92]	; 0x5c
    HAL_SPI_MspInit(hspi);
 8003164:	f7ff fff0 	bl	8003148 <HAL_SPI_MspInit>
  hspi->State = HAL_SPI_STATE_BUSY;
 8003168:	2302      	movs	r3, #2
  __HAL_SPI_DISABLE(hspi);
 800316a:	6821      	ldr	r1, [r4, #0]
  hspi->State = HAL_SPI_STATE_BUSY;
 800316c:	f884 305d 	strb.w	r3, [r4, #93]	; 0x5d
  __HAL_SPI_DISABLE(hspi);
 8003170:	680b      	ldr	r3, [r1, #0]
  if (hspi->Init.DataSize > SPI_DATASIZE_8BIT)
 8003172:	68e2      	ldr	r2, [r4, #12]
  __HAL_SPI_DISABLE(hspi);
 8003174:	f023 0340 	bic.w	r3, r3, #64	; 0x40
  if (hspi->Init.DataSize > SPI_DATASIZE_8BIT)
 8003178:	f5b2 6fe0 	cmp.w	r2, #1792	; 0x700
  __HAL_SPI_DISABLE(hspi);
 800317c:	600b      	str	r3, [r1, #0]
 800317e:	f04f 0300 	mov.w	r3, #0
  if (hspi->Init.DataSize > SPI_DATASIZE_8BIT)
 8003182:	d92e      	bls.n	80031e2 <HAL_SPI_Init+0x98>
    frxth = SPI_RXFIFO_THRESHOLD_HF;
 8003184:	4618      	mov	r0, r3
  if ((hspi->Init.DataSize != SPI_DATASIZE_16BIT) && (hspi->Init.DataSize != SPI_DATASIZE_8BIT))
 8003186:	f5b2 6f70 	cmp.w	r2, #3840	; 0xf00
    hspi->Init.CRCCalculation = SPI_CRCCALCULATION_DISABLE;
 800318a:	bf18      	it	ne
 800318c:	62a3      	strne	r3, [r4, #40]	; 0x28
  if (hspi->Init.CRCLength == SPI_CRC_LENGTH_DATASIZE)
 800318e:	6b23      	ldr	r3, [r4, #48]	; 0x30
 8003190:	b92b      	cbnz	r3, 800319e <HAL_SPI_Init+0x54>
    if (hspi->Init.DataSize > SPI_DATASIZE_8BIT)
 8003192:	f5b2 6fe0 	cmp.w	r2, #1792	; 0x700
      hspi->Init.CRCLength = SPI_CRC_LENGTH_16BIT;
 8003196:	bf8c      	ite	hi
 8003198:	2302      	movhi	r3, #2
      hspi->Init.CRCLength = SPI_CRC_LENGTH_8BIT;
 800319a:	2301      	movls	r3, #1
 800319c:	6323      	str	r3, [r4, #48]	; 0x30
  WRITE_REG(hspi->Instance->CR1, (hspi->Init.Mode | hspi->Init.Direction |
 800319e:	68a6      	ldr	r6, [r4, #8]
 80031a0:	6863      	ldr	r3, [r4, #4]
 80031a2:	69a5      	ldr	r5, [r4, #24]
 80031a4:	4333      	orrs	r3, r6
 80031a6:	6926      	ldr	r6, [r4, #16]
 80031a8:	4333      	orrs	r3, r6
 80031aa:	6966      	ldr	r6, [r4, #20]
 80031ac:	4333      	orrs	r3, r6
 80031ae:	69e6      	ldr	r6, [r4, #28]
 80031b0:	4333      	orrs	r3, r6
 80031b2:	6a26      	ldr	r6, [r4, #32]
 80031b4:	4333      	orrs	r3, r6
 80031b6:	6aa6      	ldr	r6, [r4, #40]	; 0x28
 80031b8:	4333      	orrs	r3, r6
 80031ba:	f405 7600 	and.w	r6, r5, #512	; 0x200
 80031be:	4333      	orrs	r3, r6
 80031c0:	600b      	str	r3, [r1, #0]
  WRITE_REG(hspi->Instance->CR2, (((hspi->Init.NSS >> 16U) & SPI_CR2_SSOE) | hspi->Init.TIMode |
 80031c2:	6a63      	ldr	r3, [r4, #36]	; 0x24
 80031c4:	431a      	orrs	r2, r3
 80031c6:	6b63      	ldr	r3, [r4, #52]	; 0x34
 80031c8:	0c2d      	lsrs	r5, r5, #16
 80031ca:	431a      	orrs	r2, r3
 80031cc:	f005 0504 	and.w	r5, r5, #4
 80031d0:	432a      	orrs	r2, r5
 80031d2:	4302      	orrs	r2, r0
  hspi->State     = HAL_SPI_STATE_READY;
 80031d4:	2301      	movs	r3, #1
  hspi->ErrorCode = HAL_SPI_ERROR_NONE;
 80031d6:	2000      	movs	r0, #0
  WRITE_REG(hspi->Instance->CR2, (((hspi->Init.NSS >> 16U) & SPI_CR2_SSOE) | hspi->Init.TIMode |
 80031d8:	604a      	str	r2, [r1, #4]
  hspi->ErrorCode = HAL_SPI_ERROR_NONE;
 80031da:	6620      	str	r0, [r4, #96]	; 0x60
  hspi->State     = HAL_SPI_STATE_READY;
 80031dc:	f884 305d 	strb.w	r3, [r4, #93]	; 0x5d
  return HAL_OK;
 80031e0:	bd70      	pop	{r4, r5, r6, pc}
    frxth = SPI_RXFIFO_THRESHOLD_QF;
 80031e2:	f44f 5080 	mov.w	r0, #4096	; 0x1000
 80031e6:	e7d0      	b.n	800318a <HAL_SPI_Init+0x40>
    return HAL_ERROR;
 80031e8:	2001      	movs	r0, #1
}
 80031ea:	bd70      	pop	{r4, r5, r6, pc}

080031ec <HAL_SPI_TransmitReceive>:
{
 80031ec:	e92d 43f8 	stmdb	sp!, {r3, r4, r5, r6, r7, r8, r9, lr}
 80031f0:	461e      	mov	r6, r3
  __HAL_LOCK(hspi);
 80031f2:	f890 305c 	ldrb.w	r3, [r0, #92]	; 0x5c
{
 80031f6:	9f08      	ldr	r7, [sp, #32]
  __HAL_LOCK(hspi);
 80031f8:	2b01      	cmp	r3, #1
{
 80031fa:	4604      	mov	r4, r0
 80031fc:	460d      	mov	r5, r1
 80031fe:	4691      	mov	r9, r2
  __HAL_LOCK(hspi);
 8003200:	f000 8115 	beq.w	800342e <HAL_SPI_TransmitReceive+0x242>
 8003204:	2301      	movs	r3, #1
 8003206:	f880 305c 	strb.w	r3, [r0, #92]	; 0x5c
  tickstart = HAL_GetTick();
 800320a:	f7fe fdff 	bl	8001e0c <HAL_GetTick>
  tmp_state           = hspi->State;
 800320e:	f894 305d 	ldrb.w	r3, [r4, #93]	; 0x5d
  tmp_mode            = hspi->Init.Mode;
 8003212:	6861      	ldr	r1, [r4, #4]
  tmp_state           = hspi->State;
 8003214:	b2db      	uxtb	r3, r3
  if (!((tmp_state == HAL_SPI_STATE_READY) || \
 8003216:	2b01      	cmp	r3, #1
  tickstart = HAL_GetTick();
 8003218:	4680      	mov	r8, r0
  if (!((tmp_state == HAL_SPI_STATE_READY) || \
 800321a:	d00a      	beq.n	8003232 <HAL_SPI_TransmitReceive+0x46>
 800321c:	f5b1 7f82 	cmp.w	r1, #260	; 0x104
 8003220:	f040 8103 	bne.w	800342a <HAL_SPI_TransmitReceive+0x23e>
        ((tmp_mode == SPI_MODE_MASTER) && (hspi->Init.Direction == SPI_DIRECTION_2LINES) && (tmp_state == HAL_SPI_STATE_BUSY_RX))))
 8003224:	68a0      	ldr	r0, [r4, #8]
 8003226:	2800      	cmp	r0, #0
 8003228:	f040 80ff 	bne.w	800342a <HAL_SPI_TransmitReceive+0x23e>
 800322c:	2b04      	cmp	r3, #4
 800322e:	f040 80fc 	bne.w	800342a <HAL_SPI_TransmitReceive+0x23e>
  if ((pTxData == NULL) || (pRxData == NULL) || (Size == 0U))
 8003232:	2d00      	cmp	r5, #0
 8003234:	d049      	beq.n	80032ca <HAL_SPI_TransmitReceive+0xde>
 8003236:	f1b9 0f00 	cmp.w	r9, #0
 800323a:	d046      	beq.n	80032ca <HAL_SPI_TransmitReceive+0xde>
 800323c:	2e00      	cmp	r6, #0
 800323e:	d044      	beq.n	80032ca <HAL_SPI_TransmitReceive+0xde>
  if (hspi->State != HAL_SPI_STATE_BUSY_RX)
 8003240:	f894 305d 	ldrb.w	r3, [r4, #93]	; 0x5d
  if ((hspi->Init.DataSize > SPI_DATASIZE_8BIT) || (initial_RxXferCount > 1U))
 8003244:	68e2      	ldr	r2, [r4, #12]
 8003246:	6820      	ldr	r0, [r4, #0]
  hspi->pRxBuffPtr  = (uint8_t *)pRxData;
 8003248:	f8c4 9040 	str.w	r9, [r4, #64]	; 0x40
  if (hspi->State != HAL_SPI_STATE_BUSY_RX)
 800324c:	2b04      	cmp	r3, #4
    hspi->State = HAL_SPI_STATE_BUSY_TX_RX;
 800324e:	bf1c      	itt	ne
 8003250:	2305      	movne	r3, #5
 8003252:	f884 305d 	strbne.w	r3, [r4, #93]	; 0x5d
  hspi->ErrorCode   = HAL_SPI_ERROR_NONE;
 8003256:	2300      	movs	r3, #0
 8003258:	6623      	str	r3, [r4, #96]	; 0x60
  if ((hspi->Init.DataSize > SPI_DATASIZE_8BIT) || (initial_RxXferCount > 1U))
 800325a:	f5b2 6fe0 	cmp.w	r2, #1792	; 0x700
  hspi->RxXferCount = Size;
 800325e:	f8a4 6046 	strh.w	r6, [r4, #70]	; 0x46
  hspi->TxXferCount = Size;
 8003262:	87e6      	strh	r6, [r4, #62]	; 0x3e
  hspi->RxISR       = NULL;
 8003264:	64e3      	str	r3, [r4, #76]	; 0x4c
  hspi->TxISR       = NULL;
 8003266:	6523      	str	r3, [r4, #80]	; 0x50
  hspi->RxXferSize  = Size;
 8003268:	f8a4 6044 	strh.w	r6, [r4, #68]	; 0x44
  hspi->pTxBuffPtr  = (uint8_t *)pTxData;
 800326c:	63a5      	str	r5, [r4, #56]	; 0x38
  hspi->TxXferSize  = Size;
 800326e:	87a6      	strh	r6, [r4, #60]	; 0x3c
    CLEAR_BIT(hspi->Instance->CR2, SPI_RXFIFO_THRESHOLD);
 8003270:	6843      	ldr	r3, [r0, #4]
  if ((hspi->Init.DataSize > SPI_DATASIZE_8BIT) || (initial_RxXferCount > 1U))
 8003272:	d801      	bhi.n	8003278 <HAL_SPI_TransmitReceive+0x8c>
 8003274:	2e01      	cmp	r6, #1
 8003276:	d92a      	bls.n	80032ce <HAL_SPI_TransmitReceive+0xe2>
    CLEAR_BIT(hspi->Instance->CR2, SPI_RXFIFO_THRESHOLD);
 8003278:	f423 5380 	bic.w	r3, r3, #4096	; 0x1000
    SET_BIT(hspi->Instance->CR2, SPI_RXFIFO_THRESHOLD);
 800327c:	6043      	str	r3, [r0, #4]
  if ((hspi->Instance->CR1 & SPI_CR1_SPE) != SPI_CR1_SPE)
 800327e:	6803      	ldr	r3, [r0, #0]
 8003280:	065b      	lsls	r3, r3, #25
    __HAL_SPI_ENABLE(hspi);
 8003282:	bf5e      	ittt	pl
 8003284:	6803      	ldrpl	r3, [r0, #0]
 8003286:	f043 0340 	orrpl.w	r3, r3, #64	; 0x40
 800328a:	6003      	strpl	r3, [r0, #0]
  if (hspi->Init.DataSize > SPI_DATASIZE_8BIT)
 800328c:	f5b2 6fe0 	cmp.w	r2, #1792	; 0x700
 8003290:	d956      	bls.n	8003340 <HAL_SPI_TransmitReceive+0x154>
    if ((hspi->Init.Mode == SPI_MODE_SLAVE) || (initial_TxXferCount == 0x01U))
 8003292:	b109      	cbz	r1, 8003298 <HAL_SPI_TransmitReceive+0xac>
 8003294:	2e01      	cmp	r6, #1
 8003296:	d107      	bne.n	80032a8 <HAL_SPI_TransmitReceive+0xbc>
      hspi->Instance->DR = *((uint16_t *)hspi->pTxBuffPtr);
 8003298:	f835 3b02 	ldrh.w	r3, [r5], #2
 800329c:	60c3      	str	r3, [r0, #12]
      hspi->TxXferCount--;
 800329e:	8fe3      	ldrh	r3, [r4, #62]	; 0x3e
      hspi->pTxBuffPtr += sizeof(uint16_t);
 80032a0:	63a5      	str	r5, [r4, #56]	; 0x38
      hspi->TxXferCount--;
 80032a2:	3b01      	subs	r3, #1
 80032a4:	b29b      	uxth	r3, r3
 80032a6:	87e3      	strh	r3, [r4, #62]	; 0x3e
        txallowed = 1U;
 80032a8:	2501      	movs	r5, #1
    while ((hspi->TxXferCount > 0U) || (hspi->RxXferCount > 0U))
 80032aa:	8fe3      	ldrh	r3, [r4, #62]	; 0x3e
 80032ac:	b29b      	uxth	r3, r3
 80032ae:	b98b      	cbnz	r3, 80032d4 <HAL_SPI_TransmitReceive+0xe8>
 80032b0:	f8b4 3046 	ldrh.w	r3, [r4, #70]	; 0x46
 80032b4:	b29b      	uxth	r3, r3
 80032b6:	b96b      	cbnz	r3, 80032d4 <HAL_SPI_TransmitReceive+0xe8>
  if (SPI_EndRxTxTransaction(hspi, Timeout, tickstart) != HAL_OK)
 80032b8:	4642      	mov	r2, r8
 80032ba:	4639      	mov	r1, r7
 80032bc:	4620      	mov	r0, r4
 80032be:	f7ff ff21 	bl	8003104 <SPI_EndRxTxTransaction>
 80032c2:	2800      	cmp	r0, #0
 80032c4:	d034      	beq.n	8003330 <HAL_SPI_TransmitReceive+0x144>
    hspi->ErrorCode = HAL_SPI_ERROR_FLAG;
 80032c6:	2320      	movs	r3, #32
 80032c8:	6623      	str	r3, [r4, #96]	; 0x60
    errorcode = HAL_ERROR;
 80032ca:	2001      	movs	r0, #1
 80032cc:	e030      	b.n	8003330 <HAL_SPI_TransmitReceive+0x144>
    SET_BIT(hspi->Instance->CR2, SPI_RXFIFO_THRESHOLD);
 80032ce:	f443 5380 	orr.w	r3, r3, #4096	; 0x1000
 80032d2:	e7d3      	b.n	800327c <HAL_SPI_TransmitReceive+0x90>
      if ((__HAL_SPI_GET_FLAG(hspi, SPI_FLAG_TXE)) && (hspi->TxXferCount > 0U) && (txallowed == 1U))
 80032d4:	6822      	ldr	r2, [r4, #0]
 80032d6:	6893      	ldr	r3, [r2, #8]
 80032d8:	0799      	lsls	r1, r3, #30
 80032da:	d50d      	bpl.n	80032f8 <HAL_SPI_TransmitReceive+0x10c>
 80032dc:	8fe3      	ldrh	r3, [r4, #62]	; 0x3e
 80032de:	b29b      	uxth	r3, r3
 80032e0:	b153      	cbz	r3, 80032f8 <HAL_SPI_TransmitReceive+0x10c>
 80032e2:	b14d      	cbz	r5, 80032f8 <HAL_SPI_TransmitReceive+0x10c>
        hspi->Instance->DR = *((uint16_t *)hspi->pTxBuffPtr);
 80032e4:	6ba3      	ldr	r3, [r4, #56]	; 0x38
 80032e6:	f833 1b02 	ldrh.w	r1, [r3], #2
 80032ea:	60d1      	str	r1, [r2, #12]
        hspi->pTxBuffPtr += sizeof(uint16_t);
 80032ec:	63a3      	str	r3, [r4, #56]	; 0x38
        hspi->TxXferCount--;
 80032ee:	8fe3      	ldrh	r3, [r4, #62]	; 0x3e
 80032f0:	3b01      	subs	r3, #1
 80032f2:	b29b      	uxth	r3, r3
 80032f4:	87e3      	strh	r3, [r4, #62]	; 0x3e
        txallowed = 0U;
 80032f6:	2500      	movs	r5, #0
      if ((__HAL_SPI_GET_FLAG(hspi, SPI_FLAG_RXNE)) && (hspi->RxXferCount > 0U))
 80032f8:	6893      	ldr	r3, [r2, #8]
 80032fa:	07db      	lsls	r3, r3, #31
 80032fc:	d50f      	bpl.n	800331e <HAL_SPI_TransmitReceive+0x132>
 80032fe:	f8b4 3046 	ldrh.w	r3, [r4, #70]	; 0x46
 8003302:	b29b      	uxth	r3, r3
 8003304:	b15b      	cbz	r3, 800331e <HAL_SPI_TransmitReceive+0x132>
        *((uint16_t *)hspi->pRxBuffPtr) = (uint16_t)hspi->Instance->DR;
 8003306:	6c23      	ldr	r3, [r4, #64]	; 0x40
 8003308:	68d2      	ldr	r2, [r2, #12]
 800330a:	f823 2b02 	strh.w	r2, [r3], #2
        hspi->pRxBuffPtr += sizeof(uint16_t);
 800330e:	6423      	str	r3, [r4, #64]	; 0x40
        hspi->RxXferCount--;
 8003310:	f8b4 3046 	ldrh.w	r3, [r4, #70]	; 0x46
 8003314:	3b01      	subs	r3, #1
 8003316:	b29b      	uxth	r3, r3
 8003318:	f8a4 3046 	strh.w	r3, [r4, #70]	; 0x46
        txallowed = 1U;
 800331c:	2501      	movs	r5, #1
      if (((HAL_GetTick() - tickstart) >=  Timeout) && (Timeout != HAL_MAX_DELAY))
 800331e:	f7fe fd75 	bl	8001e0c <HAL_GetTick>
 8003322:	eba0 0008 	sub.w	r0, r0, r8
 8003326:	4287      	cmp	r7, r0
 8003328:	d8bf      	bhi.n	80032aa <HAL_SPI_TransmitReceive+0xbe>
 800332a:	1c7e      	adds	r6, r7, #1
 800332c:	d0bd      	beq.n	80032aa <HAL_SPI_TransmitReceive+0xbe>
        errorcode = HAL_TIMEOUT;
 800332e:	2003      	movs	r0, #3
  hspi->State = HAL_SPI_STATE_READY;
 8003330:	2301      	movs	r3, #1
 8003332:	f884 305d 	strb.w	r3, [r4, #93]	; 0x5d
  __HAL_UNLOCK(hspi);
 8003336:	2300      	movs	r3, #0
 8003338:	f884 305c 	strb.w	r3, [r4, #92]	; 0x5c
 800333c:	e8bd 83f8 	ldmia.w	sp!, {r3, r4, r5, r6, r7, r8, r9, pc}
    if ((hspi->Init.Mode == SPI_MODE_SLAVE) || (initial_TxXferCount == 0x01U))
 8003340:	b109      	cbz	r1, 8003346 <HAL_SPI_TransmitReceive+0x15a>
 8003342:	2e01      	cmp	r6, #1
 8003344:	d10b      	bne.n	800335e <HAL_SPI_TransmitReceive+0x172>
      if (hspi->TxXferCount > 1U)
 8003346:	8fe3      	ldrh	r3, [r4, #62]	; 0x3e
 8003348:	b29b      	uxth	r3, r3
 800334a:	2b01      	cmp	r3, #1
 800334c:	d951      	bls.n	80033f2 <HAL_SPI_TransmitReceive+0x206>
        hspi->Instance->DR = *((uint16_t *)hspi->pTxBuffPtr);
 800334e:	f835 3b02 	ldrh.w	r3, [r5], #2
 8003352:	60c3      	str	r3, [r0, #12]
        hspi->TxXferCount -= 2U;
 8003354:	8fe3      	ldrh	r3, [r4, #62]	; 0x3e
        hspi->pTxBuffPtr += sizeof(uint16_t);
 8003356:	63a5      	str	r5, [r4, #56]	; 0x38
        hspi->TxXferCount -= 2U;
 8003358:	3b02      	subs	r3, #2
        hspi->TxXferCount--;
 800335a:	b29b      	uxth	r3, r3
 800335c:	87e3      	strh	r3, [r4, #62]	; 0x3e
        txallowed = 1U;
 800335e:	2501      	movs	r5, #1
    while ((hspi->TxXferCount > 0U) || (hspi->RxXferCount > 0U))
 8003360:	8fe3      	ldrh	r3, [r4, #62]	; 0x3e
 8003362:	b29b      	uxth	r3, r3
 8003364:	b923      	cbnz	r3, 8003370 <HAL_SPI_TransmitReceive+0x184>
 8003366:	f8b4 3046 	ldrh.w	r3, [r4, #70]	; 0x46
 800336a:	b29b      	uxth	r3, r3
 800336c:	2b00      	cmp	r3, #0
 800336e:	d0a3      	beq.n	80032b8 <HAL_SPI_TransmitReceive+0xcc>
      if ((__HAL_SPI_GET_FLAG(hspi, SPI_FLAG_TXE)) && (hspi->TxXferCount > 0U) && (txallowed == 1U))
 8003370:	6822      	ldr	r2, [r4, #0]
 8003372:	6893      	ldr	r3, [r2, #8]
 8003374:	0798      	lsls	r0, r3, #30
 8003376:	d511      	bpl.n	800339c <HAL_SPI_TransmitReceive+0x1b0>
 8003378:	8fe3      	ldrh	r3, [r4, #62]	; 0x3e
 800337a:	b29b      	uxth	r3, r3
 800337c:	b173      	cbz	r3, 800339c <HAL_SPI_TransmitReceive+0x1b0>
 800337e:	b16d      	cbz	r5, 800339c <HAL_SPI_TransmitReceive+0x1b0>
        if (hspi->TxXferCount > 1U)
 8003380:	8fe3      	ldrh	r3, [r4, #62]	; 0x3e
 8003382:	b29b      	uxth	r3, r3
 8003384:	2b01      	cmp	r3, #1
 8003386:	6ba3      	ldr	r3, [r4, #56]	; 0x38
 8003388:	d93b      	bls.n	8003402 <HAL_SPI_TransmitReceive+0x216>
          hspi->Instance->DR = *((uint16_t *)hspi->pTxBuffPtr);
 800338a:	f833 1b02 	ldrh.w	r1, [r3], #2
 800338e:	60d1      	str	r1, [r2, #12]
          hspi->pTxBuffPtr += sizeof(uint16_t);
 8003390:	63a3      	str	r3, [r4, #56]	; 0x38
          hspi->TxXferCount -= 2U;
 8003392:	8fe3      	ldrh	r3, [r4, #62]	; 0x3e
 8003394:	3b02      	subs	r3, #2
          hspi->TxXferCount--;
 8003396:	b29b      	uxth	r3, r3
 8003398:	87e3      	strh	r3, [r4, #62]	; 0x3e
        txallowed = 0U;
 800339a:	2500      	movs	r5, #0
      if ((__HAL_SPI_GET_FLAG(hspi, SPI_FLAG_RXNE)) && (hspi->RxXferCount > 0U))
 800339c:	6822      	ldr	r2, [r4, #0]
 800339e:	6893      	ldr	r3, [r2, #8]
 80033a0:	07d9      	lsls	r1, r3, #31
 80033a2:	d51d      	bpl.n	80033e0 <HAL_SPI_TransmitReceive+0x1f4>
 80033a4:	f8b4 3046 	ldrh.w	r3, [r4, #70]	; 0x46
 80033a8:	b29b      	uxth	r3, r3
 80033aa:	b1cb      	cbz	r3, 80033e0 <HAL_SPI_TransmitReceive+0x1f4>
        if (hspi->RxXferCount > 1U)
 80033ac:	f8b4 3046 	ldrh.w	r3, [r4, #70]	; 0x46
 80033b0:	b29b      	uxth	r3, r3
 80033b2:	2b01      	cmp	r3, #1
 80033b4:	6c23      	ldr	r3, [r4, #64]	; 0x40
 80033b6:	d92c      	bls.n	8003412 <HAL_SPI_TransmitReceive+0x226>
          *((uint16_t *)hspi->pRxBuffPtr) = (uint16_t)hspi->Instance->DR;
 80033b8:	68d1      	ldr	r1, [r2, #12]
 80033ba:	f823 1b02 	strh.w	r1, [r3], #2
          hspi->pRxBuffPtr += sizeof(uint16_t);
 80033be:	6423      	str	r3, [r4, #64]	; 0x40
          hspi->RxXferCount -= 2U;
 80033c0:	f8b4 3046 	ldrh.w	r3, [r4, #70]	; 0x46
 80033c4:	3b02      	subs	r3, #2
 80033c6:	b29b      	uxth	r3, r3
 80033c8:	f8a4 3046 	strh.w	r3, [r4, #70]	; 0x46
          if (hspi->RxXferCount <= 1U)
 80033cc:	f8b4 3046 	ldrh.w	r3, [r4, #70]	; 0x46
 80033d0:	b29b      	uxth	r3, r3
 80033d2:	2b01      	cmp	r3, #1
 80033d4:	d803      	bhi.n	80033de <HAL_SPI_TransmitReceive+0x1f2>
            SET_BIT(hspi->Instance->CR2, SPI_RXFIFO_THRESHOLD);
 80033d6:	6853      	ldr	r3, [r2, #4]
 80033d8:	f443 5380 	orr.w	r3, r3, #4096	; 0x1000
 80033dc:	6053      	str	r3, [r2, #4]
        txallowed = 1U;
 80033de:	2501      	movs	r5, #1
      if ((((HAL_GetTick() - tickstart) >=  Timeout) && ((Timeout != HAL_MAX_DELAY))) || (Timeout == 0U))
 80033e0:	f7fe fd14 	bl	8001e0c <HAL_GetTick>
 80033e4:	eba0 0008 	sub.w	r0, r0, r8
 80033e8:	4287      	cmp	r7, r0
 80033ea:	d8b9      	bhi.n	8003360 <HAL_SPI_TransmitReceive+0x174>
 80033ec:	1c7b      	adds	r3, r7, #1
 80033ee:	d0b7      	beq.n	8003360 <HAL_SPI_TransmitReceive+0x174>
 80033f0:	e79d      	b.n	800332e <HAL_SPI_TransmitReceive+0x142>
        *(__IO uint8_t *)&hspi->Instance->DR = (*hspi->pTxBuffPtr);
 80033f2:	782b      	ldrb	r3, [r5, #0]
 80033f4:	7303      	strb	r3, [r0, #12]
        hspi->pTxBuffPtr++;
 80033f6:	6ba3      	ldr	r3, [r4, #56]	; 0x38
 80033f8:	3301      	adds	r3, #1
 80033fa:	63a3      	str	r3, [r4, #56]	; 0x38
        hspi->TxXferCount--;
 80033fc:	8fe3      	ldrh	r3, [r4, #62]	; 0x3e
 80033fe:	3b01      	subs	r3, #1
 8003400:	e7ab      	b.n	800335a <HAL_SPI_TransmitReceive+0x16e>
          *(__IO uint8_t *)&hspi->Instance->DR = (*hspi->pTxBuffPtr);
 8003402:	781b      	ldrb	r3, [r3, #0]
 8003404:	7313      	strb	r3, [r2, #12]
          hspi->pTxBuffPtr++;
 8003406:	6ba3      	ldr	r3, [r4, #56]	; 0x38
 8003408:	3301      	adds	r3, #1
 800340a:	63a3      	str	r3, [r4, #56]	; 0x38
          hspi->TxXferCount--;
 800340c:	8fe3      	ldrh	r3, [r4, #62]	; 0x3e
 800340e:	3b01      	subs	r3, #1
 8003410:	e7c1      	b.n	8003396 <HAL_SPI_TransmitReceive+0x1aa>
          (*(uint8_t *)hspi->pRxBuffPtr) = *(__IO uint8_t *)&hspi->Instance->DR;
 8003412:	7b12      	ldrb	r2, [r2, #12]
 8003414:	701a      	strb	r2, [r3, #0]
          hspi->pRxBuffPtr++;
 8003416:	6c23      	ldr	r3, [r4, #64]	; 0x40
 8003418:	3301      	adds	r3, #1
 800341a:	6423      	str	r3, [r4, #64]	; 0x40
          hspi->RxXferCount--;
 800341c:	f8b4 3046 	ldrh.w	r3, [r4, #70]	; 0x46
 8003420:	3b01      	subs	r3, #1
 8003422:	b29b      	uxth	r3, r3
 8003424:	f8a4 3046 	strh.w	r3, [r4, #70]	; 0x46
 8003428:	e7d9      	b.n	80033de <HAL_SPI_TransmitReceive+0x1f2>
    errorcode = HAL_BUSY;
 800342a:	2002      	movs	r0, #2
 800342c:	e780      	b.n	8003330 <HAL_SPI_TransmitReceive+0x144>
  __HAL_LOCK(hspi);
 800342e:	2002      	movs	r0, #2
}
 8003430:	e8bd 83f8 	ldmia.w	sp!, {r3, r4, r5, r6, r7, r8, r9, pc}

08003434 <HAL_SPI_GetState>:
  return hspi->State;
 8003434:	f890 005d 	ldrb.w	r0, [r0, #93]	; 0x5d
}
 8003438:	4770      	bx	lr

0800343a <HAL_TIM_Base_MspInit>:
 800343a:	4770      	bx	lr

0800343c <HAL_TIM_Base_Start_IT>:

  /* Check the parameters */
  assert_param(IS_TIM_INSTANCE(htim->Instance));

  /* Enable the TIM Update interrupt */
  __HAL_TIM_ENABLE_IT(htim, TIM_IT_UPDATE);
 800343c:	6803      	ldr	r3, [r0, #0]
 800343e:	68da      	ldr	r2, [r3, #12]
 8003440:	f042 0201 	orr.w	r2, r2, #1
 8003444:	60da      	str	r2, [r3, #12]

  /* Enable the Peripheral, except in trigger mode where enable is automatically done with trigger */
  tmpsmcr = htim->Instance->SMCR & TIM_SMCR_SMS;
 8003446:	6899      	ldr	r1, [r3, #8]
 8003448:	4a06      	ldr	r2, [pc, #24]	; (8003464 <HAL_TIM_Base_Start_IT+0x28>)
 800344a:	400a      	ands	r2, r1
  if (!IS_TIM_SLAVEMODE_TRIGGER_ENABLED(tmpsmcr))
 800344c:	2a06      	cmp	r2, #6
 800344e:	d006      	beq.n	800345e <HAL_TIM_Base_Start_IT+0x22>
 8003450:	f5b2 3f80 	cmp.w	r2, #65536	; 0x10000
  {
    __HAL_TIM_ENABLE(htim);
 8003454:	bf1e      	ittt	ne
 8003456:	681a      	ldrne	r2, [r3, #0]
 8003458:	f042 0201 	orrne.w	r2, r2, #1
 800345c:	601a      	strne	r2, [r3, #0]
  }

  /* Return function status */
  return HAL_OK;
}
 800345e:	2000      	movs	r0, #0
 8003460:	4770      	bx	lr
 8003462:	bf00      	nop
 8003464:	00010007 	.word	0x00010007

08003468 <HAL_TIM_OC_DelayElapsedCallback>:
 8003468:	4770      	bx	lr

0800346a <HAL_TIM_IC_CaptureCallback>:
 800346a:	4770      	bx	lr

0800346c <HAL_TIM_PWM_PulseFinishedCallback>:
 800346c:	4770      	bx	lr

0800346e <HAL_TIM_TriggerCallback>:
 800346e:	4770      	bx	lr

08003470 <HAL_TIM_IRQHandler>:
  * @retval None
  */
void HAL_TIM_IRQHandler(TIM_HandleTypeDef *htim)
{
  /* Capture compare 1 event */
  if (__HAL_TIM_GET_FLAG(htim, TIM_FLAG_CC1) != RESET)
 8003470:	6803      	ldr	r3, [r0, #0]
 8003472:	691a      	ldr	r2, [r3, #16]
 8003474:	0791      	lsls	r1, r2, #30
{
 8003476:	b510      	push	{r4, lr}
 8003478:	4604      	mov	r4, r0
  if (__HAL_TIM_GET_FLAG(htim, TIM_FLAG_CC1) != RESET)
 800347a:	d50f      	bpl.n	800349c <HAL_TIM_IRQHandler+0x2c>
  {
    if (__HAL_TIM_GET_IT_SOURCE(htim, TIM_IT_CC1) != RESET)
 800347c:	68da      	ldr	r2, [r3, #12]
 800347e:	0792      	lsls	r2, r2, #30
 8003480:	d50c      	bpl.n	800349c <HAL_TIM_IRQHandler+0x2c>
    {
      {
        __HAL_TIM_CLEAR_IT(htim, TIM_IT_CC1);
 8003482:	f06f 0202 	mvn.w	r2, #2
 8003486:	611a      	str	r2, [r3, #16]
        htim->Channel = HAL_TIM_ACTIVE_CHANNEL_1;

        /* Input capture event */
        if ((htim->Instance->CCMR1 & TIM_CCMR1_CC1S) != 0x00U)
 8003488:	699b      	ldr	r3, [r3, #24]
        htim->Channel = HAL_TIM_ACTIVE_CHANNEL_1;
 800348a:	2201      	movs	r2, #1
        if ((htim->Instance->CCMR1 & TIM_CCMR1_CC1S) != 0x00U)
 800348c:	0799      	lsls	r1, r3, #30
        htim->Channel = HAL_TIM_ACTIVE_CHANNEL_1;
 800348e:	7702      	strb	r2, [r0, #28]
        if ((htim->Instance->CCMR1 & TIM_CCMR1_CC1S) != 0x00U)
 8003490:	f000 8085 	beq.w	800359e <HAL_TIM_IRQHandler+0x12e>
        {
#if (USE_HAL_TIM_REGISTER_CALLBACKS == 1)
          htim->IC_CaptureCallback(htim);
#else
          HAL_TIM_IC_CaptureCallback(htim);
 8003494:	f7ff ffe9 	bl	800346a <HAL_TIM_IC_CaptureCallback>
#else
          HAL_TIM_OC_DelayElapsedCallback(htim);
          HAL_TIM_PWM_PulseFinishedCallback(htim);
#endif /* USE_HAL_TIM_REGISTER_CALLBACKS */
        }
        htim->Channel = HAL_TIM_ACTIVE_CHANNEL_CLEARED;
 8003498:	2300      	movs	r3, #0
 800349a:	7723      	strb	r3, [r4, #28]
      }
    }
  }
  /* Capture compare 2 event */
  if (__HAL_TIM_GET_FLAG(htim, TIM_FLAG_CC2) != RESET)
 800349c:	6823      	ldr	r3, [r4, #0]
 800349e:	691a      	ldr	r2, [r3, #16]
 80034a0:	0752      	lsls	r2, r2, #29
 80034a2:	d510      	bpl.n	80034c6 <HAL_TIM_IRQHandler+0x56>
  {
    if (__HAL_TIM_GET_IT_SOURCE(htim, TIM_IT_CC2) != RESET)
 80034a4:	68da      	ldr	r2, [r3, #12]
 80034a6:	0750      	lsls	r0, r2, #29
 80034a8:	d50d      	bpl.n	80034c6 <HAL_TIM_IRQHandler+0x56>
    {
      __HAL_TIM_CLEAR_IT(htim, TIM_IT_CC2);
 80034aa:	f06f 0204 	mvn.w	r2, #4
 80034ae:	611a      	str	r2, [r3, #16]
      htim->Channel = HAL_TIM_ACTIVE_CHANNEL_2;
      /* Input capture event */
      if ((htim->Instance->CCMR1 & TIM_CCMR1_CC2S) != 0x00U)
 80034b0:	699b      	ldr	r3, [r3, #24]
      htim->Channel = HAL_TIM_ACTIVE_CHANNEL_2;
 80034b2:	2202      	movs	r2, #2
      if ((htim->Instance->CCMR1 & TIM_CCMR1_CC2S) != 0x00U)
 80034b4:	f413 7f40 	tst.w	r3, #768	; 0x300
      htim->Channel = HAL_TIM_ACTIVE_CHANNEL_2;
 80034b8:	7722      	strb	r2, [r4, #28]
      {
#if (USE_HAL_TIM_REGISTER_CALLBACKS == 1)
        htim->IC_CaptureCallback(htim);
#else
        HAL_TIM_IC_CaptureCallback(htim);
 80034ba:	4620      	mov	r0, r4
      if ((htim->Instance->CCMR1 & TIM_CCMR1_CC2S) != 0x00U)
 80034bc:	d075      	beq.n	80035aa <HAL_TIM_IRQHandler+0x13a>
        HAL_TIM_IC_CaptureCallback(htim);
 80034be:	f7ff ffd4 	bl	800346a <HAL_TIM_IC_CaptureCallback>
#else
        HAL_TIM_OC_DelayElapsedCallback(htim);
        HAL_TIM_PWM_PulseFinishedCallback(htim);
#endif /* USE_HAL_TIM_REGISTER_CALLBACKS */
      }
      htim->Channel = HAL_TIM_ACTIVE_CHANNEL_CLEARED;
 80034c2:	2300      	movs	r3, #0
 80034c4:	7723      	strb	r3, [r4, #28]
    }
  }
  /* Capture compare 3 event */
  if (__HAL_TIM_GET_FLAG(htim, TIM_FLAG_CC3) != RESET)
 80034c6:	6823      	ldr	r3, [r4, #0]
 80034c8:	691a      	ldr	r2, [r3, #16]
 80034ca:	0711      	lsls	r1, r2, #28
 80034cc:	d50f      	bpl.n	80034ee <HAL_TIM_IRQHandler+0x7e>
  {
    if (__HAL_TIM_GET_IT_SOURCE(htim, TIM_IT_CC3) != RESET)
 80034ce:	68da      	ldr	r2, [r3, #12]
 80034d0:	0712      	lsls	r2, r2, #28
 80034d2:	d50c      	bpl.n	80034ee <HAL_TIM_IRQHandler+0x7e>
    {
      __HAL_TIM_CLEAR_IT(htim, TIM_IT_CC3);
 80034d4:	f06f 0208 	mvn.w	r2, #8
 80034d8:	611a      	str	r2, [r3, #16]
      htim->Channel = HAL_TIM_ACTIVE_CHANNEL_3;
      /* Input capture event */
      if ((htim->Instance->CCMR2 & TIM_CCMR2_CC3S) != 0x00U)
 80034da:	69db      	ldr	r3, [r3, #28]
      htim->Channel = HAL_TIM_ACTIVE_CHANNEL_3;
 80034dc:	2204      	movs	r2, #4
      if ((htim->Instance->CCMR2 & TIM_CCMR2_CC3S) != 0x00U)
 80034de:	079b      	lsls	r3, r3, #30
      htim->Channel = HAL_TIM_ACTIVE_CHANNEL_3;
 80034e0:	7722      	strb	r2, [r4, #28]
      {
#if (USE_HAL_TIM_REGISTER_CALLBACKS == 1)
        htim->IC_CaptureCallback(htim);
#else
        HAL_TIM_IC_CaptureCallback(htim);
 80034e2:	4620      	mov	r0, r4
      if ((htim->Instance->CCMR2 & TIM_CCMR2_CC3S) != 0x00U)
 80034e4:	d067      	beq.n	80035b6 <HAL_TIM_IRQHandler+0x146>
        HAL_TIM_IC_CaptureCallback(htim);
 80034e6:	f7ff ffc0 	bl	800346a <HAL_TIM_IC_CaptureCallback>
#else
        HAL_TIM_OC_DelayElapsedCallback(htim);
        HAL_TIM_PWM_PulseFinishedCallback(htim);
#endif /* USE_HAL_TIM_REGISTER_CALLBACKS */
      }
      htim->Channel = HAL_TIM_ACTIVE_CHANNEL_CLEARED;
 80034ea:	2300      	movs	r3, #0
 80034ec:	7723      	strb	r3, [r4, #28]
    }
  }
  /* Capture compare 4 event */
  if (__HAL_TIM_GET_FLAG(htim, TIM_FLAG_CC4) != RESET)
 80034ee:	6823      	ldr	r3, [r4, #0]
 80034f0:	691a      	ldr	r2, [r3, #16]
 80034f2:	06d0      	lsls	r0, r2, #27
 80034f4:	d510      	bpl.n	8003518 <HAL_TIM_IRQHandler+0xa8>
  {
    if (__HAL_TIM_GET_IT_SOURCE(htim, TIM_IT_CC4) != RESET)
 80034f6:	68da      	ldr	r2, [r3, #12]
 80034f8:	06d1      	lsls	r1, r2, #27
 80034fa:	d50d      	bpl.n	8003518 <HAL_TIM_IRQHandler+0xa8>
    {
      __HAL_TIM_CLEAR_IT(htim, TIM_IT_CC4);
 80034fc:	f06f 0210 	mvn.w	r2, #16
 8003500:	611a      	str	r2, [r3, #16]
      htim->Channel = HAL_TIM_ACTIVE_CHANNEL_4;
      /* Input capture event */
      if ((htim->Instance->CCMR2 & TIM_CCMR2_CC4S) != 0x00U)
 8003502:	69db      	ldr	r3, [r3, #28]
      htim->Channel = HAL_TIM_ACTIVE_CHANNEL_4;
 8003504:	2208      	movs	r2, #8
      if ((htim->Instance->CCMR2 & TIM_CCMR2_CC4S) != 0x00U)
 8003506:	f413 7f40 	tst.w	r3, #768	; 0x300
      htim->Channel = HAL_TIM_ACTIVE_CHANNEL_4;
 800350a:	7722      	strb	r2, [r4, #28]
      {
#if (USE_HAL_TIM_REGISTER_CALLBACKS == 1)
        htim->IC_CaptureCallback(htim);
#else
        HAL_TIM_IC_CaptureCallback(htim);
 800350c:	4620      	mov	r0, r4
      if ((htim->Instance->CCMR2 & TIM_CCMR2_CC4S) != 0x00U)
 800350e:	d058      	beq.n	80035c2 <HAL_TIM_IRQHandler+0x152>
        HAL_TIM_IC_CaptureCallback(htim);
 8003510:	f7ff ffab 	bl	800346a <HAL_TIM_IC_CaptureCallback>
#else
        HAL_TIM_OC_DelayElapsedCallback(htim);
        HAL_TIM_PWM_PulseFinishedCallback(htim);
#endif /* USE_HAL_TIM_REGISTER_CALLBACKS */
      }
      htim->Channel = HAL_TIM_ACTIVE_CHANNEL_CLEARED;
 8003514:	2300      	movs	r3, #0
 8003516:	7723      	strb	r3, [r4, #28]
    }
  }
  /* TIM Update event */
  if (__HAL_TIM_GET_FLAG(htim, TIM_FLAG_UPDATE) != RESET)
 8003518:	6823      	ldr	r3, [r4, #0]
 800351a:	691a      	ldr	r2, [r3, #16]
 800351c:	07d2      	lsls	r2, r2, #31
 800351e:	d508      	bpl.n	8003532 <HAL_TIM_IRQHandler+0xc2>
  {
    if (__HAL_TIM_GET_IT_SOURCE(htim, TIM_IT_UPDATE) != RESET)
 8003520:	68da      	ldr	r2, [r3, #12]
 8003522:	07d0      	lsls	r0, r2, #31
 8003524:	d505      	bpl.n	8003532 <HAL_TIM_IRQHandler+0xc2>
    {
      __HAL_TIM_CLEAR_IT(htim, TIM_IT_UPDATE);
 8003526:	f06f 0201 	mvn.w	r2, #1
 800352a:	611a      	str	r2, [r3, #16]
#if (USE_HAL_TIM_REGISTER_CALLBACKS == 1)
      htim->PeriodElapsedCallback(htim);
#else
      HAL_TIM_PeriodElapsedCallback(htim);
 800352c:	4620      	mov	r0, r4
 800352e:	f003 fc3d 	bl	8006dac <HAL_TIM_PeriodElapsedCallback>
#endif /* USE_HAL_TIM_REGISTER_CALLBACKS */
    }
  }
  /* TIM Break input event */
  if (__HAL_TIM_GET_FLAG(htim, TIM_FLAG_BREAK) != RESET)
 8003532:	6823      	ldr	r3, [r4, #0]
 8003534:	691a      	ldr	r2, [r3, #16]
 8003536:	0611      	lsls	r1, r2, #24
 8003538:	d508      	bpl.n	800354c <HAL_TIM_IRQHandler+0xdc>
  {
    if (__HAL_TIM_GET_IT_SOURCE(htim, TIM_IT_BREAK) != RESET)
 800353a:	68da      	ldr	r2, [r3, #12]
 800353c:	0612      	lsls	r2, r2, #24
 800353e:	d505      	bpl.n	800354c <HAL_TIM_IRQHandler+0xdc>
    {
      __HAL_TIM_CLEAR_IT(htim, TIM_IT_BREAK);
 8003540:	f06f 0280 	mvn.w	r2, #128	; 0x80
 8003544:	611a      	str	r2, [r3, #16]
#if (USE_HAL_TIM_REGISTER_CALLBACKS == 1)
      htim->BreakCallback(htim);
#else
      HAL_TIMEx_BreakCallback(htim);
 8003546:	4620      	mov	r0, r4
 8003548:	f000 f8c3 	bl	80036d2 <HAL_TIMEx_BreakCallback>
#endif /* USE_HAL_TIM_REGISTER_CALLBACKS */
    }
  }
  /* TIM Break2 input event */
  if (__HAL_TIM_GET_FLAG(htim, TIM_FLAG_BREAK2) != RESET)
 800354c:	6823      	ldr	r3, [r4, #0]
 800354e:	691a      	ldr	r2, [r3, #16]
 8003550:	05d0      	lsls	r0, r2, #23
 8003552:	d508      	bpl.n	8003566 <HAL_TIM_IRQHandler+0xf6>
  {
    if (__HAL_TIM_GET_IT_SOURCE(htim, TIM_IT_BREAK) != RESET)
 8003554:	68da      	ldr	r2, [r3, #12]
 8003556:	0611      	lsls	r1, r2, #24
 8003558:	d505      	bpl.n	8003566 <HAL_TIM_IRQHandler+0xf6>
    {
      __HAL_TIM_CLEAR_FLAG(htim, TIM_FLAG_BREAK2);
 800355a:	f46f 7280 	mvn.w	r2, #256	; 0x100
 800355e:	611a      	str	r2, [r3, #16]
#if (USE_HAL_TIM_REGISTER_CALLBACKS == 1)
      htim->Break2Callback(htim);
#else
      HAL_TIMEx_Break2Callback(htim);
 8003560:	4620      	mov	r0, r4
 8003562:	f000 f8b7 	bl	80036d4 <HAL_TIMEx_Break2Callback>
#endif /* USE_HAL_TIM_REGISTER_CALLBACKS */
    }
  }
  /* TIM Trigger detection event */
  if (__HAL_TIM_GET_FLAG(htim, TIM_FLAG_TRIGGER) != RESET)
 8003566:	6823      	ldr	r3, [r4, #0]
 8003568:	691a      	ldr	r2, [r3, #16]
 800356a:	0652      	lsls	r2, r2, #25
 800356c:	d508      	bpl.n	8003580 <HAL_TIM_IRQHandler+0x110>
  {
    if (__HAL_TIM_GET_IT_SOURCE(htim, TIM_IT_TRIGGER) != RESET)
 800356e:	68da      	ldr	r2, [r3, #12]
 8003570:	0650      	lsls	r0, r2, #25
 8003572:	d505      	bpl.n	8003580 <HAL_TIM_IRQHandler+0x110>
    {
      __HAL_TIM_CLEAR_IT(htim, TIM_IT_TRIGGER);
 8003574:	f06f 0240 	mvn.w	r2, #64	; 0x40
 8003578:	611a      	str	r2, [r3, #16]
#if (USE_HAL_TIM_REGISTER_CALLBACKS == 1)
      htim->TriggerCallback(htim);
#else
      HAL_TIM_TriggerCallback(htim);
 800357a:	4620      	mov	r0, r4
 800357c:	f7ff ff77 	bl	800346e <HAL_TIM_TriggerCallback>
#endif /* USE_HAL_TIM_REGISTER_CALLBACKS */
    }
  }
  /* TIM commutation event */
  if (__HAL_TIM_GET_FLAG(htim, TIM_FLAG_COM) != RESET)
 8003580:	6823      	ldr	r3, [r4, #0]
 8003582:	691a      	ldr	r2, [r3, #16]
 8003584:	0691      	lsls	r1, r2, #26
 8003586:	d522      	bpl.n	80035ce <HAL_TIM_IRQHandler+0x15e>
  {
    if (__HAL_TIM_GET_IT_SOURCE(htim, TIM_IT_COM) != RESET)
 8003588:	68da      	ldr	r2, [r3, #12]
 800358a:	0692      	lsls	r2, r2, #26
 800358c:	d51f      	bpl.n	80035ce <HAL_TIM_IRQHandler+0x15e>
    {
      __HAL_TIM_CLEAR_IT(htim, TIM_FLAG_COM);
 800358e:	f06f 0220 	mvn.w	r2, #32
#if (USE_HAL_TIM_REGISTER_CALLBACKS == 1)
      htim->CommutationCallback(htim);
#else
      HAL_TIMEx_CommutCallback(htim);
 8003592:	4620      	mov	r0, r4
      __HAL_TIM_CLEAR_IT(htim, TIM_FLAG_COM);
 8003594:	611a      	str	r2, [r3, #16]
#endif /* USE_HAL_TIM_REGISTER_CALLBACKS */
    }
  }
}
 8003596:	e8bd 4010 	ldmia.w	sp!, {r4, lr}
      HAL_TIMEx_CommutCallback(htim);
 800359a:	f000 b899 	b.w	80036d0 <HAL_TIMEx_CommutCallback>
          HAL_TIM_OC_DelayElapsedCallback(htim);
 800359e:	f7ff ff63 	bl	8003468 <HAL_TIM_OC_DelayElapsedCallback>
          HAL_TIM_PWM_PulseFinishedCallback(htim);
 80035a2:	4620      	mov	r0, r4
 80035a4:	f7ff ff62 	bl	800346c <HAL_TIM_PWM_PulseFinishedCallback>
 80035a8:	e776      	b.n	8003498 <HAL_TIM_IRQHandler+0x28>
        HAL_TIM_OC_DelayElapsedCallback(htim);
 80035aa:	f7ff ff5d 	bl	8003468 <HAL_TIM_OC_DelayElapsedCallback>
        HAL_TIM_PWM_PulseFinishedCallback(htim);
 80035ae:	4620      	mov	r0, r4
 80035b0:	f7ff ff5c 	bl	800346c <HAL_TIM_PWM_PulseFinishedCallback>
 80035b4:	e785      	b.n	80034c2 <HAL_TIM_IRQHandler+0x52>
        HAL_TIM_OC_DelayElapsedCallback(htim);
 80035b6:	f7ff ff57 	bl	8003468 <HAL_TIM_OC_DelayElapsedCallback>
        HAL_TIM_PWM_PulseFinishedCallback(htim);
 80035ba:	4620      	mov	r0, r4
 80035bc:	f7ff ff56 	bl	800346c <HAL_TIM_PWM_PulseFinishedCallback>
 80035c0:	e793      	b.n	80034ea <HAL_TIM_IRQHandler+0x7a>
        HAL_TIM_OC_DelayElapsedCallback(htim);
 80035c2:	f7ff ff51 	bl	8003468 <HAL_TIM_OC_DelayElapsedCallback>
        HAL_TIM_PWM_PulseFinishedCallback(htim);
 80035c6:	4620      	mov	r0, r4
 80035c8:	f7ff ff50 	bl	800346c <HAL_TIM_PWM_PulseFinishedCallback>
 80035cc:	e7a2      	b.n	8003514 <HAL_TIM_IRQHandler+0xa4>
 80035ce:	bd10      	pop	{r4, pc}

080035d0 <TIM_Base_SetConfig>:
{
  uint32_t tmpcr1;
  tmpcr1 = TIMx->CR1;

  /* Set TIM Time Base Unit parameters ---------------------------------------*/
  if (IS_TIM_COUNTER_MODE_SELECT_INSTANCE(TIMx))
 80035d0:	4a30      	ldr	r2, [pc, #192]	; (8003694 <TIM_Base_SetConfig+0xc4>)
  tmpcr1 = TIMx->CR1;
 80035d2:	6803      	ldr	r3, [r0, #0]
  if (IS_TIM_COUNTER_MODE_SELECT_INSTANCE(TIMx))
 80035d4:	4290      	cmp	r0, r2
 80035d6:	d012      	beq.n	80035fe <TIM_Base_SetConfig+0x2e>
 80035d8:	f1b0 4f80 	cmp.w	r0, #1073741824	; 0x40000000
 80035dc:	d00f      	beq.n	80035fe <TIM_Base_SetConfig+0x2e>
 80035de:	f5a2 3294 	sub.w	r2, r2, #75776	; 0x12800
 80035e2:	4290      	cmp	r0, r2
 80035e4:	d00b      	beq.n	80035fe <TIM_Base_SetConfig+0x2e>
 80035e6:	f502 6280 	add.w	r2, r2, #1024	; 0x400
 80035ea:	4290      	cmp	r0, r2
 80035ec:	d007      	beq.n	80035fe <TIM_Base_SetConfig+0x2e>
 80035ee:	f502 6280 	add.w	r2, r2, #1024	; 0x400
 80035f2:	4290      	cmp	r0, r2
 80035f4:	d003      	beq.n	80035fe <TIM_Base_SetConfig+0x2e>
 80035f6:	f502 3294 	add.w	r2, r2, #75776	; 0x12800
 80035fa:	4290      	cmp	r0, r2
 80035fc:	d119      	bne.n	8003632 <TIM_Base_SetConfig+0x62>
  {
    /* Select the Counter Mode */
    tmpcr1 &= ~(TIM_CR1_DIR | TIM_CR1_CMS);
    tmpcr1 |= Structure->CounterMode;
 80035fe:	684a      	ldr	r2, [r1, #4]
    tmpcr1 &= ~(TIM_CR1_DIR | TIM_CR1_CMS);
 8003600:	f023 0370 	bic.w	r3, r3, #112	; 0x70
    tmpcr1 |= Structure->CounterMode;
 8003604:	4313      	orrs	r3, r2
  }

  if (IS_TIM_CLOCK_DIVISION_INSTANCE(TIMx))
 8003606:	4a23      	ldr	r2, [pc, #140]	; (8003694 <TIM_Base_SetConfig+0xc4>)
 8003608:	4290      	cmp	r0, r2
 800360a:	d01d      	beq.n	8003648 <TIM_Base_SetConfig+0x78>
 800360c:	f1b0 4f80 	cmp.w	r0, #1073741824	; 0x40000000
 8003610:	d01a      	beq.n	8003648 <TIM_Base_SetConfig+0x78>
 8003612:	f5a2 3294 	sub.w	r2, r2, #75776	; 0x12800
 8003616:	4290      	cmp	r0, r2
 8003618:	d016      	beq.n	8003648 <TIM_Base_SetConfig+0x78>
 800361a:	f502 6280 	add.w	r2, r2, #1024	; 0x400
 800361e:	4290      	cmp	r0, r2
 8003620:	d012      	beq.n	8003648 <TIM_Base_SetConfig+0x78>
 8003622:	f502 6280 	add.w	r2, r2, #1024	; 0x400
 8003626:	4290      	cmp	r0, r2
 8003628:	d00e      	beq.n	8003648 <TIM_Base_SetConfig+0x78>
 800362a:	f502 3294 	add.w	r2, r2, #75776	; 0x12800
 800362e:	4290      	cmp	r0, r2
 8003630:	d00a      	beq.n	8003648 <TIM_Base_SetConfig+0x78>
 8003632:	4a19      	ldr	r2, [pc, #100]	; (8003698 <TIM_Base_SetConfig+0xc8>)
 8003634:	4290      	cmp	r0, r2
 8003636:	d007      	beq.n	8003648 <TIM_Base_SetConfig+0x78>
 8003638:	f502 6280 	add.w	r2, r2, #1024	; 0x400
 800363c:	4290      	cmp	r0, r2
 800363e:	d003      	beq.n	8003648 <TIM_Base_SetConfig+0x78>
 8003640:	f502 6280 	add.w	r2, r2, #1024	; 0x400
 8003644:	4290      	cmp	r0, r2
 8003646:	d103      	bne.n	8003650 <TIM_Base_SetConfig+0x80>
  {
    /* Set the clock division */
    tmpcr1 &= ~TIM_CR1_CKD;
    tmpcr1 |= (uint32_t)Structure->ClockDivision;
 8003648:	68ca      	ldr	r2, [r1, #12]
    tmpcr1 &= ~TIM_CR1_CKD;
 800364a:	f423 7340 	bic.w	r3, r3, #768	; 0x300
    tmpcr1 |= (uint32_t)Structure->ClockDivision;
 800364e:	4313      	orrs	r3, r2
  }

  /* Set the auto-reload preload */
  MODIFY_REG(tmpcr1, TIM_CR1_ARPE, Structure->AutoReloadPreload);
 8003650:	694a      	ldr	r2, [r1, #20]
 8003652:	f023 0380 	bic.w	r3, r3, #128	; 0x80
 8003656:	4313      	orrs	r3, r2

  TIMx->CR1 = tmpcr1;
 8003658:	6003      	str	r3, [r0, #0]

  /* Set the Autoreload value */
  TIMx->ARR = (uint32_t)Structure->Period ;
 800365a:	688b      	ldr	r3, [r1, #8]
 800365c:	62c3      	str	r3, [r0, #44]	; 0x2c

  /* Set the Prescaler value */
  TIMx->PSC = Structure->Prescaler;
 800365e:	680b      	ldr	r3, [r1, #0]
 8003660:	6283      	str	r3, [r0, #40]	; 0x28

  if (IS_TIM_REPETITION_COUNTER_INSTANCE(TIMx))
 8003662:	4b0c      	ldr	r3, [pc, #48]	; (8003694 <TIM_Base_SetConfig+0xc4>)
 8003664:	4298      	cmp	r0, r3
 8003666:	d00f      	beq.n	8003688 <TIM_Base_SetConfig+0xb8>
 8003668:	f503 6300 	add.w	r3, r3, #2048	; 0x800
 800366c:	4298      	cmp	r0, r3
 800366e:	d00b      	beq.n	8003688 <TIM_Base_SetConfig+0xb8>
 8003670:	f503 6340 	add.w	r3, r3, #3072	; 0xc00
 8003674:	4298      	cmp	r0, r3
 8003676:	d007      	beq.n	8003688 <TIM_Base_SetConfig+0xb8>
 8003678:	f503 6380 	add.w	r3, r3, #1024	; 0x400
 800367c:	4298      	cmp	r0, r3
 800367e:	d003      	beq.n	8003688 <TIM_Base_SetConfig+0xb8>
 8003680:	f503 6380 	add.w	r3, r3, #1024	; 0x400
 8003684:	4298      	cmp	r0, r3
 8003686:	d101      	bne.n	800368c <TIM_Base_SetConfig+0xbc>
  {
    /* Set the Repetition Counter value */
    TIMx->RCR = Structure->RepetitionCounter;
 8003688:	690b      	ldr	r3, [r1, #16]
 800368a:	6303      	str	r3, [r0, #48]	; 0x30
  }

  /* Generate an update event to reload the Prescaler
     and the repetition counter (only for advanced timer) value immediately */
  TIMx->EGR = TIM_EGR_UG;
 800368c:	2301      	movs	r3, #1
 800368e:	6143      	str	r3, [r0, #20]
 8003690:	4770      	bx	lr
 8003692:	bf00      	nop
 8003694:	40012c00 	.word	0x40012c00
 8003698:	40014000 	.word	0x40014000

0800369c <HAL_TIM_Base_Init>:
{
 800369c:	b510      	push	{r4, lr}
  if (htim == NULL)
 800369e:	4604      	mov	r4, r0
 80036a0:	b1a0      	cbz	r0, 80036cc <HAL_TIM_Base_Init+0x30>
  if (htim->State == HAL_TIM_STATE_RESET)
 80036a2:	f890 303d 	ldrb.w	r3, [r0, #61]	; 0x3d
 80036a6:	f003 02ff 	and.w	r2, r3, #255	; 0xff
 80036aa:	b91b      	cbnz	r3, 80036b4 <HAL_TIM_Base_Init+0x18>
    htim->Lock = HAL_UNLOCKED;
 80036ac:	f880 203c 	strb.w	r2, [r0, #60]	; 0x3c
    HAL_TIM_Base_MspInit(htim);
 80036b0:	f7ff fec3 	bl	800343a <HAL_TIM_Base_MspInit>
  htim->State = HAL_TIM_STATE_BUSY;
 80036b4:	2302      	movs	r3, #2
 80036b6:	f884 303d 	strb.w	r3, [r4, #61]	; 0x3d
  TIM_Base_SetConfig(htim->Instance, &htim->Init);
 80036ba:	6820      	ldr	r0, [r4, #0]
 80036bc:	1d21      	adds	r1, r4, #4
 80036be:	f7ff ff87 	bl	80035d0 <TIM_Base_SetConfig>
  htim->State = HAL_TIM_STATE_READY;
 80036c2:	2301      	movs	r3, #1
 80036c4:	f884 303d 	strb.w	r3, [r4, #61]	; 0x3d
  return HAL_OK;
 80036c8:	2000      	movs	r0, #0
 80036ca:	bd10      	pop	{r4, pc}
    return HAL_ERROR;
 80036cc:	2001      	movs	r0, #1
}
 80036ce:	bd10      	pop	{r4, pc}

080036d0 <HAL_TIMEx_CommutCallback>:
 80036d0:	4770      	bx	lr

080036d2 <HAL_TIMEx_BreakCallback>:
 80036d2:	4770      	bx	lr

080036d4 <HAL_TIMEx_Break2Callback>:
  * @brief  Hall Break2 detection callback in non blocking mode
  * @param  htim TIM handle
  * @retval None
  */
__weak void HAL_TIMEx_Break2Callback(TIM_HandleTypeDef *htim)
{
 80036d4:	4770      	bx	lr
	...

080036d8 <UART_SetConfig>:
  uint32_t pclk;

  /* Check the parameters */
  assert_param(IS_UART_BAUDRATE(huart->Init.BaudRate));
  assert_param(IS_UART_WORD_LENGTH(huart->Init.WordLength));
  if (UART_INSTANCE_LOWPOWER(huart))
 80036d8:	6802      	ldr	r2, [r0, #0]
  *  the UART Word Length, Parity, Mode and oversampling:
  *  set the M bits according to huart->Init.WordLength value
  *  set PCE and PS bits according to huart->Init.Parity value
  *  set TE and RE bits according to huart->Init.Mode value
  *  set OVER8 bit according to huart->Init.OverSampling value */
  tmpreg = (uint32_t)huart->Init.WordLength | huart->Init.Parity | huart->Init.Mode | huart->Init.OverSampling ;
 80036da:	69c1      	ldr	r1, [r0, #28]
{
 80036dc:	b5f8      	push	{r3, r4, r5, r6, r7, lr}
 80036de:	4604      	mov	r4, r0
  tmpreg = (uint32_t)huart->Init.WordLength | huart->Init.Parity | huart->Init.Mode | huart->Init.OverSampling ;
 80036e0:	6883      	ldr	r3, [r0, #8]
 80036e2:	6900      	ldr	r0, [r0, #16]
#if defined(USART_CR1_FIFOEN)
  tmpreg |= (uint32_t)huart->FifoMode;
#endif /* USART_CR1_FIFOEN */
  MODIFY_REG(huart->Instance->CR1, USART_CR1_FIELDS, tmpreg);
 80036e4:	6815      	ldr	r5, [r2, #0]
  tmpreg = (uint32_t)huart->Init.WordLength | huart->Init.Parity | huart->Init.Mode | huart->Init.OverSampling ;
 80036e6:	4303      	orrs	r3, r0
 80036e8:	6960      	ldr	r0, [r4, #20]
 80036ea:	4303      	orrs	r3, r0
  MODIFY_REG(huart->Instance->CR1, USART_CR1_FIELDS, tmpreg);
 80036ec:	48ba      	ldr	r0, [pc, #744]	; (80039d8 <UART_SetConfig+0x300>)
  tmpreg = (uint32_t)huart->Init.WordLength | huart->Init.Parity | huart->Init.Mode | huart->Init.OverSampling ;
 80036ee:	430b      	orrs	r3, r1
  MODIFY_REG(huart->Instance->CR1, USART_CR1_FIELDS, tmpreg);
 80036f0:	4028      	ands	r0, r5
 80036f2:	4303      	orrs	r3, r0
 80036f4:	6013      	str	r3, [r2, #0]

  /*-------------------------- USART CR2 Configuration -----------------------*/
  /* Configure the UART Stop Bits: Set STOP[13:12] bits according
  * to huart->Init.StopBits value */
  MODIFY_REG(huart->Instance->CR2, USART_CR2_STOP, huart->Init.StopBits);
 80036f6:	6853      	ldr	r3, [r2, #4]
 80036f8:	68e0      	ldr	r0, [r4, #12]
 80036fa:	f423 5340 	bic.w	r3, r3, #12288	; 0x3000
 80036fe:	4303      	orrs	r3, r0
 8003700:	6053      	str	r3, [r2, #4]
  *   to huart->Init.HwFlowCtl value
  * - one-bit sampling method versus three samples' majority rule according
  *   to huart->Init.OneBitSampling (not applicable to LPUART) */
  tmpreg = (uint32_t)huart->Init.HwFlowCtl;

  if (!(UART_INSTANCE_LOWPOWER(huart)))
 8003702:	4bb6      	ldr	r3, [pc, #728]	; (80039dc <UART_SetConfig+0x304>)
  tmpreg = (uint32_t)huart->Init.HwFlowCtl;
 8003704:	69a0      	ldr	r0, [r4, #24]
  if (!(UART_INSTANCE_LOWPOWER(huart)))
 8003706:	429a      	cmp	r2, r3
  {
    tmpreg |= huart->Init.OneBitSampling;
 8003708:	bf1c      	itt	ne
 800370a:	6a23      	ldrne	r3, [r4, #32]
 800370c:	4318      	orrne	r0, r3
  }
  MODIFY_REG(huart->Instance->CR3, USART_CR3_FIELDS, tmpreg);
 800370e:	6893      	ldr	r3, [r2, #8]
 8003710:	f423 6330 	bic.w	r3, r3, #2816	; 0xb00
 8003714:	4303      	orrs	r3, r0
 8003716:	6093      	str	r3, [r2, #8]
  * - UART Clock Prescaler : set PRESCALER according to huart->Init.ClockPrescaler value */
  MODIFY_REG(huart->Instance->PRESC, USART_PRESC_PRESCALER, huart->Init.ClockPrescaler);
#endif /* USART_PRESC_PRESCALER */

  /*-------------------------- USART BRR Configuration -----------------------*/
  UART_GETCLOCKSOURCE(huart, clocksource);
 8003718:	4bb1      	ldr	r3, [pc, #708]	; (80039e0 <UART_SetConfig+0x308>)
 800371a:	429a      	cmp	r2, r3
 800371c:	d119      	bne.n	8003752 <UART_SetConfig+0x7a>
 800371e:	f503 4358 	add.w	r3, r3, #55296	; 0xd800
 8003722:	4ab0      	ldr	r2, [pc, #704]	; (80039e4 <UART_SetConfig+0x30c>)
 8003724:	f8d3 3088 	ldr.w	r3, [r3, #136]	; 0x88
 8003728:	f003 0303 	and.w	r3, r3, #3
        }
      } /*   if ( (lpuart_ker_ck_pres < (3 * huart->Init.BaudRate) ) || (lpuart_ker_ck_pres > (4096 * huart->Init.BaudRate) )) */
    } /* if (lpuart_ker_ck_pres != 0) */
  }
  /* Check UART Over Sampling to set Baud Rate Register */
  else if (huart->Init.OverSampling == UART_OVERSAMPLING_8)
 800372c:	f5b1 4f00 	cmp.w	r1, #32768	; 0x8000
 8003730:	5cd3      	ldrb	r3, [r2, r3]
 8003732:	f040 8138 	bne.w	80039a6 <UART_SetConfig+0x2ce>
  {
    switch (clocksource)
 8003736:	2b08      	cmp	r3, #8
 8003738:	f200 808f 	bhi.w	800385a <UART_SetConfig+0x182>
 800373c:	e8df f013 	tbh	[pc, r3, lsl #1]
 8003740:	00ca011a 	.word	0x00ca011a
 8003744:	008d00f9 	.word	0x008d00f9
 8003748:	008d0114 	.word	0x008d0114
 800374c:	008d008d 	.word	0x008d008d
 8003750:	0036      	.short	0x0036
  UART_GETCLOCKSOURCE(huart, clocksource);
 8003752:	4ba5      	ldr	r3, [pc, #660]	; (80039e8 <UART_SetConfig+0x310>)
 8003754:	429a      	cmp	r2, r3
 8003756:	d107      	bne.n	8003768 <UART_SetConfig+0x90>
 8003758:	f503 33e6 	add.w	r3, r3, #117760	; 0x1cc00
 800375c:	4aa3      	ldr	r2, [pc, #652]	; (80039ec <UART_SetConfig+0x314>)
 800375e:	f8d3 3088 	ldr.w	r3, [r3, #136]	; 0x88
 8003762:	f003 030c 	and.w	r3, r3, #12
 8003766:	e7e1      	b.n	800372c <UART_SetConfig+0x54>
 8003768:	4ba1      	ldr	r3, [pc, #644]	; (80039f0 <UART_SetConfig+0x318>)
 800376a:	429a      	cmp	r2, r3
 800376c:	d123      	bne.n	80037b6 <UART_SetConfig+0xde>
 800376e:	f503 33e4 	add.w	r3, r3, #116736	; 0x1c800
 8003772:	f8d3 3088 	ldr.w	r3, [r3, #136]	; 0x88
 8003776:	f003 0330 	and.w	r3, r3, #48	; 0x30
 800377a:	2b10      	cmp	r3, #16
 800377c:	f000 80f1 	beq.w	8003962 <UART_SetConfig+0x28a>
 8003780:	d80b      	bhi.n	800379a <UART_SetConfig+0xc2>
 8003782:	2b00      	cmp	r3, #0
 8003784:	f000 80f3 	beq.w	800396e <UART_SetConfig+0x296>
  else if (huart->Init.OverSampling == UART_OVERSAMPLING_8)
 8003788:	f5b1 4f00 	cmp.w	r1, #32768	; 0x8000
#else
        usartdiv = (uint16_t)(UART_DIV_SAMPLING8(LSE_VALUE, huart->Init.BaudRate));
#endif /* USART_PRESC_PRESCALER */
        break;
      default:
        ret = HAL_ERROR;
 800378c:	f04f 0201 	mov.w	r2, #1
  uint32_t usartdiv                   = 0x00000000U;
 8003790:	f04f 0300 	mov.w	r3, #0
  else if (huart->Init.OverSampling == UART_OVERSAMPLING_8)
 8003794:	f000 80f8 	beq.w	8003988 <UART_SetConfig+0x2b0>
 8003798:	e0a8      	b.n	80038ec <UART_SetConfig+0x214>
  UART_GETCLOCKSOURCE(huart, clocksource);
 800379a:	2b20      	cmp	r3, #32
 800379c:	f000 80c6 	beq.w	800392c <UART_SetConfig+0x254>
 80037a0:	2b30      	cmp	r3, #48	; 0x30
 80037a2:	d1f1      	bne.n	8003788 <UART_SetConfig+0xb0>
  else if (huart->Init.OverSampling == UART_OVERSAMPLING_8)
 80037a4:	f5b1 4f00 	cmp.w	r1, #32768	; 0x8000
 80037a8:	f040 80b8 	bne.w	800391c <UART_SetConfig+0x244>
        usartdiv = (uint16_t)(UART_DIV_SAMPLING8(LSE_VALUE, huart->Init.BaudRate));
 80037ac:	6860      	ldr	r0, [r4, #4]
 80037ae:	0843      	lsrs	r3, r0, #1
 80037b0:	f503 3380 	add.w	r3, r3, #65536	; 0x10000
 80037b4:	e0c3      	b.n	800393e <UART_SetConfig+0x266>
  UART_GETCLOCKSOURCE(huart, clocksource);
 80037b6:	4b8f      	ldr	r3, [pc, #572]	; (80039f4 <UART_SetConfig+0x31c>)
 80037b8:	429a      	cmp	r2, r3
 80037ba:	d11e      	bne.n	80037fa <UART_SetConfig+0x122>
 80037bc:	f503 33e2 	add.w	r3, r3, #115712	; 0x1c400
 80037c0:	f8d3 3088 	ldr.w	r3, [r3, #136]	; 0x88
 80037c4:	f003 03c0 	and.w	r3, r3, #192	; 0xc0
 80037c8:	2b40      	cmp	r3, #64	; 0x40
 80037ca:	f000 80bb 	beq.w	8003944 <UART_SetConfig+0x26c>
 80037ce:	d80a      	bhi.n	80037e6 <UART_SetConfig+0x10e>
 80037d0:	b97b      	cbnz	r3, 80037f2 <UART_SetConfig+0x11a>
  if (UART_INSTANCE_LOWPOWER(huart))
 80037d2:	4b82      	ldr	r3, [pc, #520]	; (80039dc <UART_SetConfig+0x304>)
 80037d4:	429a      	cmp	r2, r3
 80037d6:	f040 80ca 	bne.w	800396e <UART_SetConfig+0x296>
        lpuart_ker_ck_pres = HAL_RCC_GetPCLK1Freq();
 80037da:	f7ff f905 	bl	80029e8 <HAL_RCC_GetPCLK1Freq>
        break;
 80037de:	2300      	movs	r3, #0
    if (lpuart_ker_ck_pres != 0U)
 80037e0:	bbb0      	cbnz	r0, 8003850 <UART_SetConfig+0x178>
 80037e2:	4602      	mov	r2, r0
 80037e4:	e03a      	b.n	800385c <UART_SetConfig+0x184>
  UART_GETCLOCKSOURCE(huart, clocksource);
 80037e6:	2b80      	cmp	r3, #128	; 0x80
 80037e8:	f000 809d 	beq.w	8003926 <UART_SetConfig+0x24e>
 80037ec:	2bc0      	cmp	r3, #192	; 0xc0
 80037ee:	f000 80b0 	beq.w	8003952 <UART_SetConfig+0x27a>
  if (UART_INSTANCE_LOWPOWER(huart))
 80037f2:	4b7a      	ldr	r3, [pc, #488]	; (80039dc <UART_SetConfig+0x304>)
 80037f4:	429a      	cmp	r2, r3
 80037f6:	d1c7      	bne.n	8003788 <UART_SetConfig+0xb0>
 80037f8:	e02f      	b.n	800385a <UART_SetConfig+0x182>
  UART_GETCLOCKSOURCE(huart, clocksource);
 80037fa:	4b7f      	ldr	r3, [pc, #508]	; (80039f8 <UART_SetConfig+0x320>)
 80037fc:	429a      	cmp	r2, r3
 80037fe:	d111      	bne.n	8003824 <UART_SetConfig+0x14c>
 8003800:	f503 33e0 	add.w	r3, r3, #114688	; 0x1c000
 8003804:	f8d3 3088 	ldr.w	r3, [r3, #136]	; 0x88
 8003808:	f403 7340 	and.w	r3, r3, #768	; 0x300
 800380c:	f5b3 7f80 	cmp.w	r3, #256	; 0x100
 8003810:	f000 8098 	beq.w	8003944 <UART_SetConfig+0x26c>
 8003814:	d9dc      	bls.n	80037d0 <UART_SetConfig+0xf8>
 8003816:	f5b3 7f00 	cmp.w	r3, #512	; 0x200
 800381a:	f000 8084 	beq.w	8003926 <UART_SetConfig+0x24e>
 800381e:	f5b3 7f40 	cmp.w	r3, #768	; 0x300
 8003822:	e7e4      	b.n	80037ee <UART_SetConfig+0x116>
 8003824:	4b6d      	ldr	r3, [pc, #436]	; (80039dc <UART_SetConfig+0x304>)
 8003826:	429a      	cmp	r2, r3
 8003828:	d1ae      	bne.n	8003788 <UART_SetConfig+0xb0>
 800382a:	f503 33c8 	add.w	r3, r3, #102400	; 0x19000
 800382e:	f8d3 3088 	ldr.w	r3, [r3, #136]	; 0x88
 8003832:	f403 6340 	and.w	r3, r3, #3072	; 0xc00
 8003836:	f5b3 6f80 	cmp.w	r3, #1024	; 0x400
 800383a:	f000 8083 	beq.w	8003944 <UART_SetConfig+0x26c>
 800383e:	d9c7      	bls.n	80037d0 <UART_SetConfig+0xf8>
 8003840:	f5b3 6f00 	cmp.w	r3, #2048	; 0x800
 8003844:	d06f      	beq.n	8003926 <UART_SetConfig+0x24e>
 8003846:	f5b3 6f40 	cmp.w	r3, #3072	; 0xc00
 800384a:	e7d0      	b.n	80037ee <UART_SetConfig+0x116>
        lpuart_ker_ck_pres = (uint32_t)HSI_VALUE;
 800384c:	486b      	ldr	r0, [pc, #428]	; (80039fc <UART_SetConfig+0x324>)
  if (UART_INSTANCE_LOWPOWER(huart))
 800384e:	2302      	movs	r3, #2
      if ((lpuart_ker_ck_pres < (3U * huart->Init.BaudRate)) ||
 8003850:	6862      	ldr	r2, [r4, #4]
 8003852:	eb02 0142 	add.w	r1, r2, r2, lsl #1
 8003856:	4281      	cmp	r1, r0
 8003858:	d905      	bls.n	8003866 <UART_SetConfig+0x18e>
        ret = HAL_ERROR;
 800385a:	2201      	movs	r2, #1
  huart->NbTxDataToProcess = 1;
  huart->NbRxDataToProcess = 1;
#endif /* USART_CR1_FIFOEN */

  /* Clear ISR function pointers */
  huart->RxISR = NULL;
 800385c:	2300      	movs	r3, #0
 800385e:	6623      	str	r3, [r4, #96]	; 0x60
  huart->TxISR = NULL;
 8003860:	6663      	str	r3, [r4, #100]	; 0x64

  return ret;
}
 8003862:	4610      	mov	r0, r2
 8003864:	bdf8      	pop	{r3, r4, r5, r6, r7, pc}
      if ((lpuart_ker_ck_pres < (3U * huart->Init.BaudRate)) ||
 8003866:	ebb0 3f02 	cmp.w	r0, r2, lsl #12
 800386a:	d8f6      	bhi.n	800385a <UART_SetConfig+0x182>
        switch (clocksource)
 800386c:	2b08      	cmp	r3, #8
 800386e:	d82e      	bhi.n	80038ce <UART_SetConfig+0x1f6>
 8003870:	e8df f003 	tbb	[pc, r3]
 8003874:	2d1c2d05 	.word	0x2d1c2d05
 8003878:	2d2d2d24 	.word	0x2d2d2d24
 800387c:	27          	.byte	0x27
 800387d:	00          	.byte	0x00
            pclk = HAL_RCC_GetPCLK1Freq();
 800387e:	f7ff f8b3 	bl	80029e8 <HAL_RCC_GetPCLK1Freq>
            usartdiv = (uint32_t)(UART_DIV_LPUART(pclk, huart->Init.BaudRate));
 8003882:	6862      	ldr	r2, [r4, #4]
 8003884:	f44f 7180 	mov.w	r1, #256	; 0x100
 8003888:	0856      	lsrs	r6, r2, #1
 800388a:	2700      	movs	r7, #0
 800388c:	fbe1 6700 	umlal	r6, r7, r1, r0
 8003890:	2300      	movs	r3, #0
 8003892:	4630      	mov	r0, r6
 8003894:	4639      	mov	r1, r7
            usartdiv = (uint32_t)(UART_DIV_LPUART(LSE_VALUE, huart->Init.BaudRate));
 8003896:	f7fd f993 	bl	8000bc0 <__aeabi_uldivmod>
            break;
 800389a:	2200      	movs	r2, #0
        if ((usartdiv >= LPUART_BRR_MIN) && (usartdiv <= LPUART_BRR_MAX))
 800389c:	4b58      	ldr	r3, [pc, #352]	; (8003a00 <UART_SetConfig+0x328>)
 800389e:	f5a0 7140 	sub.w	r1, r0, #768	; 0x300
 80038a2:	4299      	cmp	r1, r3
 80038a4:	d8d9      	bhi.n	800385a <UART_SetConfig+0x182>
          huart->Instance->BRR = usartdiv;
 80038a6:	6823      	ldr	r3, [r4, #0]
 80038a8:	60d8      	str	r0, [r3, #12]
 80038aa:	e7d7      	b.n	800385c <UART_SetConfig+0x184>
            usartdiv = (uint32_t)(UART_DIV_LPUART(HSI_VALUE, huart->Init.BaudRate));
 80038ac:	4855      	ldr	r0, [pc, #340]	; (8003a04 <UART_SetConfig+0x32c>)
 80038ae:	0855      	lsrs	r5, r2, #1
 80038b0:	2300      	movs	r3, #0
 80038b2:	2100      	movs	r1, #0
 80038b4:	1940      	adds	r0, r0, r5
            usartdiv = (uint32_t)(UART_DIV_LPUART(LSE_VALUE, huart->Init.BaudRate));
 80038b6:	f141 0100 	adc.w	r1, r1, #0
 80038ba:	e7ec      	b.n	8003896 <UART_SetConfig+0x1be>
            pclk = HAL_RCC_GetSysClockFreq();
 80038bc:	f7fe fd2a 	bl	8002314 <HAL_RCC_GetSysClockFreq>
 80038c0:	e7df      	b.n	8003882 <UART_SetConfig+0x1aa>
            usartdiv = (uint32_t)(UART_DIV_LPUART(LSE_VALUE, huart->Init.BaudRate));
 80038c2:	0850      	lsrs	r0, r2, #1
 80038c4:	2100      	movs	r1, #0
 80038c6:	2300      	movs	r3, #0
 80038c8:	f510 0000 	adds.w	r0, r0, #8388608	; 0x800000
 80038cc:	e7f3      	b.n	80038b6 <UART_SetConfig+0x1de>
            ret = HAL_ERROR;
 80038ce:	2201      	movs	r2, #1
  uint32_t usartdiv                   = 0x00000000U;
 80038d0:	2000      	movs	r0, #0
 80038d2:	e7e3      	b.n	800389c <UART_SetConfig+0x1c4>
        pclk = HAL_RCC_GetPCLK2Freq();
 80038d4:	f7ff f89a 	bl	8002a0c <HAL_RCC_GetPCLK2Freq>
 80038d8:	e04e      	b.n	8003978 <UART_SetConfig+0x2a0>
        pclk = HAL_RCC_GetPCLK1Freq();
 80038da:	f7ff f885 	bl	80029e8 <HAL_RCC_GetPCLK1Freq>
        usartdiv = (uint16_t)(UART_DIV_SAMPLING16(pclk, huart->Init.BaudRate));
 80038de:	6862      	ldr	r2, [r4, #4]
 80038e0:	eb00 0352 	add.w	r3, r0, r2, lsr #1
 80038e4:	fbb3 f3f2 	udiv	r3, r3, r2
 80038e8:	b29b      	uxth	r3, r3
  HAL_StatusTypeDef ret               = HAL_OK;
 80038ea:	2200      	movs	r2, #0
    if ((usartdiv >= UART_BRR_MIN) && (usartdiv <= UART_BRR_MAX))
 80038ec:	f1a3 0010 	sub.w	r0, r3, #16
 80038f0:	f64f 71ef 	movw	r1, #65519	; 0xffef
 80038f4:	4288      	cmp	r0, r1
 80038f6:	d8b0      	bhi.n	800385a <UART_SetConfig+0x182>
      huart->Instance->BRR = usartdiv;
 80038f8:	6821      	ldr	r1, [r4, #0]
 80038fa:	60cb      	str	r3, [r1, #12]
 80038fc:	e7ae      	b.n	800385c <UART_SetConfig+0x184>
        pclk = HAL_RCC_GetPCLK2Freq();
 80038fe:	f7ff f885 	bl	8002a0c <HAL_RCC_GetPCLK2Freq>
 8003902:	e7ec      	b.n	80038de <UART_SetConfig+0x206>
        usartdiv = (uint16_t)(UART_DIV_SAMPLING16(HSI_VALUE, huart->Init.BaudRate));
 8003904:	6860      	ldr	r0, [r4, #4]
 8003906:	0843      	lsrs	r3, r0, #1
 8003908:	f503 0374 	add.w	r3, r3, #15990784	; 0xf40000
 800390c:	f503 5310 	add.w	r3, r3, #9216	; 0x2400
        usartdiv = (uint16_t)(UART_DIV_SAMPLING16(LSE_VALUE, huart->Init.BaudRate));
 8003910:	fbb3 f3f0 	udiv	r3, r3, r0
 8003914:	e7e8      	b.n	80038e8 <UART_SetConfig+0x210>
        pclk = HAL_RCC_GetSysClockFreq();
 8003916:	f7fe fcfd 	bl	8002314 <HAL_RCC_GetSysClockFreq>
 800391a:	e7e0      	b.n	80038de <UART_SetConfig+0x206>
        usartdiv = (uint16_t)(UART_DIV_SAMPLING16(LSE_VALUE, huart->Init.BaudRate));
 800391c:	6860      	ldr	r0, [r4, #4]
 800391e:	0843      	lsrs	r3, r0, #1
 8003920:	f503 4300 	add.w	r3, r3, #32768	; 0x8000
 8003924:	e7f4      	b.n	8003910 <UART_SetConfig+0x238>
  if (UART_INSTANCE_LOWPOWER(huart))
 8003926:	4b2d      	ldr	r3, [pc, #180]	; (80039dc <UART_SetConfig+0x304>)
 8003928:	429a      	cmp	r2, r3
 800392a:	d08f      	beq.n	800384c <UART_SetConfig+0x174>
  else if (huart->Init.OverSampling == UART_OVERSAMPLING_8)
 800392c:	f5b1 4f00 	cmp.w	r1, #32768	; 0x8000
 8003930:	d1e8      	bne.n	8003904 <UART_SetConfig+0x22c>
        usartdiv = (uint16_t)(UART_DIV_SAMPLING8(HSI_VALUE, huart->Init.BaudRate));
 8003932:	6860      	ldr	r0, [r4, #4]
 8003934:	0843      	lsrs	r3, r0, #1
 8003936:	f103 73f4 	add.w	r3, r3, #31981568	; 0x1e80000
 800393a:	f503 4390 	add.w	r3, r3, #18432	; 0x4800
        usartdiv = (uint16_t)(UART_DIV_SAMPLING8(LSE_VALUE, huart->Init.BaudRate));
 800393e:	fbb3 f3f0 	udiv	r3, r3, r0
 8003942:	e01f      	b.n	8003984 <UART_SetConfig+0x2ac>
  if (UART_INSTANCE_LOWPOWER(huart))
 8003944:	4b25      	ldr	r3, [pc, #148]	; (80039dc <UART_SetConfig+0x304>)
 8003946:	429a      	cmp	r2, r3
 8003948:	d10b      	bne.n	8003962 <UART_SetConfig+0x28a>
        lpuart_ker_ck_pres = HAL_RCC_GetSysClockFreq();
 800394a:	f7fe fce3 	bl	8002314 <HAL_RCC_GetSysClockFreq>
        break;
 800394e:	2304      	movs	r3, #4
 8003950:	e746      	b.n	80037e0 <UART_SetConfig+0x108>
  if (UART_INSTANCE_LOWPOWER(huart))
 8003952:	4b22      	ldr	r3, [pc, #136]	; (80039dc <UART_SetConfig+0x304>)
 8003954:	429a      	cmp	r2, r3
 8003956:	f47f af25 	bne.w	80037a4 <UART_SetConfig+0xcc>
        lpuart_ker_ck_pres = (uint32_t)LSE_VALUE;
 800395a:	f44f 4000 	mov.w	r0, #32768	; 0x8000
  if (UART_INSTANCE_LOWPOWER(huart))
 800395e:	2308      	movs	r3, #8
 8003960:	e776      	b.n	8003850 <UART_SetConfig+0x178>
  else if (huart->Init.OverSampling == UART_OVERSAMPLING_8)
 8003962:	f5b1 4f00 	cmp.w	r1, #32768	; 0x8000
 8003966:	d1d6      	bne.n	8003916 <UART_SetConfig+0x23e>
        pclk = HAL_RCC_GetSysClockFreq();
 8003968:	f7fe fcd4 	bl	8002314 <HAL_RCC_GetSysClockFreq>
 800396c:	e004      	b.n	8003978 <UART_SetConfig+0x2a0>
  else if (huart->Init.OverSampling == UART_OVERSAMPLING_8)
 800396e:	f5b1 4f00 	cmp.w	r1, #32768	; 0x8000
 8003972:	d1b2      	bne.n	80038da <UART_SetConfig+0x202>
        pclk = HAL_RCC_GetPCLK1Freq();
 8003974:	f7ff f838 	bl	80029e8 <HAL_RCC_GetPCLK1Freq>
        usartdiv = (uint16_t)(UART_DIV_SAMPLING8(pclk, huart->Init.BaudRate));
 8003978:	6861      	ldr	r1, [r4, #4]
 800397a:	084a      	lsrs	r2, r1, #1
 800397c:	eb02 0340 	add.w	r3, r2, r0, lsl #1
 8003980:	fbb3 f3f1 	udiv	r3, r3, r1
 8003984:	b29b      	uxth	r3, r3
  HAL_StatusTypeDef ret               = HAL_OK;
 8003986:	2200      	movs	r2, #0
    if ((usartdiv >= UART_BRR_MIN) && (usartdiv <= UART_BRR_MAX))
 8003988:	f1a3 0010 	sub.w	r0, r3, #16
 800398c:	f64f 71ef 	movw	r1, #65519	; 0xffef
 8003990:	4288      	cmp	r0, r1
 8003992:	f63f af62 	bhi.w	800385a <UART_SetConfig+0x182>
      brrtemp = (uint16_t)(usartdiv & 0xFFF0U);
 8003996:	f023 010f 	bic.w	r1, r3, #15
      huart->Instance->BRR = brrtemp;
 800399a:	6820      	ldr	r0, [r4, #0]
      brrtemp |= (uint16_t)((usartdiv & (uint16_t)0x000FU) >> 1U);
 800399c:	f3c3 0342 	ubfx	r3, r3, #1, #3
      huart->Instance->BRR = brrtemp;
 80039a0:	430b      	orrs	r3, r1
 80039a2:	60c3      	str	r3, [r0, #12]
 80039a4:	e75a      	b.n	800385c <UART_SetConfig+0x184>
    switch (clocksource)
 80039a6:	2b08      	cmp	r3, #8
 80039a8:	f63f af57 	bhi.w	800385a <UART_SetConfig+0x182>
 80039ac:	a201      	add	r2, pc, #4	; (adr r2, 80039b4 <UART_SetConfig+0x2dc>)
 80039ae:	f852 f023 	ldr.w	pc, [r2, r3, lsl #2]
 80039b2:	bf00      	nop
 80039b4:	080038db 	.word	0x080038db
 80039b8:	080038ff 	.word	0x080038ff
 80039bc:	08003905 	.word	0x08003905
 80039c0:	0800385b 	.word	0x0800385b
 80039c4:	08003917 	.word	0x08003917
 80039c8:	0800385b 	.word	0x0800385b
 80039cc:	0800385b 	.word	0x0800385b
 80039d0:	0800385b 	.word	0x0800385b
 80039d4:	0800391d 	.word	0x0800391d
 80039d8:	efff69f3 	.word	0xefff69f3
 80039dc:	40008000 	.word	0x40008000
 80039e0:	40013800 	.word	0x40013800
 80039e4:	0800b8e6 	.word	0x0800b8e6
 80039e8:	40004400 	.word	0x40004400
 80039ec:	0800b8ea 	.word	0x0800b8ea
 80039f0:	40004800 	.word	0x40004800
 80039f4:	40004c00 	.word	0x40004c00
 80039f8:	40005000 	.word	0x40005000
 80039fc:	00f42400 	.word	0x00f42400
 8003a00:	000ffcff 	.word	0x000ffcff
 8003a04:	f4240000 	.word	0xf4240000

08003a08 <UART_AdvFeatureConfig>:
{
  /* Check whether the set of advanced features to configure is properly set */
  assert_param(IS_UART_ADVFEATURE_INIT(huart->AdvancedInit.AdvFeatureInit));

  /* if required, configure TX pin active level inversion */
  if (HAL_IS_BIT_SET(huart->AdvancedInit.AdvFeatureInit, UART_ADVFEATURE_TXINVERT_INIT))
 8003a08:	6a43      	ldr	r3, [r0, #36]	; 0x24
 8003a0a:	07da      	lsls	r2, r3, #31
{
 8003a0c:	b510      	push	{r4, lr}
  if (HAL_IS_BIT_SET(huart->AdvancedInit.AdvFeatureInit, UART_ADVFEATURE_TXINVERT_INIT))
 8003a0e:	d506      	bpl.n	8003a1e <UART_AdvFeatureConfig+0x16>
  {
    assert_param(IS_UART_ADVFEATURE_TXINV(huart->AdvancedInit.TxPinLevelInvert));
    MODIFY_REG(huart->Instance->CR2, USART_CR2_TXINV, huart->AdvancedInit.TxPinLevelInvert);
 8003a10:	6801      	ldr	r1, [r0, #0]
 8003a12:	6a84      	ldr	r4, [r0, #40]	; 0x28
 8003a14:	684a      	ldr	r2, [r1, #4]
 8003a16:	f422 3200 	bic.w	r2, r2, #131072	; 0x20000
 8003a1a:	4322      	orrs	r2, r4
 8003a1c:	604a      	str	r2, [r1, #4]
  }

  /* if required, configure RX pin active level inversion */
  if (HAL_IS_BIT_SET(huart->AdvancedInit.AdvFeatureInit, UART_ADVFEATURE_RXINVERT_INIT))
 8003a1e:	079c      	lsls	r4, r3, #30
 8003a20:	d506      	bpl.n	8003a30 <UART_AdvFeatureConfig+0x28>
  {
    assert_param(IS_UART_ADVFEATURE_RXINV(huart->AdvancedInit.RxPinLevelInvert));
    MODIFY_REG(huart->Instance->CR2, USART_CR2_RXINV, huart->AdvancedInit.RxPinLevelInvert);
 8003a22:	6801      	ldr	r1, [r0, #0]
 8003a24:	6ac4      	ldr	r4, [r0, #44]	; 0x2c
 8003a26:	684a      	ldr	r2, [r1, #4]
 8003a28:	f422 3280 	bic.w	r2, r2, #65536	; 0x10000
 8003a2c:	4322      	orrs	r2, r4
 8003a2e:	604a      	str	r2, [r1, #4]
  }

  /* if required, configure data inversion */
  if (HAL_IS_BIT_SET(huart->AdvancedInit.AdvFeatureInit, UART_ADVFEATURE_DATAINVERT_INIT))
 8003a30:	0759      	lsls	r1, r3, #29
 8003a32:	d506      	bpl.n	8003a42 <UART_AdvFeatureConfig+0x3a>
  {
    assert_param(IS_UART_ADVFEATURE_DATAINV(huart->AdvancedInit.DataInvert));
    MODIFY_REG(huart->Instance->CR2, USART_CR2_DATAINV, huart->AdvancedInit.DataInvert);
 8003a34:	6801      	ldr	r1, [r0, #0]
 8003a36:	6b04      	ldr	r4, [r0, #48]	; 0x30
 8003a38:	684a      	ldr	r2, [r1, #4]
 8003a3a:	f422 2280 	bic.w	r2, r2, #262144	; 0x40000
 8003a3e:	4322      	orrs	r2, r4
 8003a40:	604a      	str	r2, [r1, #4]
  }

  /* if required, configure RX/TX pins swap */
  if (HAL_IS_BIT_SET(huart->AdvancedInit.AdvFeatureInit, UART_ADVFEATURE_SWAP_INIT))
 8003a42:	071a      	lsls	r2, r3, #28
 8003a44:	d506      	bpl.n	8003a54 <UART_AdvFeatureConfig+0x4c>
  {
    assert_param(IS_UART_ADVFEATURE_SWAP(huart->AdvancedInit.Swap));
    MODIFY_REG(huart->Instance->CR2, USART_CR2_SWAP, huart->AdvancedInit.Swap);
 8003a46:	6801      	ldr	r1, [r0, #0]
 8003a48:	6b44      	ldr	r4, [r0, #52]	; 0x34
 8003a4a:	684a      	ldr	r2, [r1, #4]
 8003a4c:	f422 4200 	bic.w	r2, r2, #32768	; 0x8000
 8003a50:	4322      	orrs	r2, r4
 8003a52:	604a      	str	r2, [r1, #4]
  }

  /* if required, configure RX overrun detection disabling */
  if (HAL_IS_BIT_SET(huart->AdvancedInit.AdvFeatureInit, UART_ADVFEATURE_RXOVERRUNDISABLE_INIT))
 8003a54:	06dc      	lsls	r4, r3, #27
 8003a56:	d506      	bpl.n	8003a66 <UART_AdvFeatureConfig+0x5e>
  {
    assert_param(IS_UART_OVERRUN(huart->AdvancedInit.OverrunDisable));
    MODIFY_REG(huart->Instance->CR3, USART_CR3_OVRDIS, huart->AdvancedInit.OverrunDisable);
 8003a58:	6801      	ldr	r1, [r0, #0]
 8003a5a:	6b84      	ldr	r4, [r0, #56]	; 0x38
 8003a5c:	688a      	ldr	r2, [r1, #8]
 8003a5e:	f422 5280 	bic.w	r2, r2, #4096	; 0x1000
 8003a62:	4322      	orrs	r2, r4
 8003a64:	608a      	str	r2, [r1, #8]
  }

  /* if required, configure DMA disabling on reception error */
  if (HAL_IS_BIT_SET(huart->AdvancedInit.AdvFeatureInit, UART_ADVFEATURE_DMADISABLEONERROR_INIT))
 8003a66:	0699      	lsls	r1, r3, #26
 8003a68:	d506      	bpl.n	8003a78 <UART_AdvFeatureConfig+0x70>
  {
    assert_param(IS_UART_ADVFEATURE_DMAONRXERROR(huart->AdvancedInit.DMADisableonRxError));
    MODIFY_REG(huart->Instance->CR3, USART_CR3_DDRE, huart->AdvancedInit.DMADisableonRxError);
 8003a6a:	6801      	ldr	r1, [r0, #0]
 8003a6c:	6bc4      	ldr	r4, [r0, #60]	; 0x3c
 8003a6e:	688a      	ldr	r2, [r1, #8]
 8003a70:	f422 5200 	bic.w	r2, r2, #8192	; 0x2000
 8003a74:	4322      	orrs	r2, r4
 8003a76:	608a      	str	r2, [r1, #8]
  }

  /* if required, configure auto Baud rate detection scheme */
  if (HAL_IS_BIT_SET(huart->AdvancedInit.AdvFeatureInit, UART_ADVFEATURE_AUTOBAUDRATE_INIT))
 8003a78:	065a      	lsls	r2, r3, #25
 8003a7a:	d50f      	bpl.n	8003a9c <UART_AdvFeatureConfig+0x94>
  {
    assert_param(IS_USART_AUTOBAUDRATE_DETECTION_INSTANCE(huart->Instance));
    assert_param(IS_UART_ADVFEATURE_AUTOBAUDRATE(huart->AdvancedInit.AutoBaudRateEnable));
    MODIFY_REG(huart->Instance->CR2, USART_CR2_ABREN, huart->AdvancedInit.AutoBaudRateEnable);
 8003a7c:	6801      	ldr	r1, [r0, #0]
 8003a7e:	6c04      	ldr	r4, [r0, #64]	; 0x40
 8003a80:	684a      	ldr	r2, [r1, #4]
 8003a82:	f422 1280 	bic.w	r2, r2, #1048576	; 0x100000
 8003a86:	4322      	orrs	r2, r4
    /* set auto Baudrate detection parameters if detection is enabled */
    if (huart->AdvancedInit.AutoBaudRateEnable == UART_ADVFEATURE_AUTOBAUDRATE_ENABLE)
 8003a88:	f5b4 1f80 	cmp.w	r4, #1048576	; 0x100000
    MODIFY_REG(huart->Instance->CR2, USART_CR2_ABREN, huart->AdvancedInit.AutoBaudRateEnable);
 8003a8c:	604a      	str	r2, [r1, #4]
    if (huart->AdvancedInit.AutoBaudRateEnable == UART_ADVFEATURE_AUTOBAUDRATE_ENABLE)
 8003a8e:	d105      	bne.n	8003a9c <UART_AdvFeatureConfig+0x94>
    {
      assert_param(IS_UART_ADVFEATURE_AUTOBAUDRATEMODE(huart->AdvancedInit.AutoBaudRateMode));
      MODIFY_REG(huart->Instance->CR2, USART_CR2_ABRMODE, huart->AdvancedInit.AutoBaudRateMode);
 8003a90:	684a      	ldr	r2, [r1, #4]
 8003a92:	6c44      	ldr	r4, [r0, #68]	; 0x44
 8003a94:	f422 02c0 	bic.w	r2, r2, #6291456	; 0x600000
 8003a98:	4322      	orrs	r2, r4
 8003a9a:	604a      	str	r2, [r1, #4]
    }
  }

  /* if required, configure MSB first on communication line */
  if (HAL_IS_BIT_SET(huart->AdvancedInit.AdvFeatureInit, UART_ADVFEATURE_MSBFIRST_INIT))
 8003a9c:	061b      	lsls	r3, r3, #24
 8003a9e:	d506      	bpl.n	8003aae <UART_AdvFeatureConfig+0xa6>
  {
    assert_param(IS_UART_ADVFEATURE_MSBFIRST(huart->AdvancedInit.MSBFirst));
    MODIFY_REG(huart->Instance->CR2, USART_CR2_MSBFIRST, huart->AdvancedInit.MSBFirst);
 8003aa0:	6802      	ldr	r2, [r0, #0]
 8003aa2:	6c81      	ldr	r1, [r0, #72]	; 0x48
 8003aa4:	6853      	ldr	r3, [r2, #4]
 8003aa6:	f423 2300 	bic.w	r3, r3, #524288	; 0x80000
 8003aaa:	430b      	orrs	r3, r1
 8003aac:	6053      	str	r3, [r2, #4]
 8003aae:	bd10      	pop	{r4, pc}

08003ab0 <UART_WaitOnFlagUntilTimeout>:
  * @param Timeout   Timeout duration
  * @retval HAL status
  */
HAL_StatusTypeDef UART_WaitOnFlagUntilTimeout(UART_HandleTypeDef *huart, uint32_t Flag, FlagStatus Status,
                                              uint32_t Tickstart, uint32_t Timeout)
{
 8003ab0:	e92d 41f0 	stmdb	sp!, {r4, r5, r6, r7, r8, lr}
 8003ab4:	9d06      	ldr	r5, [sp, #24]
 8003ab6:	4604      	mov	r4, r0
 8003ab8:	460f      	mov	r7, r1
 8003aba:	4616      	mov	r6, r2
 8003abc:	4698      	mov	r8, r3
  /* Wait until flag is set */
  while ((__HAL_UART_GET_FLAG(huart, Flag) ? SET : RESET) == Status)
 8003abe:	6821      	ldr	r1, [r4, #0]
 8003ac0:	69ca      	ldr	r2, [r1, #28]
 8003ac2:	ea37 0302 	bics.w	r3, r7, r2
 8003ac6:	bf0c      	ite	eq
 8003ac8:	2201      	moveq	r2, #1
 8003aca:	2200      	movne	r2, #0
 8003acc:	42b2      	cmp	r2, r6
 8003ace:	d002      	beq.n	8003ad6 <UART_WaitOnFlagUntilTimeout+0x26>
          return HAL_TIMEOUT;
        }
      }
    }
  }
  return HAL_OK;
 8003ad0:	2000      	movs	r0, #0
}
 8003ad2:	e8bd 81f0 	ldmia.w	sp!, {r4, r5, r6, r7, r8, pc}
    if (Timeout != HAL_MAX_DELAY)
 8003ad6:	1c68      	adds	r0, r5, #1
 8003ad8:	d0f2      	beq.n	8003ac0 <UART_WaitOnFlagUntilTimeout+0x10>
      if (((HAL_GetTick() - Tickstart) > Timeout) || (Timeout == 0U))
 8003ada:	f7fe f997 	bl	8001e0c <HAL_GetTick>
 8003ade:	eba0 0008 	sub.w	r0, r0, r8
 8003ae2:	4285      	cmp	r5, r0
 8003ae4:	6820      	ldr	r0, [r4, #0]
        CLEAR_BIT(huart->Instance->CR1, (USART_CR1_RXNEIE | USART_CR1_PEIE | USART_CR1_TXEIE));
 8003ae6:	6803      	ldr	r3, [r0, #0]
      if (((HAL_GetTick() - Tickstart) > Timeout) || (Timeout == 0U))
 8003ae8:	d300      	bcc.n	8003aec <UART_WaitOnFlagUntilTimeout+0x3c>
 8003aea:	b97d      	cbnz	r5, 8003b0c <UART_WaitOnFlagUntilTimeout+0x5c>
        CLEAR_BIT(huart->Instance->CR1, (USART_CR1_RXNEIE | USART_CR1_PEIE | USART_CR1_TXEIE));
 8003aec:	f423 73d0 	bic.w	r3, r3, #416	; 0x1a0
 8003af0:	6003      	str	r3, [r0, #0]
        CLEAR_BIT(huart->Instance->CR3, USART_CR3_EIE);
 8003af2:	6883      	ldr	r3, [r0, #8]
 8003af4:	f023 0301 	bic.w	r3, r3, #1
 8003af8:	6083      	str	r3, [r0, #8]
        huart->gState = HAL_UART_STATE_READY;
 8003afa:	2320      	movs	r3, #32
 8003afc:	6763      	str	r3, [r4, #116]	; 0x74
        huart->RxState = HAL_UART_STATE_READY;
 8003afe:	67a3      	str	r3, [r4, #120]	; 0x78
          __HAL_UNLOCK(huart);
 8003b00:	2300      	movs	r3, #0
 8003b02:	f884 3070 	strb.w	r3, [r4, #112]	; 0x70
          return HAL_TIMEOUT;
 8003b06:	2003      	movs	r0, #3
 8003b08:	e8bd 81f0 	ldmia.w	sp!, {r4, r5, r6, r7, r8, pc}
      if (READ_BIT(huart->Instance->CR1, USART_CR1_RE) != 0U)
 8003b0c:	075a      	lsls	r2, r3, #29
 8003b0e:	d5d6      	bpl.n	8003abe <UART_WaitOnFlagUntilTimeout+0xe>
        if (__HAL_UART_GET_FLAG(huart, UART_FLAG_RTOF) == SET)
 8003b10:	69c3      	ldr	r3, [r0, #28]
 8003b12:	051b      	lsls	r3, r3, #20
 8003b14:	d5d3      	bpl.n	8003abe <UART_WaitOnFlagUntilTimeout+0xe>
          __HAL_UART_CLEAR_FLAG(huart, UART_CLEAR_RTOF);
 8003b16:	f44f 6300 	mov.w	r3, #2048	; 0x800
 8003b1a:	6203      	str	r3, [r0, #32]
          CLEAR_BIT(huart->Instance->CR1, (USART_CR1_RXNEIE | USART_CR1_PEIE | USART_CR1_TXEIE));
 8003b1c:	6803      	ldr	r3, [r0, #0]
 8003b1e:	f423 73d0 	bic.w	r3, r3, #416	; 0x1a0
 8003b22:	6003      	str	r3, [r0, #0]
          CLEAR_BIT(huart->Instance->CR3, USART_CR3_EIE);
 8003b24:	6883      	ldr	r3, [r0, #8]
 8003b26:	f023 0301 	bic.w	r3, r3, #1
 8003b2a:	6083      	str	r3, [r0, #8]
          huart->gState = HAL_UART_STATE_READY;
 8003b2c:	2320      	movs	r3, #32
 8003b2e:	6763      	str	r3, [r4, #116]	; 0x74
          huart->RxState = HAL_UART_STATE_READY;
 8003b30:	67a3      	str	r3, [r4, #120]	; 0x78
          huart->ErrorCode = HAL_UART_ERROR_RTO;
 8003b32:	67e3      	str	r3, [r4, #124]	; 0x7c
 8003b34:	e7e4      	b.n	8003b00 <UART_WaitOnFlagUntilTimeout+0x50>

08003b36 <HAL_UART_Transmit>:
{
 8003b36:	e92d 43f7 	stmdb	sp!, {r0, r1, r2, r4, r5, r6, r7, r8, r9, lr}
 8003b3a:	4698      	mov	r8, r3
  if (huart->gState == HAL_UART_STATE_READY)
 8003b3c:	6f43      	ldr	r3, [r0, #116]	; 0x74
 8003b3e:	2b20      	cmp	r3, #32
{
 8003b40:	4604      	mov	r4, r0
 8003b42:	460e      	mov	r6, r1
 8003b44:	4691      	mov	r9, r2
  if (huart->gState == HAL_UART_STATE_READY)
 8003b46:	d14c      	bne.n	8003be2 <HAL_UART_Transmit+0xac>
    if ((pData == NULL) || (Size == 0U))
 8003b48:	2900      	cmp	r1, #0
 8003b4a:	d048      	beq.n	8003bde <HAL_UART_Transmit+0xa8>
 8003b4c:	2a00      	cmp	r2, #0
 8003b4e:	d046      	beq.n	8003bde <HAL_UART_Transmit+0xa8>
    __HAL_LOCK(huart);
 8003b50:	f890 3070 	ldrb.w	r3, [r0, #112]	; 0x70
 8003b54:	2b01      	cmp	r3, #1
 8003b56:	d044      	beq.n	8003be2 <HAL_UART_Transmit+0xac>
 8003b58:	2301      	movs	r3, #1
 8003b5a:	f880 3070 	strb.w	r3, [r0, #112]	; 0x70
    huart->ErrorCode = HAL_UART_ERROR_NONE;
 8003b5e:	2500      	movs	r5, #0
    huart->gState = HAL_UART_STATE_BUSY_TX;
 8003b60:	2321      	movs	r3, #33	; 0x21
    huart->ErrorCode = HAL_UART_ERROR_NONE;
 8003b62:	67c5      	str	r5, [r0, #124]	; 0x7c
    huart->gState = HAL_UART_STATE_BUSY_TX;
 8003b64:	6743      	str	r3, [r0, #116]	; 0x74
    tickstart = HAL_GetTick();
 8003b66:	f7fe f951 	bl	8001e0c <HAL_GetTick>
    if ((huart->Init.WordLength == UART_WORDLENGTH_9B) && (huart->Init.Parity == UART_PARITY_NONE))
 8003b6a:	68a3      	ldr	r3, [r4, #8]
    huart->TxXferSize  = Size;
 8003b6c:	f8a4 9050 	strh.w	r9, [r4, #80]	; 0x50
    if ((huart->Init.WordLength == UART_WORDLENGTH_9B) && (huart->Init.Parity == UART_PARITY_NONE))
 8003b70:	f5b3 5f80 	cmp.w	r3, #4096	; 0x1000
    tickstart = HAL_GetTick();
 8003b74:	4607      	mov	r7, r0
    huart->TxXferCount = Size;
 8003b76:	f8a4 9052 	strh.w	r9, [r4, #82]	; 0x52
    if ((huart->Init.WordLength == UART_WORDLENGTH_9B) && (huart->Init.Parity == UART_PARITY_NONE))
 8003b7a:	d103      	bne.n	8003b84 <HAL_UART_Transmit+0x4e>
 8003b7c:	6923      	ldr	r3, [r4, #16]
 8003b7e:	b90b      	cbnz	r3, 8003b84 <HAL_UART_Transmit+0x4e>
 8003b80:	4635      	mov	r5, r6
      pdata8bits  = NULL;
 8003b82:	461e      	mov	r6, r3
    __HAL_UNLOCK(huart);
 8003b84:	2300      	movs	r3, #0
 8003b86:	f884 3070 	strb.w	r3, [r4, #112]	; 0x70
    while (huart->TxXferCount > 0U)
 8003b8a:	f8b4 2052 	ldrh.w	r2, [r4, #82]	; 0x52
      if (UART_WaitOnFlagUntilTimeout(huart, UART_FLAG_TXE, RESET, tickstart, Timeout) != HAL_OK)
 8003b8e:	f8cd 8000 	str.w	r8, [sp]
    while (huart->TxXferCount > 0U)
 8003b92:	b292      	uxth	r2, r2
      if (UART_WaitOnFlagUntilTimeout(huart, UART_FLAG_TXE, RESET, tickstart, Timeout) != HAL_OK)
 8003b94:	463b      	mov	r3, r7
    while (huart->TxXferCount > 0U)
 8003b96:	b93a      	cbnz	r2, 8003ba8 <HAL_UART_Transmit+0x72>
    if (UART_WaitOnFlagUntilTimeout(huart, UART_FLAG_TC, RESET, tickstart, Timeout) != HAL_OK)
 8003b98:	2140      	movs	r1, #64	; 0x40
 8003b9a:	4620      	mov	r0, r4
 8003b9c:	f7ff ff88 	bl	8003ab0 <UART_WaitOnFlagUntilTimeout>
 8003ba0:	b940      	cbnz	r0, 8003bb4 <HAL_UART_Transmit+0x7e>
    huart->gState = HAL_UART_STATE_READY;
 8003ba2:	2320      	movs	r3, #32
 8003ba4:	6763      	str	r3, [r4, #116]	; 0x74
    return HAL_OK;
 8003ba6:	e006      	b.n	8003bb6 <HAL_UART_Transmit+0x80>
      if (UART_WaitOnFlagUntilTimeout(huart, UART_FLAG_TXE, RESET, tickstart, Timeout) != HAL_OK)
 8003ba8:	2200      	movs	r2, #0
 8003baa:	2180      	movs	r1, #128	; 0x80
 8003bac:	4620      	mov	r0, r4
 8003bae:	f7ff ff7f 	bl	8003ab0 <UART_WaitOnFlagUntilTimeout>
 8003bb2:	b118      	cbz	r0, 8003bbc <HAL_UART_Transmit+0x86>
        return HAL_TIMEOUT;
 8003bb4:	2003      	movs	r0, #3
}
 8003bb6:	b003      	add	sp, #12
 8003bb8:	e8bd 83f0 	ldmia.w	sp!, {r4, r5, r6, r7, r8, r9, pc}
 8003bbc:	6822      	ldr	r2, [r4, #0]
      if (pdata8bits == NULL)
 8003bbe:	b95e      	cbnz	r6, 8003bd8 <HAL_UART_Transmit+0xa2>
        huart->Instance->TDR = (uint16_t)(*pdata16bits & 0x01FFU);
 8003bc0:	f835 3b02 	ldrh.w	r3, [r5], #2
 8003bc4:	f3c3 0308 	ubfx	r3, r3, #0, #9
        huart->Instance->TDR = (uint8_t)(*pdata8bits & 0xFFU);
 8003bc8:	8513      	strh	r3, [r2, #40]	; 0x28
      huart->TxXferCount--;
 8003bca:	f8b4 3052 	ldrh.w	r3, [r4, #82]	; 0x52
 8003bce:	3b01      	subs	r3, #1
 8003bd0:	b29b      	uxth	r3, r3
 8003bd2:	f8a4 3052 	strh.w	r3, [r4, #82]	; 0x52
 8003bd6:	e7d8      	b.n	8003b8a <HAL_UART_Transmit+0x54>
        huart->Instance->TDR = (uint8_t)(*pdata8bits & 0xFFU);
 8003bd8:	f816 3b01 	ldrb.w	r3, [r6], #1
 8003bdc:	e7f4      	b.n	8003bc8 <HAL_UART_Transmit+0x92>
      return  HAL_ERROR;
 8003bde:	2001      	movs	r0, #1
 8003be0:	e7e9      	b.n	8003bb6 <HAL_UART_Transmit+0x80>
    return HAL_BUSY;
 8003be2:	2002      	movs	r0, #2
 8003be4:	e7e7      	b.n	8003bb6 <HAL_UART_Transmit+0x80>

08003be6 <UART_CheckIdleState>:
{
 8003be6:	b573      	push	{r0, r1, r4, r5, r6, lr}
 8003be8:	4604      	mov	r4, r0
  huart->ErrorCode = HAL_UART_ERROR_NONE;
 8003bea:	2600      	movs	r6, #0
 8003bec:	67c6      	str	r6, [r0, #124]	; 0x7c
  tickstart = HAL_GetTick();
 8003bee:	f7fe f90d 	bl	8001e0c <HAL_GetTick>
  if ((huart->Instance->CR1 & USART_CR1_TE) == USART_CR1_TE)
 8003bf2:	6823      	ldr	r3, [r4, #0]
 8003bf4:	681b      	ldr	r3, [r3, #0]
 8003bf6:	071a      	lsls	r2, r3, #28
  tickstart = HAL_GetTick();
 8003bf8:	4605      	mov	r5, r0
  if ((huart->Instance->CR1 & USART_CR1_TE) == USART_CR1_TE)
 8003bfa:	d415      	bmi.n	8003c28 <UART_CheckIdleState+0x42>
  if ((huart->Instance->CR1 & USART_CR1_RE) == USART_CR1_RE)
 8003bfc:	6823      	ldr	r3, [r4, #0]
 8003bfe:	681b      	ldr	r3, [r3, #0]
 8003c00:	075b      	lsls	r3, r3, #29
 8003c02:	d50a      	bpl.n	8003c1a <UART_CheckIdleState+0x34>
    if (UART_WaitOnFlagUntilTimeout(huart, USART_ISR_REACK, RESET, tickstart, HAL_UART_TIMEOUT_VALUE) != HAL_OK)
 8003c04:	f06f 437e 	mvn.w	r3, #4261412864	; 0xfe000000
 8003c08:	9300      	str	r3, [sp, #0]
 8003c0a:	2200      	movs	r2, #0
 8003c0c:	462b      	mov	r3, r5
 8003c0e:	f44f 0180 	mov.w	r1, #4194304	; 0x400000
 8003c12:	4620      	mov	r0, r4
 8003c14:	f7ff ff4c 	bl	8003ab0 <UART_WaitOnFlagUntilTimeout>
 8003c18:	b990      	cbnz	r0, 8003c40 <UART_CheckIdleState+0x5a>
  huart->gState = HAL_UART_STATE_READY;
 8003c1a:	2320      	movs	r3, #32
  __HAL_UNLOCK(huart);
 8003c1c:	2000      	movs	r0, #0
  huart->gState = HAL_UART_STATE_READY;
 8003c1e:	6763      	str	r3, [r4, #116]	; 0x74
  __HAL_UNLOCK(huart);
 8003c20:	f884 0070 	strb.w	r0, [r4, #112]	; 0x70
  huart->RxState = HAL_UART_STATE_READY;
 8003c24:	67a3      	str	r3, [r4, #120]	; 0x78
  return HAL_OK;
 8003c26:	e00c      	b.n	8003c42 <UART_CheckIdleState+0x5c>
    if (UART_WaitOnFlagUntilTimeout(huart, USART_ISR_TEACK, RESET, tickstart, HAL_UART_TIMEOUT_VALUE) != HAL_OK)
 8003c28:	f06f 437e 	mvn.w	r3, #4261412864	; 0xfe000000
 8003c2c:	9300      	str	r3, [sp, #0]
 8003c2e:	4632      	mov	r2, r6
 8003c30:	4603      	mov	r3, r0
 8003c32:	f44f 1100 	mov.w	r1, #2097152	; 0x200000
 8003c36:	4620      	mov	r0, r4
 8003c38:	f7ff ff3a 	bl	8003ab0 <UART_WaitOnFlagUntilTimeout>
 8003c3c:	2800      	cmp	r0, #0
 8003c3e:	d0dd      	beq.n	8003bfc <UART_CheckIdleState+0x16>
      return HAL_TIMEOUT;
 8003c40:	2003      	movs	r0, #3
}
 8003c42:	b002      	add	sp, #8
 8003c44:	bd70      	pop	{r4, r5, r6, pc}

08003c46 <HAL_UART_Init>:
{
 8003c46:	b510      	push	{r4, lr}
  if (huart == NULL)
 8003c48:	4604      	mov	r4, r0
 8003c4a:	b340      	cbz	r0, 8003c9e <HAL_UART_Init+0x58>
  if (huart->gState == HAL_UART_STATE_RESET)
 8003c4c:	6f43      	ldr	r3, [r0, #116]	; 0x74
 8003c4e:	b91b      	cbnz	r3, 8003c58 <HAL_UART_Init+0x12>
    huart->Lock = HAL_UNLOCKED;
 8003c50:	f880 3070 	strb.w	r3, [r0, #112]	; 0x70
    HAL_UART_MspInit(huart);
 8003c54:	f003 fc0e 	bl	8007474 <HAL_UART_MspInit>
  __HAL_UART_DISABLE(huart);
 8003c58:	6822      	ldr	r2, [r4, #0]
  huart->gState = HAL_UART_STATE_BUSY;
 8003c5a:	2324      	movs	r3, #36	; 0x24
 8003c5c:	6763      	str	r3, [r4, #116]	; 0x74
  __HAL_UART_DISABLE(huart);
 8003c5e:	6813      	ldr	r3, [r2, #0]
 8003c60:	f023 0301 	bic.w	r3, r3, #1
 8003c64:	6013      	str	r3, [r2, #0]
  if (UART_SetConfig(huart) == HAL_ERROR)
 8003c66:	4620      	mov	r0, r4
 8003c68:	f7ff fd36 	bl	80036d8 <UART_SetConfig>
 8003c6c:	2801      	cmp	r0, #1
 8003c6e:	d016      	beq.n	8003c9e <HAL_UART_Init+0x58>
  if (huart->AdvancedInit.AdvFeatureInit != UART_ADVFEATURE_NO_INIT)
 8003c70:	6a63      	ldr	r3, [r4, #36]	; 0x24
 8003c72:	b113      	cbz	r3, 8003c7a <HAL_UART_Init+0x34>
    UART_AdvFeatureConfig(huart);
 8003c74:	4620      	mov	r0, r4
 8003c76:	f7ff fec7 	bl	8003a08 <UART_AdvFeatureConfig>
  CLEAR_BIT(huart->Instance->CR2, (USART_CR2_LINEN | USART_CR2_CLKEN));
 8003c7a:	6823      	ldr	r3, [r4, #0]
 8003c7c:	685a      	ldr	r2, [r3, #4]
 8003c7e:	f422 4290 	bic.w	r2, r2, #18432	; 0x4800
 8003c82:	605a      	str	r2, [r3, #4]
  CLEAR_BIT(huart->Instance->CR3, (USART_CR3_SCEN | USART_CR3_HDSEL | USART_CR3_IREN));
 8003c84:	689a      	ldr	r2, [r3, #8]
 8003c86:	f022 022a 	bic.w	r2, r2, #42	; 0x2a
 8003c8a:	609a      	str	r2, [r3, #8]
  __HAL_UART_ENABLE(huart);
 8003c8c:	681a      	ldr	r2, [r3, #0]
 8003c8e:	f042 0201 	orr.w	r2, r2, #1
  return (UART_CheckIdleState(huart));
 8003c92:	4620      	mov	r0, r4
  __HAL_UART_ENABLE(huart);
 8003c94:	601a      	str	r2, [r3, #0]
}
 8003c96:	e8bd 4010 	ldmia.w	sp!, {r4, lr}
  return (UART_CheckIdleState(huart));
 8003c9a:	f7ff bfa4 	b.w	8003be6 <UART_CheckIdleState>
}
 8003c9e:	2001      	movs	r0, #1
 8003ca0:	bd10      	pop	{r4, pc}

08003ca2 <aci_gap_init_IDB05A1>:

#define MIN(a,b)            ((a) < (b) )? (a) : (b)
#define MAX(a,b)            ((a) > (b) )? (a) : (b)

tBleStatus aci_gap_init_IDB05A1(uint8_t role, uint8_t privacy_enabled, uint8_t device_name_char_len, uint16_t* service_handle, uint16_t* dev_name_char_handle, uint16_t* appearance_char_handle)
{
 8003ca2:	b570      	push	{r4, r5, r6, lr}
 8003ca4:	b08a      	sub	sp, #40	; 0x28
 
  cp.role = role;
  cp.privacy_enabled = privacy_enabled;
  cp.device_name_char_len = device_name_char_len;
    
  BLUENRG_memset(&resp, 0, sizeof(resp));
 8003ca6:	2400      	movs	r4, #0
  cp.role = role;
 8003ca8:	f88d 0004 	strb.w	r0, [sp, #4]
  cp.privacy_enabled = privacy_enabled;
 8003cac:	f88d 1005 	strb.w	r1, [sp, #5]
  cp.device_name_char_len = device_name_char_len;
 8003cb0:	f88d 2006 	strb.w	r2, [sp, #6]
  
  BLUENRG_memset(&rq, 0, sizeof(rq));
 8003cb4:	4621      	mov	r1, r4
 8003cb6:	2218      	movs	r2, #24
 8003cb8:	a804      	add	r0, sp, #16
{
 8003cba:	461e      	mov	r6, r3
  BLUENRG_memset(&resp, 0, sizeof(resp));
 8003cbc:	9402      	str	r4, [sp, #8]
 8003cbe:	f8cd 400b 	str.w	r4, [sp, #11]
  BLUENRG_memset(&rq, 0, sizeof(rq));
 8003cc2:	f004 fbc4 	bl	800844e <memset>
  rq.ogf = OGF_VENDOR_CMD;
 8003cc6:	233f      	movs	r3, #63	; 0x3f
 8003cc8:	f8ad 3010 	strh.w	r3, [sp, #16]
  rq.ocf = OCF_GAP_INIT;
 8003ccc:	238a      	movs	r3, #138	; 0x8a
 8003cce:	f8ad 3012 	strh.w	r3, [sp, #18]
  rq.cparam = &cp;
 8003cd2:	ab01      	add	r3, sp, #4
 8003cd4:	9306      	str	r3, [sp, #24]
  rq.clen = sizeof(cp);
 8003cd6:	2303      	movs	r3, #3
 8003cd8:	9307      	str	r3, [sp, #28]
  BLUENRG_memset(&resp, 0, sizeof(resp));
 8003cda:	ad02      	add	r5, sp, #8
  rq.rparam = &resp;
  rq.rlen = GAP_INIT_RP_SIZE;
 8003cdc:	2307      	movs	r3, #7
  
  if (hci_send_req(&rq, FALSE) < 0)
 8003cde:	4621      	mov	r1, r4
 8003ce0:	a804      	add	r0, sp, #16
  rq.rparam = &resp;
 8003ce2:	9508      	str	r5, [sp, #32]
  rq.rlen = GAP_INIT_RP_SIZE;
 8003ce4:	9309      	str	r3, [sp, #36]	; 0x24
  if (hci_send_req(&rq, FALSE) < 0)
 8003ce6:	f000 fab1 	bl	800424c <hci_send_req>
 8003cea:	42a0      	cmp	r0, r4
 8003cec:	db15      	blt.n	8003d1a <aci_gap_init_IDB05A1+0x78>
    return BLE_STATUS_TIMEOUT;
  
  if (resp.status) {
 8003cee:	f89d 0008 	ldrb.w	r0, [sp, #8]
 8003cf2:	b980      	cbnz	r0, 8003d16 <aci_gap_init_IDB05A1+0x74>
    return resp.status;
  }
  
  *service_handle = btohs(resp.service_handle);
 8003cf4:	9a02      	ldr	r2, [sp, #8]
  *dev_name_char_handle = btohs(resp.dev_name_char_handle);
 8003cf6:	f89d 300b 	ldrb.w	r3, [sp, #11]
  *service_handle = btohs(resp.service_handle);
 8003cfa:	f3c2 220f 	ubfx	r2, r2, #8, #16
 8003cfe:	8032      	strh	r2, [r6, #0]
  *dev_name_char_handle = btohs(resp.dev_name_char_handle);
 8003d00:	f89d 200c 	ldrb.w	r2, [sp, #12]
 8003d04:	ea43 2302 	orr.w	r3, r3, r2, lsl #8
 8003d08:	9a0e      	ldr	r2, [sp, #56]	; 0x38
 8003d0a:	8013      	strh	r3, [r2, #0]
  *appearance_char_handle = btohs(resp.appearance_char_handle);
 8003d0c:	9b03      	ldr	r3, [sp, #12]
 8003d0e:	9a0f      	ldr	r2, [sp, #60]	; 0x3c
 8003d10:	f3c3 230f 	ubfx	r3, r3, #8, #16
 8003d14:	8013      	strh	r3, [r2, #0]
  
  return 0;
}
 8003d16:	b00a      	add	sp, #40	; 0x28
 8003d18:	bd70      	pop	{r4, r5, r6, pc}
    return BLE_STATUS_TIMEOUT;
 8003d1a:	20ff      	movs	r0, #255	; 0xff
 8003d1c:	e7fb      	b.n	8003d16 <aci_gap_init_IDB05A1+0x74>

08003d1e <aci_gap_set_auth_requirement>:
                                        uint8_t min_encryption_key_size,
                                        uint8_t max_encryption_key_size,
                                        uint8_t use_fixed_pin,
                                        uint32_t fixed_pin,
                                        uint8_t bonding_mode)
{
 8003d1e:	b510      	push	{r4, lr}
 8003d20:	b08e      	sub	sp, #56	; 0x38
  struct hci_request rq;
  gap_set_auth_requirement_cp cp;    
  uint8_t status;
    
  cp.mitm_mode = mitm_mode;
 8003d22:	f88d 001c 	strb.w	r0, [sp, #28]
  cp.oob_enable = oob_enable;
 8003d26:	f88d 101d 	strb.w	r1, [sp, #29]
  BLUENRG_memcpy(cp.oob_data, oob_data, 16);
 8003d2a:	f102 0010 	add.w	r0, r2, #16
 8003d2e:	f10d 011e 	add.w	r1, sp, #30
 8003d32:	f852 4b04 	ldr.w	r4, [r2], #4
 8003d36:	f841 4b04 	str.w	r4, [r1], #4
 8003d3a:	4282      	cmp	r2, r0
 8003d3c:	d1f9      	bne.n	8003d32 <aci_gap_set_auth_requirement+0x14>
  cp.min_encryption_key_size = min_encryption_key_size;
 8003d3e:	f88d 302e 	strb.w	r3, [sp, #46]	; 0x2e
  cp.max_encryption_key_size = max_encryption_key_size;
 8003d42:	f89d 3040 	ldrb.w	r3, [sp, #64]	; 0x40
 8003d46:	f88d 302f 	strb.w	r3, [sp, #47]	; 0x2f
  cp.use_fixed_pin = use_fixed_pin;
 8003d4a:	f89d 3044 	ldrb.w	r3, [sp, #68]	; 0x44
 8003d4e:	f88d 3030 	strb.w	r3, [sp, #48]	; 0x30
  cp.fixed_pin = htobl(fixed_pin);
 8003d52:	9b12      	ldr	r3, [sp, #72]	; 0x48
 8003d54:	f8cd 3031 	str.w	r3, [sp, #49]	; 0x31
  cp.bonding_mode = bonding_mode;

  BLUENRG_memset(&rq, 0, sizeof(rq));
 8003d58:	2218      	movs	r2, #24
  cp.bonding_mode = bonding_mode;
 8003d5a:	f89d 304c 	ldrb.w	r3, [sp, #76]	; 0x4c
 8003d5e:	f88d 3035 	strb.w	r3, [sp, #53]	; 0x35
  BLUENRG_memset(&rq, 0, sizeof(rq));
 8003d62:	2100      	movs	r1, #0
 8003d64:	a801      	add	r0, sp, #4
 8003d66:	f004 fb72 	bl	800844e <memset>
  rq.ogf = OGF_VENDOR_CMD;
 8003d6a:	233f      	movs	r3, #63	; 0x3f
 8003d6c:	f8ad 3004 	strh.w	r3, [sp, #4]
  rq.ocf = OCF_GAP_SET_AUTH_REQUIREMENT;
 8003d70:	2386      	movs	r3, #134	; 0x86
 8003d72:	f8ad 3006 	strh.w	r3, [sp, #6]
  rq.cparam = &cp;
 8003d76:	ab07      	add	r3, sp, #28
 8003d78:	9303      	str	r3, [sp, #12]
  rq.clen = sizeof(cp);
 8003d7a:	231a      	movs	r3, #26
 8003d7c:	9304      	str	r3, [sp, #16]
  rq.rparam = &status;
 8003d7e:	f10d 0303 	add.w	r3, sp, #3
 8003d82:	9305      	str	r3, [sp, #20]
  rq.rlen = 1;

  if (hci_send_req(&rq, FALSE) < 0)
 8003d84:	2100      	movs	r1, #0
  rq.rlen = 1;
 8003d86:	2301      	movs	r3, #1
  if (hci_send_req(&rq, FALSE) < 0)
 8003d88:	a801      	add	r0, sp, #4
  rq.rlen = 1;
 8003d8a:	9306      	str	r3, [sp, #24]
  if (hci_send_req(&rq, FALSE) < 0)
 8003d8c:	f000 fa5e 	bl	800424c <hci_send_req>
 8003d90:	2800      	cmp	r0, #0
    return BLE_STATUS_TIMEOUT;

  if (status) {
 8003d92:	bfac      	ite	ge
 8003d94:	f89d 0003 	ldrbge.w	r0, [sp, #3]
    return BLE_STATUS_TIMEOUT;
 8003d98:	20ff      	movlt	r0, #255	; 0xff
    return status;
  }
    
  return 0;
}
 8003d9a:	b00e      	add	sp, #56	; 0x38
 8003d9c:	bd10      	pop	{r4, pc}

08003d9e <aci_gap_start_general_discovery_proc>:
  return status;
}

tBleStatus aci_gap_start_general_discovery_proc(uint16_t scanInterval, uint16_t scanWindow,
						uint8_t own_address_type, uint8_t filterDuplicates)
{
 8003d9e:	b500      	push	{lr}
 8003da0:	b08b      	sub	sp, #44	; 0x2c
  struct hci_request rq;
  gap_start_general_discovery_proc_cp cp;
  uint8_t status;  

  cp.scanInterval = htobs(scanInterval);
 8003da2:	f8ad 0008 	strh.w	r0, [sp, #8]
  cp.scanWindow = htobs(scanWindow);
 8003da6:	f8ad 100a 	strh.w	r1, [sp, #10]
  cp.own_address_type = own_address_type;
 8003daa:	f88d 200c 	strb.w	r2, [sp, #12]
  cp.filterDuplicates = filterDuplicates;

  BLUENRG_memset(&rq, 0, sizeof(rq));
 8003dae:	2100      	movs	r1, #0
 8003db0:	2218      	movs	r2, #24
 8003db2:	a804      	add	r0, sp, #16
  cp.filterDuplicates = filterDuplicates;
 8003db4:	f88d 300d 	strb.w	r3, [sp, #13]
  BLUENRG_memset(&rq, 0, sizeof(rq));
 8003db8:	f004 fb49 	bl	800844e <memset>
  rq.ogf = OGF_VENDOR_CMD;
 8003dbc:	233f      	movs	r3, #63	; 0x3f
 8003dbe:	f8ad 3010 	strh.w	r3, [sp, #16]
  rq.ocf = OCF_GAP_START_GENERAL_DISCOVERY_PROC;
 8003dc2:	2397      	movs	r3, #151	; 0x97
 8003dc4:	f8ad 3012 	strh.w	r3, [sp, #18]
  rq.cparam = &cp;
 8003dc8:	ab02      	add	r3, sp, #8
 8003dca:	9306      	str	r3, [sp, #24]
  rq.clen = sizeof(cp);
 8003dcc:	2306      	movs	r3, #6
 8003dce:	9307      	str	r3, [sp, #28]
  rq.event = EVT_CMD_STATUS;
 8003dd0:	230f      	movs	r3, #15
 8003dd2:	9305      	str	r3, [sp, #20]
  rq.rparam = &status;
 8003dd4:	f10d 0307 	add.w	r3, sp, #7
 8003dd8:	9308      	str	r3, [sp, #32]
  rq.rlen = 1;
  
  if (hci_send_req(&rq, FALSE) < 0)
 8003dda:	2100      	movs	r1, #0
  rq.rlen = 1;
 8003ddc:	2301      	movs	r3, #1
  if (hci_send_req(&rq, FALSE) < 0)
 8003dde:	a804      	add	r0, sp, #16
  rq.rlen = 1;
 8003de0:	9309      	str	r3, [sp, #36]	; 0x24
  if (hci_send_req(&rq, FALSE) < 0)
 8003de2:	f000 fa33 	bl	800424c <hci_send_req>
 8003de6:	2800      	cmp	r0, #0
    return BLE_STATUS_TIMEOUT;

  return status;
 8003de8:	bfac      	ite	ge
 8003dea:	f89d 0007 	ldrbge.w	r0, [sp, #7]
    return BLE_STATUS_TIMEOUT;
 8003dee:	20ff      	movlt	r0, #255	; 0xff
}
 8003df0:	b00b      	add	sp, #44	; 0x2c
 8003df2:	f85d fb04 	ldr.w	pc, [sp], #4

08003df6 <aci_gap_create_connection>:
				     uint8_t peer_bdaddr_type, tBDAddr peer_bdaddr,	
				     uint8_t own_bdaddr_type, uint16_t conn_min_interval,	
				     uint16_t conn_max_interval, uint16_t conn_latency,	
				     uint16_t supervision_timeout, uint16_t min_conn_length, 
				     uint16_t max_conn_length)
{
 8003df6:	b510      	push	{r4, lr}
 8003df8:	b08e      	sub	sp, #56	; 0x38
  cp.conn_latency = htobs(conn_latency);
  cp.supervision_timeout = htobs(supervision_timeout);
  cp.min_conn_length = htobs(min_conn_length);
  cp.max_conn_length = htobs(max_conn_length);

  BLUENRG_memset(&rq, 0, sizeof(rq));
 8003dfa:	2418      	movs	r4, #24
  cp.peer_bdaddr_type = peer_bdaddr_type;
 8003dfc:	f88d 2024 	strb.w	r2, [sp, #36]	; 0x24
  BLUENRG_memcpy(cp.peer_bdaddr, peer_bdaddr, 6);
 8003e00:	681a      	ldr	r2, [r3, #0]
 8003e02:	889b      	ldrh	r3, [r3, #4]
 8003e04:	f8ad 3029 	strh.w	r3, [sp, #41]	; 0x29
  cp.own_bdaddr_type = own_bdaddr_type;
 8003e08:	f89d 3040 	ldrb.w	r3, [sp, #64]	; 0x40
 8003e0c:	f88d 302b 	strb.w	r3, [sp, #43]	; 0x2b
  cp.conn_min_interval = htobs(conn_min_interval);
 8003e10:	f8bd 3044 	ldrh.w	r3, [sp, #68]	; 0x44
 8003e14:	f8ad 302c 	strh.w	r3, [sp, #44]	; 0x2c
  cp.conn_max_interval = htobs(conn_max_interval);
 8003e18:	f8bd 3048 	ldrh.w	r3, [sp, #72]	; 0x48
 8003e1c:	f8ad 302e 	strh.w	r3, [sp, #46]	; 0x2e
  cp.conn_latency = htobs(conn_latency);
 8003e20:	f8bd 304c 	ldrh.w	r3, [sp, #76]	; 0x4c
 8003e24:	f8ad 3030 	strh.w	r3, [sp, #48]	; 0x30
  cp.supervision_timeout = htobs(supervision_timeout);
 8003e28:	f8bd 3050 	ldrh.w	r3, [sp, #80]	; 0x50
 8003e2c:	f8ad 3032 	strh.w	r3, [sp, #50]	; 0x32
  cp.min_conn_length = htobs(min_conn_length);
 8003e30:	f8bd 3054 	ldrh.w	r3, [sp, #84]	; 0x54
  cp.scanInterval = htobs(scanInterval);
 8003e34:	f8ad 0020 	strh.w	r0, [sp, #32]
  cp.scanWindow = htobs(scanWindow);
 8003e38:	f8ad 1022 	strh.w	r1, [sp, #34]	; 0x22
  BLUENRG_memcpy(cp.peer_bdaddr, peer_bdaddr, 6);
 8003e3c:	f8cd 2025 	str.w	r2, [sp, #37]	; 0x25
  cp.min_conn_length = htobs(min_conn_length);
 8003e40:	f8ad 3034 	strh.w	r3, [sp, #52]	; 0x34
  BLUENRG_memset(&rq, 0, sizeof(rq));
 8003e44:	4622      	mov	r2, r4
  cp.max_conn_length = htobs(max_conn_length);
 8003e46:	f8bd 3058 	ldrh.w	r3, [sp, #88]	; 0x58
 8003e4a:	f8ad 3036 	strh.w	r3, [sp, #54]	; 0x36
  BLUENRG_memset(&rq, 0, sizeof(rq));
 8003e4e:	2100      	movs	r1, #0
 8003e50:	a802      	add	r0, sp, #8
 8003e52:	f004 fafc 	bl	800844e <memset>
  rq.ogf = OGF_VENDOR_CMD;
 8003e56:	233f      	movs	r3, #63	; 0x3f
 8003e58:	f8ad 3008 	strh.w	r3, [sp, #8]
  rq.ocf = OCF_GAP_CREATE_CONNECTION;
 8003e5c:	239c      	movs	r3, #156	; 0x9c
 8003e5e:	f8ad 300a 	strh.w	r3, [sp, #10]
  rq.cparam = &cp;
 8003e62:	ab08      	add	r3, sp, #32
 8003e64:	9304      	str	r3, [sp, #16]
  rq.clen = sizeof(cp);
  rq.event = EVT_CMD_STATUS;
 8003e66:	230f      	movs	r3, #15
 8003e68:	9303      	str	r3, [sp, #12]
  rq.rparam = &status;
 8003e6a:	f10d 0307 	add.w	r3, sp, #7
 8003e6e:	9306      	str	r3, [sp, #24]
  rq.rlen = 1;
  
  if (hci_send_req(&rq, FALSE) < 0)
 8003e70:	2100      	movs	r1, #0
  rq.rlen = 1;
 8003e72:	2301      	movs	r3, #1
  if (hci_send_req(&rq, FALSE) < 0)
 8003e74:	a802      	add	r0, sp, #8
  rq.clen = sizeof(cp);
 8003e76:	9405      	str	r4, [sp, #20]
  rq.rlen = 1;
 8003e78:	9307      	str	r3, [sp, #28]
  if (hci_send_req(&rq, FALSE) < 0)
 8003e7a:	f000 f9e7 	bl	800424c <hci_send_req>
 8003e7e:	2800      	cmp	r0, #0

  //TODO check
//  if (hci_send_req(&rq, TRUE) < 0)
//    return BLE_STATUS_TIMEOUT;

  return status;
 8003e80:	bfac      	ite	ge
 8003e82:	f89d 0007 	ldrbge.w	r0, [sp, #7]
    return BLE_STATUS_TIMEOUT;
 8003e86:	20ff      	movlt	r0, #255	; 0xff
}
 8003e88:	b00e      	add	sp, #56	; 0x38
 8003e8a:	bd10      	pop	{r4, pc}

08003e8c <aci_gatt_init>:
#define MIN(a,b)            ((a) < (b) )? (a) : (b)
#define MAX(a,b)            ((a) > (b) )? (a) : (b)


tBleStatus aci_gatt_init(void)
{
 8003e8c:	b500      	push	{lr}
 8003e8e:	b089      	sub	sp, #36	; 0x24
  struct hci_request rq;
  uint8_t status;

  BLUENRG_memset(&rq, 0, sizeof(rq));
 8003e90:	2218      	movs	r2, #24
 8003e92:	2100      	movs	r1, #0
 8003e94:	a802      	add	r0, sp, #8
 8003e96:	f004 fada 	bl	800844e <memset>
  rq.ogf = OGF_VENDOR_CMD;
 8003e9a:	233f      	movs	r3, #63	; 0x3f
 8003e9c:	f8ad 3008 	strh.w	r3, [sp, #8]
  rq.ocf = OCF_GATT_INIT;
 8003ea0:	f240 1301 	movw	r3, #257	; 0x101
 8003ea4:	f8ad 300a 	strh.w	r3, [sp, #10]
  rq.rparam = &status;
 8003ea8:	f10d 0307 	add.w	r3, sp, #7
 8003eac:	9306      	str	r3, [sp, #24]
  rq.rlen = 1;

  if (hci_send_req(&rq, FALSE) < 0)
 8003eae:	2100      	movs	r1, #0
  rq.rlen = 1;
 8003eb0:	2301      	movs	r3, #1
  if (hci_send_req(&rq, FALSE) < 0)
 8003eb2:	a802      	add	r0, sp, #8
  rq.rlen = 1;
 8003eb4:	9307      	str	r3, [sp, #28]
  if (hci_send_req(&rq, FALSE) < 0)
 8003eb6:	f000 f9c9 	bl	800424c <hci_send_req>
 8003eba:	2800      	cmp	r0, #0
    return BLE_STATUS_TIMEOUT;

  return status;
 8003ebc:	bfac      	ite	ge
 8003ebe:	f89d 0007 	ldrbge.w	r0, [sp, #7]
    return BLE_STATUS_TIMEOUT;
 8003ec2:	20ff      	movlt	r0, #255	; 0xff
}
 8003ec4:	b009      	add	sp, #36	; 0x24
 8003ec6:	f85d fb04 	ldr.w	pc, [sp], #4

08003eca <aci_gatt_disc_charac_by_uuid>:
}

tBleStatus aci_gatt_disc_charac_by_uuid(uint16_t conn_handle, uint16_t start_handle,
				                     uint16_t end_handle, uint8_t charUuidType,
                                                     const uint8_t* charUuid)
{
 8003eca:	b510      	push	{r4, lr}
  indx += 2;
  
  buffer[indx] = charUuidType;
  indx++;
    
  if(charUuidType == 0x01){
 8003ecc:	2b01      	cmp	r3, #1
{
 8003ece:	b08e      	sub	sp, #56	; 0x38
    uuid_len = 2;
  }
  else {
    uuid_len = 16;
 8003ed0:	bf0c      	ite	eq
 8003ed2:	2402      	moveq	r4, #2
 8003ed4:	2410      	movne	r4, #16
  BLUENRG_memcpy(buffer + indx, &conn_handle, 2);
 8003ed6:	f8ad 0008 	strh.w	r0, [sp, #8]
  BLUENRG_memcpy(buffer + indx, &start_handle, 2);
 8003eda:	f8ad 100a 	strh.w	r1, [sp, #10]
  BLUENRG_memcpy(buffer + indx, &end_handle, 2);
 8003ede:	f8ad 200c 	strh.w	r2, [sp, #12]
  }        
  BLUENRG_memcpy(buffer + indx, charUuid, uuid_len);
 8003ee2:	9910      	ldr	r1, [sp, #64]	; 0x40
  buffer[indx] = charUuidType;
 8003ee4:	f88d 300e 	strb.w	r3, [sp, #14]
  BLUENRG_memcpy(buffer + indx, charUuid, uuid_len);
 8003ee8:	4622      	mov	r2, r4
 8003eea:	f10d 000f 	add.w	r0, sp, #15
 8003eee:	f004 faa3 	bl	8008438 <memcpy>
  indx +=  uuid_len;

  BLUENRG_memset(&rq, 0, sizeof(rq));
 8003ef2:	2218      	movs	r2, #24
 8003ef4:	2100      	movs	r1, #0
 8003ef6:	a808      	add	r0, sp, #32
 8003ef8:	f004 faa9 	bl	800844e <memset>
  rq.ogf = OGF_VENDOR_CMD;
 8003efc:	233f      	movs	r3, #63	; 0x3f
 8003efe:	f8ad 3020 	strh.w	r3, [sp, #32]
  rq.ocf = OCF_GATT_DISC_CHARAC_BY_UUID;
 8003f02:	f44f 738b 	mov.w	r3, #278	; 0x116
 8003f06:	f8ad 3022 	strh.w	r3, [sp, #34]	; 0x22
  rq.cparam = (void *)buffer;
 8003f0a:	ab02      	add	r3, sp, #8
 8003f0c:	930a      	str	r3, [sp, #40]	; 0x28
  rq.clen = indx;
  rq.event = EVT_CMD_STATUS;
 8003f0e:	230f      	movs	r3, #15
 8003f10:	9309      	str	r3, [sp, #36]	; 0x24
  rq.rparam = &status;
 8003f12:	f10d 0307 	add.w	r3, sp, #7
 8003f16:	930c      	str	r3, [sp, #48]	; 0x30
  rq.clen = indx;
 8003f18:	3407      	adds	r4, #7
  rq.rlen = 1;
 8003f1a:	2301      	movs	r3, #1

  if (hci_send_req(&rq, FALSE) < 0)
 8003f1c:	2100      	movs	r1, #0
 8003f1e:	a808      	add	r0, sp, #32
  rq.clen = indx;
 8003f20:	940b      	str	r4, [sp, #44]	; 0x2c
  rq.rlen = 1;
 8003f22:	930d      	str	r3, [sp, #52]	; 0x34
  if (hci_send_req(&rq, FALSE) < 0)
 8003f24:	f000 f992 	bl	800424c <hci_send_req>
 8003f28:	2800      	cmp	r0, #0
    return BLE_STATUS_TIMEOUT;

  return status;
 8003f2a:	bfac      	ite	ge
 8003f2c:	f89d 0007 	ldrbge.w	r0, [sp, #7]
    return BLE_STATUS_TIMEOUT;
 8003f30:	20ff      	movlt	r0, #255	; 0xff
}
 8003f32:	b00e      	add	sp, #56	; 0x38
 8003f34:	bd10      	pop	{r4, pc}

08003f36 <aci_gatt_write_charac_descriptor>:
  return status;
}

tBleStatus aci_gatt_write_charac_descriptor(uint16_t conn_handle, uint16_t attr_handle, 
					   uint8_t value_len, uint8_t *attr_value)
{
 8003f36:	b510      	push	{r4, lr}
  struct hci_request rq;
  uint8_t status;
  uint8_t buffer[HCI_MAX_PAYLOAD_SIZE];
  uint8_t indx = 0;
    
  if ((value_len+5) > HCI_MAX_PAYLOAD_SIZE)
 8003f38:	2a7b      	cmp	r2, #123	; 0x7b
{
 8003f3a:	b0a8      	sub	sp, #160	; 0xa0
 8003f3c:	4614      	mov	r4, r2
  if ((value_len+5) > HCI_MAX_PAYLOAD_SIZE)
 8003f3e:	dc2c      	bgt.n	8003f9a <aci_gatt_write_charac_descriptor+0x64>
    return BLE_STATUS_INVALID_PARAMS;

  conn_handle = htobs(conn_handle);
  BLUENRG_memcpy(buffer + indx, &conn_handle, 2);
 8003f40:	f8ad 0020 	strh.w	r0, [sp, #32]
  indx += 2;
    
  attr_handle = htobs(attr_handle);
  BLUENRG_memcpy(buffer + indx, &attr_handle, 2);
 8003f44:	f8ad 1022 	strh.w	r1, [sp, #34]	; 0x22
  indx += 2;

  buffer[indx] = value_len;
  indx++;
        
  BLUENRG_memcpy(buffer + indx, attr_value, value_len);
 8003f48:	f10d 0025 	add.w	r0, sp, #37	; 0x25
 8003f4c:	4619      	mov	r1, r3
  buffer[indx] = value_len;
 8003f4e:	f88d 2024 	strb.w	r2, [sp, #36]	; 0x24
  BLUENRG_memcpy(buffer + indx, attr_value, value_len);
 8003f52:	f004 fa71 	bl	8008438 <memcpy>
  indx +=  value_len;

  BLUENRG_memset(&rq, 0, sizeof(rq));
 8003f56:	2218      	movs	r2, #24
 8003f58:	2100      	movs	r1, #0
 8003f5a:	a802      	add	r0, sp, #8
 8003f5c:	f004 fa77 	bl	800844e <memset>
  rq.ogf = OGF_VENDOR_CMD;
 8003f60:	233f      	movs	r3, #63	; 0x3f
 8003f62:	f8ad 3008 	strh.w	r3, [sp, #8]
  rq.ocf = OCF_GATT_WRITE_CHAR_DESCRIPTOR;
 8003f66:	f240 1321 	movw	r3, #289	; 0x121
 8003f6a:	f8ad 300a 	strh.w	r3, [sp, #10]
  rq.cparam = (void *)buffer;
 8003f6e:	ab08      	add	r3, sp, #32
 8003f70:	9304      	str	r3, [sp, #16]
  rq.clen = indx;
  rq.event = EVT_CMD_STATUS; 
 8003f72:	230f      	movs	r3, #15
 8003f74:	9303      	str	r3, [sp, #12]
  indx +=  value_len;
 8003f76:	3405      	adds	r4, #5
  rq.rparam = &status;
 8003f78:	f10d 0307 	add.w	r3, sp, #7
 8003f7c:	9306      	str	r3, [sp, #24]
  rq.clen = indx;
 8003f7e:	b2e4      	uxtb	r4, r4
  rq.rlen = 1;
 8003f80:	2301      	movs	r3, #1

  if (hci_send_req(&rq, FALSE) < 0)
 8003f82:	2100      	movs	r1, #0
 8003f84:	a802      	add	r0, sp, #8
  rq.clen = indx;
 8003f86:	9405      	str	r4, [sp, #20]
  rq.rlen = 1;
 8003f88:	9307      	str	r3, [sp, #28]
  if (hci_send_req(&rq, FALSE) < 0)
 8003f8a:	f000 f95f 	bl	800424c <hci_send_req>
 8003f8e:	2800      	cmp	r0, #0
 8003f90:	db05      	blt.n	8003f9e <aci_gatt_write_charac_descriptor+0x68>
    return BLE_STATUS_TIMEOUT;

  return status;
 8003f92:	f89d 0007 	ldrb.w	r0, [sp, #7]
}
 8003f96:	b028      	add	sp, #160	; 0xa0
 8003f98:	bd10      	pop	{r4, pc}
    return BLE_STATUS_INVALID_PARAMS;
 8003f9a:	2042      	movs	r0, #66	; 0x42
 8003f9c:	e7fb      	b.n	8003f96 <aci_gatt_write_charac_descriptor+0x60>
    return BLE_STATUS_TIMEOUT;
 8003f9e:	20ff      	movs	r0, #255	; 0xff
 8003fa0:	e7f9      	b.n	8003f96 <aci_gatt_write_charac_descriptor+0x60>

08003fa2 <aci_gatt_write_without_response>:
  return status;
}

tBleStatus aci_gatt_write_without_response(uint16_t conn_handle, uint16_t attr_handle,
                                              uint8_t val_len, const uint8_t* attr_val)
{
 8003fa2:	b510      	push	{r4, lr}
  struct hci_request rq;
  uint8_t status;
  gatt_write_without_resp_cp cp;
  
  if(val_len > sizeof(cp.attr_val))
 8003fa4:	2a14      	cmp	r2, #20
{
 8003fa6:	b08e      	sub	sp, #56	; 0x38
 8003fa8:	4614      	mov	r4, r2
  if(val_len > sizeof(cp.attr_val))
 8003faa:	d829      	bhi.n	8004000 <aci_gatt_write_without_response+0x5e>
    return BLE_STATUS_INVALID_PARAMS;

  cp.conn_handle = htobs(conn_handle);
 8003fac:	f8ad 001c 	strh.w	r0, [sp, #28]
  cp.attr_handle = htobs(attr_handle);
 8003fb0:	f8ad 101e 	strh.w	r1, [sp, #30]
  cp.val_len = val_len;
  BLUENRG_memcpy(cp.attr_val, attr_val, val_len);
 8003fb4:	f10d 0021 	add.w	r0, sp, #33	; 0x21
 8003fb8:	4619      	mov	r1, r3
  cp.val_len = val_len;
 8003fba:	f88d 2020 	strb.w	r2, [sp, #32]
  BLUENRG_memcpy(cp.attr_val, attr_val, val_len);
 8003fbe:	f004 fa3b 	bl	8008438 <memcpy>

  BLUENRG_memset(&rq, 0, sizeof(rq));
 8003fc2:	2218      	movs	r2, #24
 8003fc4:	2100      	movs	r1, #0
 8003fc6:	a801      	add	r0, sp, #4
 8003fc8:	f004 fa41 	bl	800844e <memset>
  rq.ogf = OGF_VENDOR_CMD;
 8003fcc:	233f      	movs	r3, #63	; 0x3f
 8003fce:	f8ad 3004 	strh.w	r3, [sp, #4]
  rq.ocf = OCF_GATT_WRITE_WITHOUT_RESPONSE;
 8003fd2:	f240 1323 	movw	r3, #291	; 0x123
 8003fd6:	f8ad 3006 	strh.w	r3, [sp, #6]
  rq.cparam = &cp;
 8003fda:	ab07      	add	r3, sp, #28
 8003fdc:	9303      	str	r3, [sp, #12]
  rq.clen = GATT_WRITE_WITHOUT_RESPONSE_CP_SIZE + val_len; 
  rq.rparam = &status;
 8003fde:	f10d 0303 	add.w	r3, sp, #3
 8003fe2:	9305      	str	r3, [sp, #20]
  rq.clen = GATT_WRITE_WITHOUT_RESPONSE_CP_SIZE + val_len; 
 8003fe4:	3405      	adds	r4, #5
  rq.rlen = 1;
 8003fe6:	2301      	movs	r3, #1

  if (hci_send_req(&rq, FALSE) < 0)
 8003fe8:	2100      	movs	r1, #0
 8003fea:	a801      	add	r0, sp, #4
  rq.clen = GATT_WRITE_WITHOUT_RESPONSE_CP_SIZE + val_len; 
 8003fec:	9404      	str	r4, [sp, #16]
  rq.rlen = 1;
 8003fee:	9306      	str	r3, [sp, #24]
  if (hci_send_req(&rq, FALSE) < 0)
 8003ff0:	f000 f92c 	bl	800424c <hci_send_req>
 8003ff4:	2800      	cmp	r0, #0
 8003ff6:	db05      	blt.n	8004004 <aci_gatt_write_without_response+0x62>
    return BLE_STATUS_TIMEOUT;

  return status;
 8003ff8:	f89d 0003 	ldrb.w	r0, [sp, #3]
}
 8003ffc:	b00e      	add	sp, #56	; 0x38
 8003ffe:	bd10      	pop	{r4, pc}
    return BLE_STATUS_INVALID_PARAMS;
 8004000:	2042      	movs	r0, #66	; 0x42
 8004002:	e7fb      	b.n	8003ffc <aci_gatt_write_without_response+0x5a>
    return BLE_STATUS_TIMEOUT;
 8004004:	20ff      	movs	r0, #255	; 0xff
 8004006:	e7f9      	b.n	8003ffc <aci_gatt_write_without_response+0x5a>

08004008 <aci_hal_write_config_data>:
}

tBleStatus aci_hal_write_config_data(uint8_t offset, 
                                    uint8_t len,
                                    const uint8_t *val)
{
 8004008:	b510      	push	{r4, lr}
 800400a:	460c      	mov	r4, r1
  struct hci_request rq;
  uint8_t status;
  uint8_t buffer[HCI_MAX_PAYLOAD_SIZE];
  uint8_t indx = 0;
    
  if ((len+2) > HCI_MAX_PAYLOAD_SIZE)
 800400c:	2c7e      	cmp	r4, #126	; 0x7e
{
 800400e:	b0a8      	sub	sp, #160	; 0xa0
 8004010:	4611      	mov	r1, r2
  if ((len+2) > HCI_MAX_PAYLOAD_SIZE)
 8004012:	dc27      	bgt.n	8004064 <aci_hal_write_config_data+0x5c>
  indx++;
    
  buffer[indx] = len;
  indx++;
        
  BLUENRG_memcpy(buffer + indx, val, len);
 8004014:	4622      	mov	r2, r4
  buffer[indx] = offset;
 8004016:	f88d 0020 	strb.w	r0, [sp, #32]
  BLUENRG_memcpy(buffer + indx, val, len);
 800401a:	f10d 0022 	add.w	r0, sp, #34	; 0x22
  buffer[indx] = len;
 800401e:	f88d 4021 	strb.w	r4, [sp, #33]	; 0x21
  BLUENRG_memcpy(buffer + indx, val, len);
 8004022:	f004 fa09 	bl	8008438 <memcpy>
  indx +=  len;

  BLUENRG_memset(&rq, 0, sizeof(rq));
 8004026:	2218      	movs	r2, #24
 8004028:	2100      	movs	r1, #0
 800402a:	a802      	add	r0, sp, #8
 800402c:	f004 fa0f 	bl	800844e <memset>
  rq.ogf = OGF_VENDOR_CMD;
 8004030:	233f      	movs	r3, #63	; 0x3f
 8004032:	f8ad 3008 	strh.w	r3, [sp, #8]
  rq.ocf = OCF_HAL_WRITE_CONFIG_DATA;
 8004036:	230c      	movs	r3, #12
 8004038:	f8ad 300a 	strh.w	r3, [sp, #10]
  rq.cparam = (void *)buffer;
 800403c:	ab08      	add	r3, sp, #32
 800403e:	9304      	str	r3, [sp, #16]
  indx +=  len;
 8004040:	3402      	adds	r4, #2
  rq.clen = indx;
  rq.rparam = &status;
 8004042:	f10d 0307 	add.w	r3, sp, #7
 8004046:	9306      	str	r3, [sp, #24]
  rq.clen = indx;
 8004048:	b2e4      	uxtb	r4, r4
  rq.rlen = 1;
 800404a:	2301      	movs	r3, #1

  if (hci_send_req(&rq, FALSE) < 0)
 800404c:	2100      	movs	r1, #0
 800404e:	a802      	add	r0, sp, #8
  rq.clen = indx;
 8004050:	9405      	str	r4, [sp, #20]
  rq.rlen = 1;
 8004052:	9307      	str	r3, [sp, #28]
  if (hci_send_req(&rq, FALSE) < 0)
 8004054:	f000 f8fa 	bl	800424c <hci_send_req>
 8004058:	2800      	cmp	r0, #0
 800405a:	db05      	blt.n	8004068 <aci_hal_write_config_data+0x60>
    return BLE_STATUS_TIMEOUT;

  return status;
 800405c:	f89d 0007 	ldrb.w	r0, [sp, #7]
}
 8004060:	b028      	add	sp, #160	; 0xa0
 8004062:	bd10      	pop	{r4, pc}
    return BLE_STATUS_INVALID_PARAMS;
 8004064:	2042      	movs	r0, #66	; 0x42
 8004066:	e7fb      	b.n	8004060 <aci_hal_write_config_data+0x58>
    return BLE_STATUS_TIMEOUT;
 8004068:	20ff      	movs	r0, #255	; 0xff
 800406a:	e7f9      	b.n	8004060 <aci_hal_write_config_data+0x58>

0800406c <aci_hal_set_tx_power_level>:
  
  return 0;
}

tBleStatus aci_hal_set_tx_power_level(uint8_t en_high_power, uint8_t pa_level)
{
 800406c:	b500      	push	{lr}
 800406e:	b089      	sub	sp, #36	; 0x24
  uint8_t status;
    
  cp.en_high_power = en_high_power;
  cp.pa_level = pa_level;

  BLUENRG_memset(&rq, 0, sizeof(rq));
 8004070:	2218      	movs	r2, #24
  cp.en_high_power = en_high_power;
 8004072:	f88d 0004 	strb.w	r0, [sp, #4]
  cp.pa_level = pa_level;
 8004076:	f88d 1005 	strb.w	r1, [sp, #5]
  BLUENRG_memset(&rq, 0, sizeof(rq));
 800407a:	a802      	add	r0, sp, #8
 800407c:	2100      	movs	r1, #0
 800407e:	f004 f9e6 	bl	800844e <memset>
  rq.ogf = OGF_VENDOR_CMD;
 8004082:	233f      	movs	r3, #63	; 0x3f
 8004084:	f8ad 3008 	strh.w	r3, [sp, #8]
  rq.ocf = OCF_HAL_SET_TX_POWER_LEVEL;
 8004088:	230f      	movs	r3, #15
 800408a:	f8ad 300a 	strh.w	r3, [sp, #10]
  rq.cparam = &cp;
 800408e:	ab01      	add	r3, sp, #4
 8004090:	9304      	str	r3, [sp, #16]
  rq.clen = HAL_SET_TX_POWER_LEVEL_CP_SIZE;
 8004092:	2302      	movs	r3, #2
 8004094:	9305      	str	r3, [sp, #20]
  rq.rparam = &status;
 8004096:	f10d 0303 	add.w	r3, sp, #3
 800409a:	9306      	str	r3, [sp, #24]
  rq.rlen = 1;

  if (hci_send_req(&rq, FALSE) < 0)
 800409c:	2100      	movs	r1, #0
  rq.rlen = 1;
 800409e:	2301      	movs	r3, #1
  if (hci_send_req(&rq, FALSE) < 0)
 80040a0:	a802      	add	r0, sp, #8
  rq.rlen = 1;
 80040a2:	9307      	str	r3, [sp, #28]
  if (hci_send_req(&rq, FALSE) < 0)
 80040a4:	f000 f8d2 	bl	800424c <hci_send_req>
 80040a8:	2800      	cmp	r0, #0
    return BLE_STATUS_TIMEOUT;

  return status;
 80040aa:	bfac      	ite	ge
 80040ac:	f89d 0003 	ldrbge.w	r0, [sp, #3]
    return BLE_STATUS_TIMEOUT;
 80040b0:	20ff      	movlt	r0, #255	; 0xff
}
 80040b2:	b009      	add	sp, #36	; 0x24
 80040b4:	f85d fb04 	ldr.w	pc, [sp], #4

080040b8 <getBlueNRGVersion>:
#include "hci.h"
#include "hci_le.h"
#include "string.h"

uint8_t getBlueNRGVersion(uint8_t *hwVersion, uint16_t *fwVersion)
{
 80040b8:	b530      	push	{r4, r5, lr}
 80040ba:	b085      	sub	sp, #20
  uint8_t status;
  uint8_t hci_version, lmp_pal_version;
  uint16_t hci_revision, manufacturer_name, lmp_pal_subversion;

  status = hci_le_read_local_version(&hci_version, &hci_revision, &lmp_pal_version, 
 80040bc:	f10d 030e 	add.w	r3, sp, #14
 80040c0:	9300      	str	r3, [sp, #0]
{
 80040c2:	4605      	mov	r5, r0
 80040c4:	460c      	mov	r4, r1
  status = hci_le_read_local_version(&hci_version, &hci_revision, &lmp_pal_version, 
 80040c6:	ab03      	add	r3, sp, #12
 80040c8:	f10d 0209 	add.w	r2, sp, #9
 80040cc:	f10d 010a 	add.w	r1, sp, #10
 80040d0:	a802      	add	r0, sp, #8
 80040d2:	f000 f82f 	bl	8004134 <hci_le_read_local_version>
 80040d6:	b2c0      	uxtb	r0, r0
				     &manufacturer_name, &lmp_pal_subversion);

  if (status == BLE_STATUS_SUCCESS) {
 80040d8:	b968      	cbnz	r0, 80040f6 <getBlueNRGVersion+0x3e>
    *hwVersion = hci_revision >> 8;
 80040da:	f8bd 100a 	ldrh.w	r1, [sp, #10]
    *fwVersion = (hci_revision & 0xFF) << 8;              // Major Version Number
    *fwVersion |= ((lmp_pal_subversion >> 4) & 0xF) << 4; // Minor Version Number
 80040de:	f8bd 200e 	ldrh.w	r2, [sp, #14]
    *hwVersion = hci_revision >> 8;
 80040e2:	0a0b      	lsrs	r3, r1, #8
 80040e4:	702b      	strb	r3, [r5, #0]
    *fwVersion |= lmp_pal_subversion & 0xF;               // Patch Version Number
 80040e6:	f002 030f 	and.w	r3, r2, #15
 80040ea:	ea43 2301 	orr.w	r3, r3, r1, lsl #8
    *fwVersion |= ((lmp_pal_subversion >> 4) & 0xF) << 4; // Minor Version Number
 80040ee:	f002 02f0 	and.w	r2, r2, #240	; 0xf0
    *fwVersion |= lmp_pal_subversion & 0xF;               // Patch Version Number
 80040f2:	4313      	orrs	r3, r2
 80040f4:	8023      	strh	r3, [r4, #0]
  }
  return status;
}
 80040f6:	b005      	add	sp, #20
 80040f8:	bd30      	pop	{r4, r5, pc}

080040fa <hci_reset>:

#define MIN(a,b)            ((a) < (b) )? (a) : (b)
#define MAX(a,b)            ((a) > (b) )? (a) : (b)

int hci_reset(void)
{
 80040fa:	b500      	push	{lr}
 80040fc:	b089      	sub	sp, #36	; 0x24
  struct hci_request rq;
  uint8_t status;
  
  BLUENRG_memset(&rq, 0, sizeof(rq));
 80040fe:	2218      	movs	r2, #24
 8004100:	2100      	movs	r1, #0
 8004102:	a802      	add	r0, sp, #8
 8004104:	f004 f9a3 	bl	800844e <memset>
  rq.ogf = OGF_HOST_CTL;
 8004108:	2303      	movs	r3, #3
 800410a:	f8ad 3008 	strh.w	r3, [sp, #8]
  rq.ocf = OCF_RESET;
 800410e:	f8ad 300a 	strh.w	r3, [sp, #10]
  rq.rparam = &status;
 8004112:	f10d 0307 	add.w	r3, sp, #7
 8004116:	9306      	str	r3, [sp, #24]
  rq.rlen = 1;
  
  if (hci_send_req(&rq, FALSE) < 0)
 8004118:	2100      	movs	r1, #0
  rq.rlen = 1;
 800411a:	2301      	movs	r3, #1
  if (hci_send_req(&rq, FALSE) < 0)
 800411c:	a802      	add	r0, sp, #8
  rq.rlen = 1;
 800411e:	9307      	str	r3, [sp, #28]
  if (hci_send_req(&rq, FALSE) < 0)
 8004120:	f000 f894 	bl	800424c <hci_send_req>
 8004124:	2800      	cmp	r0, #0
    return BLE_STATUS_TIMEOUT;
  
  return status;  
 8004126:	bfac      	ite	ge
 8004128:	f89d 0007 	ldrbge.w	r0, [sp, #7]
 800412c:	20ff      	movlt	r0, #255	; 0xff
}
 800412e:	b009      	add	sp, #36	; 0x24
 8004130:	f85d fb04 	ldr.w	pc, [sp], #4

08004134 <hci_le_read_local_version>:
  return status;  
}

int hci_le_read_local_version(uint8_t *hci_version, uint16_t *hci_revision, uint8_t *lmp_pal_version, 
                              uint16_t *manufacturer_name, uint16_t *lmp_pal_subversion)
{
 8004134:	e92d 43f0 	stmdb	sp!, {r4, r5, r6, r7, r8, r9, lr}
  struct hci_request rq;
  read_local_version_rp resp;
  
  BLUENRG_memset(&resp, 0, sizeof(resp));
 8004138:	2400      	movs	r4, #0
{
 800413a:	b08b      	sub	sp, #44	; 0x2c
 800413c:	4681      	mov	r9, r0
 800413e:	4688      	mov	r8, r1
 8004140:	4617      	mov	r7, r2
  
  BLUENRG_memset(&rq, 0, sizeof(rq));
 8004142:	4621      	mov	r1, r4
 8004144:	2218      	movs	r2, #24
 8004146:	a804      	add	r0, sp, #16
{
 8004148:	461e      	mov	r6, r3
  BLUENRG_memset(&resp, 0, sizeof(resp));
 800414a:	9401      	str	r4, [sp, #4]
 800414c:	9402      	str	r4, [sp, #8]
 800414e:	f88d 400c 	strb.w	r4, [sp, #12]
  BLUENRG_memset(&rq, 0, sizeof(rq));
 8004152:	f004 f97c 	bl	800844e <memset>
  rq.ogf = OGF_INFO_PARAM;
 8004156:	2304      	movs	r3, #4
 8004158:	f8ad 3010 	strh.w	r3, [sp, #16]
  rq.ocf = OCF_READ_LOCAL_VERSION;
 800415c:	2301      	movs	r3, #1
 800415e:	f8ad 3012 	strh.w	r3, [sp, #18]
  BLUENRG_memset(&resp, 0, sizeof(resp));
 8004162:	ad01      	add	r5, sp, #4
  rq.cparam = NULL;
  rq.clen = 0;
  rq.rparam = &resp;
  rq.rlen = READ_LOCAL_VERSION_RP_SIZE;
 8004164:	2309      	movs	r3, #9
  
  if (hci_send_req(&rq, FALSE) < 0)
 8004166:	4621      	mov	r1, r4
 8004168:	a804      	add	r0, sp, #16
  rq.rparam = &resp;
 800416a:	9508      	str	r5, [sp, #32]
  rq.rlen = READ_LOCAL_VERSION_RP_SIZE;
 800416c:	9309      	str	r3, [sp, #36]	; 0x24
  if (hci_send_req(&rq, FALSE) < 0)
 800416e:	f000 f86d 	bl	800424c <hci_send_req>
 8004172:	42a0      	cmp	r0, r4
 8004174:	db1c      	blt.n	80041b0 <hci_le_read_local_version+0x7c>
    return BLE_STATUS_TIMEOUT;
  
  if (resp.status) {
 8004176:	f89d 0004 	ldrb.w	r0, [sp, #4]
 800417a:	b9b0      	cbnz	r0, 80041aa <hci_le_read_local_version+0x76>
    return resp.status;
  }
  
  
  *hci_version = resp.hci_version;
 800417c:	f89d 3005 	ldrb.w	r3, [sp, #5]
 8004180:	f889 3000 	strb.w	r3, [r9]
  *hci_revision =  btohs(resp.hci_revision);
 8004184:	f8bd 3006 	ldrh.w	r3, [sp, #6]
 8004188:	f8a8 3000 	strh.w	r3, [r8]
  *lmp_pal_version = resp.lmp_pal_version;
 800418c:	f89d 3008 	ldrb.w	r3, [sp, #8]
 8004190:	703b      	strb	r3, [r7, #0]
  *manufacturer_name = btohs(resp.manufacturer_name);
 8004192:	9a02      	ldr	r2, [sp, #8]
  *lmp_pal_subversion = btohs(resp.lmp_pal_subversion);
 8004194:	f89d 300b 	ldrb.w	r3, [sp, #11]
  *manufacturer_name = btohs(resp.manufacturer_name);
 8004198:	f3c2 220f 	ubfx	r2, r2, #8, #16
 800419c:	8032      	strh	r2, [r6, #0]
  *lmp_pal_subversion = btohs(resp.lmp_pal_subversion);
 800419e:	f89d 200c 	ldrb.w	r2, [sp, #12]
 80041a2:	ea43 2302 	orr.w	r3, r3, r2, lsl #8
 80041a6:	9a12      	ldr	r2, [sp, #72]	; 0x48
 80041a8:	8013      	strh	r3, [r2, #0]
  
  return 0;
}
 80041aa:	b00b      	add	sp, #44	; 0x2c
 80041ac:	e8bd 83f0 	ldmia.w	sp!, {r4, r5, r6, r7, r8, r9, pc}
    return BLE_STATUS_TIMEOUT;
 80041b0:	20ff      	movs	r0, #255	; 0xff
 80041b2:	e7fa      	b.n	80041aa <hci_le_read_local_version+0x76>

080041b4 <move_list.constprop.0>:
  *
  * @param  dest_list
  * @param  src_list
  * @retval None
  */
static void move_list(tListNode * dest_list, tListNode * src_list)
 80041b4:	b537      	push	{r0, r1, r2, r4, r5, lr}
  pListNode tmp_node;
  
  while (!list_is_empty(src_list))
  {
    list_remove_tail(src_list, &tmp_node);
    list_insert_head(dest_list, tmp_node);
 80041b6:	4d08      	ldr	r5, [pc, #32]	; (80041d8 <move_list.constprop.0+0x24>)
static void move_list(tListNode * dest_list, tListNode * src_list)
 80041b8:	4604      	mov	r4, r0
  while (!list_is_empty(src_list))
 80041ba:	4620      	mov	r0, r4
 80041bc:	f000 f959 	bl	8004472 <list_is_empty>
 80041c0:	b108      	cbz	r0, 80041c6 <move_list.constprop.0+0x12>
  }
}
 80041c2:	b003      	add	sp, #12
 80041c4:	bd30      	pop	{r4, r5, pc}
    list_remove_tail(src_list, &tmp_node);
 80041c6:	a901      	add	r1, sp, #4
 80041c8:	4620      	mov	r0, r4
 80041ca:	f000 f991 	bl	80044f0 <list_remove_tail>
    list_insert_head(dest_list, tmp_node);
 80041ce:	9901      	ldr	r1, [sp, #4]
 80041d0:	4628      	mov	r0, r5
 80041d2:	f000 f958 	bl	8004486 <list_insert_head>
 80041d6:	e7f0      	b.n	80041ba <move_list.constprop.0+0x6>
 80041d8:	200042f8 	.word	0x200042f8

080041dc <hci_init>:
}

/********************** HCI Transport layer functions *****************************/

void hci_init(void(* UserEvtRx)(void* pData), void* pConf)
{
 80041dc:	b570      	push	{r4, r5, r6, lr}
  uint8_t index;
  
  /* Podczepianie wskaznika na funkcje sprawdzajaca typ eventu ktory przyszedl i wywolujaca odp. funkcje */
  /* Typy eventow: connection/disconnection/attribute modified(?)/gatt_notification(dane!)/read_char/procedure_complete */
  if(UserEvtRx != NULL)
 80041de:	b108      	cbz	r0, 80041e4 <hci_init+0x8>
  {
    hciContext.UserEvtRx = UserEvtRx;
 80041e0:	4b0f      	ldr	r3, [pc, #60]	; (8004220 <hci_init+0x44>)
 80041e2:	61d8      	str	r0, [r3, #28]
  }
  
  /* Initialize TL BLE layer */
  /* Ustawianie parametrow niskopoziomowej warstwy transportowej */
  hci_tl_lowlevel_init();
 80041e4:	f001 ffb8 	bl	8006158 <hci_tl_lowlevel_init>
  
  /* Initialize list heads of ready and free hci data packet queues */
  list_init_head(&hciReadPktPool);
 80041e8:	480e      	ldr	r0, [pc, #56]	; (8004224 <hci_init+0x48>)
  
  /* Initialize the queue of free hci data packets */
  /* ?Tworzy pusta liste pakietow(?) do wypelnienia? */
  for (index = 0; index < HCI_READ_PACKET_NUM_MAX; index++)
  {
    list_insert_tail(&hciReadPktPool, (tListNode *)&hciReadPacketBuffer[index]);
 80041ea:	4e0f      	ldr	r6, [pc, #60]	; (8004228 <hci_init+0x4c>)
 80041ec:	4d0d      	ldr	r5, [pc, #52]	; (8004224 <hci_init+0x48>)
  list_init_head(&hciReadPktPool);
 80041ee:	f000 f93d 	bl	800446c <list_init_head>
  list_init_head(&hciReadPktRxQueue);
 80041f2:	480e      	ldr	r0, [pc, #56]	; (800422c <hci_init+0x50>)
 80041f4:	f000 f93a 	bl	800446c <list_init_head>
 80041f8:	2400      	movs	r4, #0
    list_insert_tail(&hciReadPktPool, (tListNode *)&hciReadPacketBuffer[index]);
 80041fa:	1931      	adds	r1, r6, r4
 80041fc:	4628      	mov	r0, r5
 80041fe:	348c      	adds	r4, #140	; 0x8c
 8004200:	f000 f94d 	bl	800449e <list_insert_tail>
  for (index = 0; index < HCI_READ_PACKET_NUM_MAX; index++)
 8004204:	f5b4 6f2f 	cmp.w	r4, #2800	; 0xaf0
 8004208:	d1f7      	bne.n	80041fa <hci_init+0x1e>
  } 
  
  /* Initialize low level driver */
  /* Inicjalizacja niskopoziomowej warstwy transportowej ustawianej wyzej */
  if (hciContext.io.Init)  hciContext.io.Init(NULL);
 800420a:	4c05      	ldr	r4, [pc, #20]	; (8004220 <hci_init+0x44>)
 800420c:	6822      	ldr	r2, [r4, #0]
 800420e:	b10a      	cbz	r2, 8004214 <hci_init+0x38>
 8004210:	2000      	movs	r0, #0
 8004212:	4790      	blx	r2
  if (hciContext.io.Reset) hciContext.io.Reset();
 8004214:	68a3      	ldr	r3, [r4, #8]
 8004216:	b113      	cbz	r3, 800421e <hci_init+0x42>
}
 8004218:	e8bd 4070 	ldmia.w	sp!, {r4, r5, r6, lr}
  if (hciContext.io.Reset) hciContext.io.Reset();
 800421c:	4718      	bx	r3
 800421e:	bd70      	pop	{r4, r5, r6, pc}
 8004220:	20000dd0 	.word	0x20000dd0
 8004224:	200042f0 	.word	0x200042f0
 8004228:	20000df0 	.word	0x20000df0
 800422c:	200042f8 	.word	0x200042f8

08004230 <hci_register_io_bus>:

void hci_register_io_bus(tHciIO* fops)
{
  /* Register bus function */
  hciContext.io.Init    = fops->Init; 
 8004230:	4b05      	ldr	r3, [pc, #20]	; (8004248 <hci_register_io_bus+0x18>)
 8004232:	6802      	ldr	r2, [r0, #0]
 8004234:	601a      	str	r2, [r3, #0]
  hciContext.io.Receive = fops->Receive;  
 8004236:	68c2      	ldr	r2, [r0, #12]
 8004238:	60da      	str	r2, [r3, #12]
  hciContext.io.Send    = fops->Send;
 800423a:	6902      	ldr	r2, [r0, #16]
 800423c:	611a      	str	r2, [r3, #16]
  hciContext.io.GetTick = fops->GetTick;
 800423e:	6982      	ldr	r2, [r0, #24]
 8004240:	619a      	str	r2, [r3, #24]
  hciContext.io.Reset   = fops->Reset;    
 8004242:	6882      	ldr	r2, [r0, #8]
 8004244:	609a      	str	r2, [r3, #8]
 8004246:	4770      	bx	lr
 8004248:	20000dd0 	.word	0x20000dd0

0800424c <hci_send_req>:
}

int hci_send_req(struct hci_request* r, BOOL async)
{
 800424c:	e92d 43f0 	stmdb	sp!, {r4, r5, r6, r7, r8, r9, lr}
 8004250:	b0a5      	sub	sp, #148	; 0x94
  uint8_t *ptr;
  uint16_t opcode = htobs(cmd_opcode_pack(r->ogf, r->ocf));
 8004252:	8846      	ldrh	r6, [r0, #2]
 8004254:	f8b0 8000 	ldrh.w	r8, [r0]
  while(list_get_size(&hciReadPktPool) < HCI_READ_PACKET_NUM_MAX/2){
 8004258:	4f59      	ldr	r7, [pc, #356]	; (80043c0 <hci_send_req+0x174>)
    list_remove_head(&hciReadPktRxQueue, (tListNode **)&pckt);    
 800425a:	f8df 916c 	ldr.w	r9, [pc, #364]	; 80043c8 <hci_send_req+0x17c>
  hci_event_pckt *event_pckt;
  hci_uart_pckt *hci_hdr;

  tHciDataPacket * hciReadPacket = NULL;
 800425e:	2300      	movs	r3, #0
{
 8004260:	4604      	mov	r4, r0
  tListNode hciTempQueue;
  
  list_init_head(&hciTempQueue);
 8004262:	a802      	add	r0, sp, #8
{
 8004264:	460d      	mov	r5, r1
  tHciDataPacket * hciReadPacket = NULL;
 8004266:	9301      	str	r3, [sp, #4]
  list_init_head(&hciTempQueue);
 8004268:	f000 f900 	bl	800446c <list_init_head>
  while(list_get_size(&hciReadPktPool) < HCI_READ_PACKET_NUM_MAX/2){
 800426c:	4638      	mov	r0, r7
 800426e:	f000 f951 	bl	8004514 <list_get_size>
 8004272:	2809      	cmp	r0, #9
 8004274:	dd53      	ble.n	800431e <hci_send_req+0xd2>
  hc.opcode = htobs(cmd_opcode_pack(ogf, ocf));
 8004276:	8863      	ldrh	r3, [r4, #2]
 8004278:	8822      	ldrh	r2, [r4, #0]

  free_event_list();
  
  send_cmd(r->ogf, r->ocf, r->clen, r->cparam);
 800427a:	7b27      	ldrb	r7, [r4, #12]
  BLUENRG_memcpy(payload + HCI_HDR_SIZE + HCI_COMMAND_HDR_SIZE, param, plen);
 800427c:	68a1      	ldr	r1, [r4, #8]
  BLUENRG_memcpy(payload + 1, &hc, sizeof(hc));
 800427e:	f88d 7013 	strb.w	r7, [sp, #19]
  hc.opcode = htobs(cmd_opcode_pack(ogf, ocf));
 8004282:	f3c3 0309 	ubfx	r3, r3, #0, #10
 8004286:	ea43 2382 	orr.w	r3, r3, r2, lsl #10
  payload[0] = HCI_COMMAND_PKT;
 800428a:	2201      	movs	r2, #1
 800428c:	f88d 2010 	strb.w	r2, [sp, #16]
  BLUENRG_memcpy(payload + HCI_HDR_SIZE + HCI_COMMAND_HDR_SIZE, param, plen);
 8004290:	a805      	add	r0, sp, #20
 8004292:	463a      	mov	r2, r7
  BLUENRG_memcpy(payload + 1, &hc, sizeof(hc));
 8004294:	f8ad 3011 	strh.w	r3, [sp, #17]
  BLUENRG_memcpy(payload + HCI_HDR_SIZE + HCI_COMMAND_HDR_SIZE, param, plen);
 8004298:	f004 f8ce 	bl	8008438 <memcpy>
  if (hciContext.io.Send)
 800429c:	4b49      	ldr	r3, [pc, #292]	; (80043c4 <hci_send_req+0x178>)
 800429e:	691b      	ldr	r3, [r3, #16]
 80042a0:	b113      	cbz	r3, 80042a8 <hci_send_req+0x5c>
    hciContext.io.Send (payload, HCI_HDR_SIZE + HCI_COMMAND_HDR_SIZE + plen);
 80042a2:	1d39      	adds	r1, r7, #4
 80042a4:	a804      	add	r0, sp, #16
 80042a6:	4798      	blx	r3
  
  if (async)
 80042a8:	2d00      	cmp	r5, #0
 80042aa:	d178      	bne.n	800439e <hci_send_req+0x152>
  uint16_t opcode = htobs(cmd_opcode_pack(r->ogf, r->ocf));
 80042ac:	f3c6 0509 	ubfx	r5, r6, #0, #10
 80042b0:	ea45 2588 	orr.w	r5, r5, r8, lsl #10
      if ((HAL_GetTick() - tickstart) > HCI_DEFAULT_TIMEOUT_MS)
      {
        goto failed;
      }
      
      if (!list_is_empty(&hciReadPktRxQueue)) 
 80042b4:	4e44      	ldr	r6, [pc, #272]	; (80043c8 <hci_send_req+0x17c>)
    
    /* If there are no more packets to be processed, be sure there is at list one
       packet in the pool to process the expected event.
       If no free packets are available, discard the processed event and insert it
       into the pool. */
    if (list_is_empty(&hciReadPktPool) && list_is_empty(&hciReadPktRxQueue)) {
 80042b6:	4f42      	ldr	r7, [pc, #264]	; (80043c0 <hci_send_req+0x174>)
  uint16_t opcode = htobs(cmd_opcode_pack(r->ogf, r->ocf));
 80042b8:	b2ad      	uxth	r5, r5
    uint32_t tickstart = HAL_GetTick();
 80042ba:	f7fd fda7 	bl	8001e0c <HAL_GetTick>
 80042be:	4680      	mov	r8, r0
      if ((HAL_GetTick() - tickstart) > HCI_DEFAULT_TIMEOUT_MS)
 80042c0:	f7fd fda4 	bl	8001e0c <HAL_GetTick>
 80042c4:	eba0 0008 	sub.w	r0, r0, r8
 80042c8:	f5b0 7f7a 	cmp.w	r0, #1000	; 0x3e8
 80042cc:	d84a      	bhi.n	8004364 <hci_send_req+0x118>
      if (!list_is_empty(&hciReadPktRxQueue)) 
 80042ce:	4630      	mov	r0, r6
 80042d0:	f000 f8cf 	bl	8004472 <list_is_empty>
 80042d4:	2800      	cmp	r0, #0
 80042d6:	d1f3      	bne.n	80042c0 <hci_send_req+0x74>
    list_remove_head(&hciReadPktRxQueue, (tListNode **)&hciReadPacket);    
 80042d8:	a901      	add	r1, sp, #4
 80042da:	4630      	mov	r0, r6
 80042dc:	f000 f8f6 	bl	80044cc <list_remove_head>
    hci_hdr = (void *)hciReadPacket->dataBuff;
 80042e0:	9901      	ldr	r1, [sp, #4]
    if (hci_hdr->type == HCI_EVENT_PKT)
 80042e2:	7a0b      	ldrb	r3, [r1, #8]
 80042e4:	2b04      	cmp	r3, #4
 80042e6:	d109      	bne.n	80042fc <hci_send_req+0xb0>
      switch (event_pckt->evt) 
 80042e8:	7a48      	ldrb	r0, [r1, #9]
      len = hciReadPacket->data_len - (1 + HCI_EVENT_HDR_SIZE);
 80042ea:	f891 3088 	ldrb.w	r3, [r1, #136]	; 0x88
      switch (event_pckt->evt) 
 80042ee:	280f      	cmp	r0, #15
      len = hciReadPacket->data_len - (1 + HCI_EVENT_HDR_SIZE);
 80042f0:	f1a3 0203 	sub.w	r2, r3, #3
      switch (event_pckt->evt) 
 80042f4:	d02c      	beq.n	8004350 <hci_send_req+0x104>
 80042f6:	d81b      	bhi.n	8004330 <hci_send_req+0xe4>
 80042f8:	280e      	cmp	r0, #14
 80042fa:	d052      	beq.n	80043a2 <hci_send_req+0x156>
    if (list_is_empty(&hciReadPktPool) && list_is_empty(&hciReadPktRxQueue)) {
 80042fc:	4638      	mov	r0, r7
 80042fe:	f000 f8b8 	bl	8004472 <list_is_empty>
 8004302:	2800      	cmp	r0, #0
 8004304:	d058      	beq.n	80043b8 <hci_send_req+0x16c>
 8004306:	4630      	mov	r0, r6
 8004308:	f000 f8b3 	bl	8004472 <list_is_empty>
 800430c:	2800      	cmp	r0, #0
 800430e:	d053      	beq.n	80043b8 <hci_send_req+0x16c>
      list_insert_tail(&hciReadPktPool, (tListNode *)hciReadPacket);
 8004310:	9901      	ldr	r1, [sp, #4]
 8004312:	4638      	mov	r0, r7
    else {
      /* Insert the packet in a different queue. These packets will be
      inserted back in the main queue just before exiting from send_req(), so that
      these events can be processed by the application.
    */
    list_insert_tail(&hciTempQueue, (tListNode *)hciReadPacket);
 8004314:	f000 f8c3 	bl	800449e <list_insert_tail>
      hciReadPacket=NULL;
 8004318:	2300      	movs	r3, #0
 800431a:	9301      	str	r3, [sp, #4]
 800431c:	e7cd      	b.n	80042ba <hci_send_req+0x6e>
    list_remove_head(&hciReadPktRxQueue, (tListNode **)&pckt);    
 800431e:	a904      	add	r1, sp, #16
 8004320:	4648      	mov	r0, r9
 8004322:	f000 f8d3 	bl	80044cc <list_remove_head>
    list_insert_tail(&hciReadPktPool, (tListNode *)pckt);
 8004326:	9904      	ldr	r1, [sp, #16]
 8004328:	4638      	mov	r0, r7
 800432a:	f000 f8b8 	bl	800449e <list_insert_tail>
 800432e:	e79d      	b.n	800426c <hci_send_req+0x20>
      switch (event_pckt->evt) 
 8004330:	2810      	cmp	r0, #16
 8004332:	d017      	beq.n	8004364 <hci_send_req+0x118>
 8004334:	283e      	cmp	r0, #62	; 0x3e
 8004336:	d1e1      	bne.n	80042fc <hci_send_req+0xb0>
        if (me->subevent != r->event)
 8004338:	7ac8      	ldrb	r0, [r1, #11]
 800433a:	6862      	ldr	r2, [r4, #4]
 800433c:	4290      	cmp	r0, r2
 800433e:	d1dd      	bne.n	80042fc <hci_send_req+0xb0>
        len -= 1;
 8004340:	1f1a      	subs	r2, r3, #4
        r->rlen = MIN(len, r->rlen);
 8004342:	6963      	ldr	r3, [r4, #20]
 8004344:	429a      	cmp	r2, r3
 8004346:	bf28      	it	cs
 8004348:	461a      	movcs	r2, r3
 800434a:	6162      	str	r2, [r4, #20]
        BLUENRG_memcpy(r->rparam, me->data, r->rlen);
 800434c:	310c      	adds	r1, #12
 800434e:	e01c      	b.n	800438a <hci_send_req+0x13e>
        if (cs->opcode != opcode)
 8004350:	f8b1 300d 	ldrh.w	r3, [r1, #13]
 8004354:	42ab      	cmp	r3, r5
 8004356:	d105      	bne.n	8004364 <hci_send_req+0x118>
        if (r->event != EVT_CMD_STATUS) {
 8004358:	6863      	ldr	r3, [r4, #4]
 800435a:	2b0f      	cmp	r3, #15
 800435c:	d00f      	beq.n	800437e <hci_send_req+0x132>
          if (cs->status) {
 800435e:	7acb      	ldrb	r3, [r1, #11]
 8004360:	2b00      	cmp	r3, #0
 8004362:	d0cb      	beq.n	80042fc <hci_send_req+0xb0>
    }
  }
  
failed: 
  if (hciReadPacket!=NULL) {
 8004364:	9901      	ldr	r1, [sp, #4]
 8004366:	b111      	cbz	r1, 800436e <hci_send_req+0x122>
    list_insert_head(&hciReadPktPool, (tListNode *)hciReadPacket);
 8004368:	4815      	ldr	r0, [pc, #84]	; (80043c0 <hci_send_req+0x174>)
 800436a:	f000 f88c 	bl	8004486 <list_insert_head>
  }
  move_list(&hciReadPktRxQueue, &hciTempQueue);  
 800436e:	a802      	add	r0, sp, #8
 8004370:	f7ff ff20 	bl	80041b4 <move_list.constprop.0>
  return -1;
 8004374:	f04f 30ff 	mov.w	r0, #4294967295
done:
  /* Insert the packet back into the pool.*/
  list_insert_head(&hciReadPktPool, (tListNode *)hciReadPacket); 
  move_list(&hciReadPktRxQueue, &hciTempQueue);
  return 0;
}
 8004378:	b025      	add	sp, #148	; 0x94
 800437a:	e8bd 83f0 	ldmia.w	sp!, {r4, r5, r6, r7, r8, r9, pc}
        r->rlen = MIN(len, r->rlen);
 800437e:	6963      	ldr	r3, [r4, #20]
 8004380:	429a      	cmp	r2, r3
 8004382:	bf28      	it	cs
 8004384:	461a      	movcs	r2, r3
 8004386:	6162      	str	r2, [r4, #20]
        BLUENRG_memcpy(r->rparam, ptr, r->rlen);
 8004388:	310b      	adds	r1, #11
        BLUENRG_memcpy(r->rparam, me->data, r->rlen);
 800438a:	6920      	ldr	r0, [r4, #16]
 800438c:	f004 f854 	bl	8008438 <memcpy>
  list_insert_head(&hciReadPktPool, (tListNode *)hciReadPacket); 
 8004390:	480b      	ldr	r0, [pc, #44]	; (80043c0 <hci_send_req+0x174>)
 8004392:	9901      	ldr	r1, [sp, #4]
 8004394:	f000 f877 	bl	8004486 <list_insert_head>
  move_list(&hciReadPktRxQueue, &hciTempQueue);
 8004398:	a802      	add	r0, sp, #8
 800439a:	f7ff ff0b 	bl	80041b4 <move_list.constprop.0>
    return 0;
 800439e:	2000      	movs	r0, #0
 80043a0:	e7ea      	b.n	8004378 <hci_send_req+0x12c>
        if (cc->opcode != opcode)
 80043a2:	898a      	ldrh	r2, [r1, #12]
 80043a4:	42aa      	cmp	r2, r5
 80043a6:	d1dd      	bne.n	8004364 <hci_send_req+0x118>
        len -= EVT_CMD_COMPLETE_SIZE;
 80043a8:	1f9a      	subs	r2, r3, #6
        r->rlen = MIN(len, r->rlen);
 80043aa:	6963      	ldr	r3, [r4, #20]
 80043ac:	429a      	cmp	r2, r3
 80043ae:	bf28      	it	cs
 80043b0:	461a      	movcs	r2, r3
 80043b2:	6162      	str	r2, [r4, #20]
        BLUENRG_memcpy(r->rparam, ptr, r->rlen);
 80043b4:	310e      	adds	r1, #14
 80043b6:	e7e8      	b.n	800438a <hci_send_req+0x13e>
    list_insert_tail(&hciTempQueue, (tListNode *)hciReadPacket);
 80043b8:	9901      	ldr	r1, [sp, #4]
 80043ba:	a802      	add	r0, sp, #8
 80043bc:	e7aa      	b.n	8004314 <hci_send_req+0xc8>
 80043be:	bf00      	nop
 80043c0:	200042f0 	.word	0x200042f0
 80043c4:	20000dd0 	.word	0x20000dd0
 80043c8:	200042f8 	.word	0x200042f8

080043cc <hci_user_evt_proc>:

void hci_user_evt_proc(void)
{
 80043cc:	b573      	push	{r0, r1, r4, r5, r6, lr}
  tHciDataPacket * hciReadPacket = NULL;
 80043ce:	2300      	movs	r3, #0
     
  /* process any pending events read */
  while (list_is_empty(&hciReadPktRxQueue) == FALSE)
 80043d0:	4c0b      	ldr	r4, [pc, #44]	; (8004400 <hci_user_evt_proc+0x34>)
  {
    list_remove_head (&hciReadPktRxQueue, (tListNode **)&hciReadPacket); /* Tu jest otrzymany pakiet */
    if (hciContext.UserEvtRx != NULL)
 80043d2:	4d0c      	ldr	r5, [pc, #48]	; (8004404 <hci_user_evt_proc+0x38>)
    {
      hciContext.UserEvtRx(hciReadPacket->dataBuff); /* Przeparsuj otrzymane dane! UserEvtRx to user_notify, funkcja od parsowania eventu */
    }
    list_insert_tail(&hciReadPktPool, (tListNode *)hciReadPacket); /* Dolacz do odczytanych (przeparsowanych) pakietow */
 80043d4:	4e0c      	ldr	r6, [pc, #48]	; (8004408 <hci_user_evt_proc+0x3c>)
  tHciDataPacket * hciReadPacket = NULL;
 80043d6:	9301      	str	r3, [sp, #4]
  while (list_is_empty(&hciReadPktRxQueue) == FALSE)
 80043d8:	4620      	mov	r0, r4
 80043da:	f000 f84a 	bl	8004472 <list_is_empty>
 80043de:	b108      	cbz	r0, 80043e4 <hci_user_evt_proc+0x18>
  }
}
 80043e0:	b002      	add	sp, #8
 80043e2:	bd70      	pop	{r4, r5, r6, pc}
    list_remove_head (&hciReadPktRxQueue, (tListNode **)&hciReadPacket); /* Tu jest otrzymany pakiet */
 80043e4:	a901      	add	r1, sp, #4
 80043e6:	4620      	mov	r0, r4
 80043e8:	f000 f870 	bl	80044cc <list_remove_head>
    if (hciContext.UserEvtRx != NULL)
 80043ec:	69eb      	ldr	r3, [r5, #28]
 80043ee:	b113      	cbz	r3, 80043f6 <hci_user_evt_proc+0x2a>
      hciContext.UserEvtRx(hciReadPacket->dataBuff); /* Przeparsuj otrzymane dane! UserEvtRx to user_notify, funkcja od parsowania eventu */
 80043f0:	9801      	ldr	r0, [sp, #4]
 80043f2:	3008      	adds	r0, #8
 80043f4:	4798      	blx	r3
    list_insert_tail(&hciReadPktPool, (tListNode *)hciReadPacket); /* Dolacz do odczytanych (przeparsowanych) pakietow */
 80043f6:	9901      	ldr	r1, [sp, #4]
 80043f8:	4630      	mov	r0, r6
 80043fa:	f000 f850 	bl	800449e <list_insert_tail>
 80043fe:	e7eb      	b.n	80043d8 <hci_user_evt_proc+0xc>
 8004400:	200042f8 	.word	0x200042f8
 8004404:	20000dd0 	.word	0x20000dd0
 8004408:	200042f0 	.word	0x200042f0

0800440c <hci_notify_asynch_evt>:

int32_t hci_notify_asynch_evt(void* pdata)
{
 800440c:	b537      	push	{r0, r1, r2, r4, r5, lr}
  tHciDataPacket * hciReadPacket = NULL;
 800440e:	2300      	movs	r3, #0
  uint8_t data_len;
  
  int32_t ret = 0;
  
  if (list_is_empty (&hciReadPktPool) == FALSE)
 8004410:	4813      	ldr	r0, [pc, #76]	; (8004460 <hci_notify_asynch_evt+0x54>)
  tHciDataPacket * hciReadPacket = NULL;
 8004412:	9301      	str	r3, [sp, #4]
  if (list_is_empty (&hciReadPktPool) == FALSE)
 8004414:	f000 f82d 	bl	8004472 <list_is_empty>
 8004418:	b9d8      	cbnz	r0, 8004452 <hci_notify_asynch_evt+0x46>
  {
    /* Queuing a packet to read */
    list_remove_head (&hciReadPktPool, (tListNode **)&hciReadPacket);
 800441a:	a901      	add	r1, sp, #4
 800441c:	4810      	ldr	r0, [pc, #64]	; (8004460 <hci_notify_asynch_evt+0x54>)
 800441e:	f000 f855 	bl	80044cc <list_remove_head>
    
    if (hciContext.io.Receive)
 8004422:	4b10      	ldr	r3, [pc, #64]	; (8004464 <hci_notify_asynch_evt+0x58>)
 8004424:	68db      	ldr	r3, [r3, #12]
 8004426:	b193      	cbz	r3, 800444e <hci_notify_asynch_evt+0x42>
    {
      data_len = hciContext.io.Receive(hciReadPacket->dataBuff, HCI_READ_PACKET_SIZE);
 8004428:	9801      	ldr	r0, [sp, #4]
 800442a:	2180      	movs	r1, #128	; 0x80
 800442c:	3008      	adds	r0, #8
 800442e:	4798      	blx	r3
 8004430:	b2c5      	uxtb	r5, r0
      if (data_len > 0)
      {                    
        hciReadPacket->data_len = data_len;
 8004432:	9901      	ldr	r1, [sp, #4]
      if (data_len > 0)
 8004434:	b185      	cbz	r5, 8004458 <hci_notify_asynch_evt+0x4c>
  if (hci_pckt[HCI_PCK_TYPE_OFFSET] != HCI_EVENT_PKT)
 8004436:	7a0b      	ldrb	r3, [r1, #8]
        hciReadPacket->data_len = data_len;
 8004438:	f881 5088 	strb.w	r5, [r1, #136]	; 0x88
  if (hci_pckt[HCI_PCK_TYPE_OFFSET] != HCI_EVENT_PKT)
 800443c:	2b04      	cmp	r3, #4
 800443e:	d10b      	bne.n	8004458 <hci_notify_asynch_evt+0x4c>
  if (hci_pckt[EVENT_PARAMETER_TOT_LEN_OFFSET] != hciReadPacket->data_len - (1+HCI_EVENT_HDR_SIZE))
 8004440:	7a8b      	ldrb	r3, [r1, #10]
 8004442:	1ee8      	subs	r0, r5, #3
 8004444:	4283      	cmp	r3, r0
 8004446:	d107      	bne.n	8004458 <hci_notify_asynch_evt+0x4c>
        if (verify_packet(hciReadPacket) == 0)
          list_insert_tail(&hciReadPktRxQueue, (tListNode *)hciReadPacket);
 8004448:	4807      	ldr	r0, [pc, #28]	; (8004468 <hci_notify_asynch_evt+0x5c>)
 800444a:	f000 f828 	bl	800449e <list_insert_tail>
  int32_t ret = 0;
 800444e:	2000      	movs	r0, #0
 8004450:	e000      	b.n	8004454 <hci_notify_asynch_evt+0x48>
      }
    }
  }
  else 
  {
    ret = 1;
 8004452:	2001      	movs	r0, #1
  }
  return ret;

}
 8004454:	b003      	add	sp, #12
 8004456:	bd30      	pop	{r4, r5, pc}
          list_insert_head(&hciReadPktPool, (tListNode *)hciReadPacket);          
 8004458:	4801      	ldr	r0, [pc, #4]	; (8004460 <hci_notify_asynch_evt+0x54>)
 800445a:	f000 f814 	bl	8004486 <list_insert_head>
 800445e:	e7f6      	b.n	800444e <hci_notify_asynch_evt+0x42>
 8004460:	200042f0 	.word	0x200042f0
 8004464:	20000dd0 	.word	0x20000dd0
 8004468:	200042f8 	.word	0x200042f8

0800446c <list_init_head>:
/******************************************************************************
 * Function Definitions 
******************************************************************************/
void list_init_head (tListNode * listHead)
{
  listHead->next = listHead;
 800446c:	6000      	str	r0, [r0, #0]
  listHead->prev = listHead;	
 800446e:	6040      	str	r0, [r0, #4]
 8004470:	4770      	bx	lr

08004472 <list_is_empty>:
 */
__STATIC_FORCEINLINE uint32_t __get_PRIMASK(void)
{
  uint32_t result;

  __ASM volatile ("MRS %0, primask" : "=r" (result) :: "memory");
 8004472:	f3ef 8210 	mrs	r2, PRIMASK
  __ASM volatile ("cpsid i" : : : "memory");
 8004476:	b672      	cpsid	i
  
  uint32_t uwPRIMASK_Bit;
  uwPRIMASK_Bit = __get_PRIMASK();  /**< backup PRIMASK bit */
  __disable_irq();                  /**< Disable all interrupts by setting PRIMASK bit on Cortex*/
   
  if(listHead->next == listHead)
 8004478:	6803      	ldr	r3, [r0, #0]
  {
    return_value = 1;
 800447a:	1a1b      	subs	r3, r3, r0
 800447c:	4258      	negs	r0, r3
 800447e:	4158      	adcs	r0, r3
  \details Assigns the given value to the Priority Mask Register.
  \param [in]    priMask  Priority Mask
 */
__STATIC_FORCEINLINE void __set_PRIMASK(uint32_t priMask)
{
  __ASM volatile ("MSR primask, %0" : : "r" (priMask) : "memory");
 8004480:	f382 8810 	msr	PRIMASK, r2
  }
  
  __set_PRIMASK(uwPRIMASK_Bit);     /**< Restore PRIMASK bit*/
  
  return return_value;
}
 8004484:	4770      	bx	lr

08004486 <list_insert_head>:
  __ASM volatile ("MRS %0, primask" : "=r" (result) :: "memory");
 8004486:	f3ef 8310 	mrs	r3, PRIMASK
  __ASM volatile ("cpsid i" : : : "memory");
 800448a:	b672      	cpsid	i
{
  uint32_t uwPRIMASK_Bit;
  uwPRIMASK_Bit = __get_PRIMASK();  /**< backup PRIMASK bit */
  __disable_irq();                  /**< Disable all interrupts by setting PRIMASK bit on Cortex*/
  
  node->next = listHead->next;
 800448c:	6802      	ldr	r2, [r0, #0]
 800448e:	600a      	str	r2, [r1, #0]
  node->prev = listHead;
 8004490:	6048      	str	r0, [r1, #4]
  listHead->next = node;
 8004492:	6001      	str	r1, [r0, #0]
  (node->next)->prev = node;
 8004494:	680a      	ldr	r2, [r1, #0]
 8004496:	6051      	str	r1, [r2, #4]
  __ASM volatile ("MSR primask, %0" : : "r" (priMask) : "memory");
 8004498:	f383 8810 	msr	PRIMASK, r3
 800449c:	4770      	bx	lr

0800449e <list_insert_tail>:
  __ASM volatile ("MRS %0, primask" : "=r" (result) :: "memory");
 800449e:	f3ef 8310 	mrs	r3, PRIMASK
  __ASM volatile ("cpsid i" : : : "memory");
 80044a2:	b672      	cpsid	i
  uint32_t uwPRIMASK_Bit;
  uwPRIMASK_Bit = __get_PRIMASK();  /**< backup PRIMASK bit */
  __disable_irq();                  /**< Disable all interrupts by setting PRIMASK bit on Cortex*/
  
  node->next = listHead;
  node->prev = listHead->prev;
 80044a4:	6842      	ldr	r2, [r0, #4]
 80044a6:	604a      	str	r2, [r1, #4]
  node->next = listHead;
 80044a8:	6008      	str	r0, [r1, #0]
  listHead->prev = node;
 80044aa:	6041      	str	r1, [r0, #4]
  (node->prev)->next = node;
 80044ac:	684a      	ldr	r2, [r1, #4]
 80044ae:	6011      	str	r1, [r2, #0]
  __ASM volatile ("MSR primask, %0" : : "r" (priMask) : "memory");
 80044b0:	f383 8810 	msr	PRIMASK, r3
 80044b4:	4770      	bx	lr

080044b6 <list_remove_node>:
  __ASM volatile ("MRS %0, primask" : "=r" (result) :: "memory");
 80044b6:	f3ef 8210 	mrs	r2, PRIMASK
  __ASM volatile ("cpsid i" : : : "memory");
 80044ba:	b672      	cpsid	i
{
  uint32_t uwPRIMASK_Bit;
  uwPRIMASK_Bit = __get_PRIMASK();  /**< backup PRIMASK bit */
  __disable_irq();                  /**< Disable all interrupts by setting PRIMASK bit on Cortex*/
  
  (node->prev)->next = node->next;
 80044bc:	e890 000a 	ldmia.w	r0, {r1, r3}
 80044c0:	6019      	str	r1, [r3, #0]
  (node->next)->prev = node->prev;
 80044c2:	6801      	ldr	r1, [r0, #0]
 80044c4:	604b      	str	r3, [r1, #4]
  __ASM volatile ("MSR primask, %0" : : "r" (priMask) : "memory");
 80044c6:	f382 8810 	msr	PRIMASK, r2
 80044ca:	4770      	bx	lr

080044cc <list_remove_head>:
  
  __set_PRIMASK(uwPRIMASK_Bit);     /**< Restore PRIMASK bit*/
}

void list_remove_head (tListNode * listHead, tListNode ** node )
{
 80044cc:	b538      	push	{r3, r4, r5, lr}
 80044ce:	460c      	mov	r4, r1
  __ASM volatile ("MRS %0, primask" : "=r" (result) :: "memory");
 80044d0:	f3ef 8510 	mrs	r5, PRIMASK
  __ASM volatile ("cpsid i" : : : "memory");
 80044d4:	b672      	cpsid	i
  uint32_t uwPRIMASK_Bit;
  uwPRIMASK_Bit = __get_PRIMASK();  /**< backup PRIMASK bit */
  __disable_irq();                  /**< Disable all interrupts by setting PRIMASK bit on Cortex*/
  
  *node = listHead->next;
 80044d6:	6803      	ldr	r3, [r0, #0]
 80044d8:	600b      	str	r3, [r1, #0]
  list_remove_node (listHead->next);
 80044da:	6800      	ldr	r0, [r0, #0]
 80044dc:	f7ff ffeb 	bl	80044b6 <list_remove_node>
  (*node)->next = NULL;
 80044e0:	6822      	ldr	r2, [r4, #0]
 80044e2:	2300      	movs	r3, #0
 80044e4:	6013      	str	r3, [r2, #0]
  (*node)->prev = NULL;
 80044e6:	6822      	ldr	r2, [r4, #0]
 80044e8:	6053      	str	r3, [r2, #4]
  __ASM volatile ("MSR primask, %0" : : "r" (priMask) : "memory");
 80044ea:	f385 8810 	msr	PRIMASK, r5
 80044ee:	bd38      	pop	{r3, r4, r5, pc}

080044f0 <list_remove_tail>:
  
  __set_PRIMASK(uwPRIMASK_Bit);     /**< Restore PRIMASK bit*/
}

void list_remove_tail (tListNode * listHead, tListNode ** node )
{
 80044f0:	b538      	push	{r3, r4, r5, lr}
 80044f2:	460c      	mov	r4, r1
  __ASM volatile ("MRS %0, primask" : "=r" (result) :: "memory");
 80044f4:	f3ef 8510 	mrs	r5, PRIMASK
  __ASM volatile ("cpsid i" : : : "memory");
 80044f8:	b672      	cpsid	i
  uint32_t uwPRIMASK_Bit;
  uwPRIMASK_Bit = __get_PRIMASK();  /**< backup PRIMASK bit */
  __disable_irq();                  /**< Disable all interrupts by setting PRIMASK bit on Cortex*/
  
  *node = listHead->prev;
 80044fa:	6843      	ldr	r3, [r0, #4]
 80044fc:	600b      	str	r3, [r1, #0]
  list_remove_node (listHead->prev);
 80044fe:	6840      	ldr	r0, [r0, #4]
 8004500:	f7ff ffd9 	bl	80044b6 <list_remove_node>
  (*node)->next = NULL;
 8004504:	6822      	ldr	r2, [r4, #0]
 8004506:	2300      	movs	r3, #0
 8004508:	6013      	str	r3, [r2, #0]
  (*node)->prev = NULL;
 800450a:	6822      	ldr	r2, [r4, #0]
 800450c:	6053      	str	r3, [r2, #4]
  __ASM volatile ("MSR primask, %0" : : "r" (priMask) : "memory");
 800450e:	f385 8810 	msr	PRIMASK, r5
 8004512:	bd38      	pop	{r3, r4, r5, pc}

08004514 <list_get_size>:
  __ASM volatile ("MRS %0, primask" : "=r" (result) :: "memory");
 8004514:	f3ef 8110 	mrs	r1, PRIMASK
  __ASM volatile ("cpsid i" : : : "memory");
 8004518:	b672      	cpsid	i

  uint32_t uwPRIMASK_Bit;
  uwPRIMASK_Bit = __get_PRIMASK();  /**< backup PRIMASK bit */
  __disable_irq();                  /**< Disable all interrupts by setting PRIMASK bit on Cortex*/

  temp = listHead->next;
 800451a:	6802      	ldr	r2, [r0, #0]
  int size = 0;
 800451c:	2300      	movs	r3, #0
  while (temp != listHead)
 800451e:	4282      	cmp	r2, r0
 8004520:	d103      	bne.n	800452a <list_get_size+0x16>
  __ASM volatile ("MSR primask, %0" : : "r" (priMask) : "memory");
 8004522:	f381 8810 	msr	PRIMASK, r1
  }
  
  __set_PRIMASK(uwPRIMASK_Bit);     /**< Restore PRIMASK bit*/
  
  return (size);
}
 8004526:	4618      	mov	r0, r3
 8004528:	4770      	bx	lr
    size++;
 800452a:	3301      	adds	r3, #1
    temp = temp->next;		
 800452c:	6812      	ldr	r2, [r2, #0]
 800452e:	e7f6      	b.n	800451e <list_get_size+0xa>

08004530 <osKernelStart>:
* @param  argument      pointer that is passed to the thread function as start argument.
* @retval status code that indicates the execution status of the function
* @note   MUST REMAIN UNCHANGED: \b osKernelStart shall be consistent in every CMSIS-RTOS.
*/
osStatus osKernelStart (void)
{
 8004530:	b508      	push	{r3, lr}
  vTaskStartScheduler();
 8004532:	f000 ffd1 	bl	80054d8 <vTaskStartScheduler>
  
  return osOK;
}
 8004536:	2000      	movs	r0, #0
 8004538:	bd08      	pop	{r3, pc}

0800453a <osThreadCreate>:
* @param  argument      pointer that is passed to the thread function as start argument.
* @retval thread ID for reference by other functions or NULL in case of error.
* @note   MUST REMAIN UNCHANGED: \b osThreadCreate shall be consistent in every CMSIS-RTOS.
*/
osThreadId osThreadCreate (const osThreadDef_t *thread_def, void *argument)
{
 800453a:	b570      	push	{r4, r5, r6, lr}
 800453c:	4605      	mov	r5, r0
  TaskHandle_t handle;
  
#if( configSUPPORT_STATIC_ALLOCATION == 1 ) &&  ( configSUPPORT_DYNAMIC_ALLOCATION == 1 )
  if((thread_def->buffer != NULL) && (thread_def->controlblock != NULL)) {
 800453e:	6946      	ldr	r6, [r0, #20]
 8004540:	692a      	ldr	r2, [r5, #16]
 8004542:	6840      	ldr	r0, [r0, #4]
 8004544:	f9b5 4008 	ldrsh.w	r4, [r5, #8]
{
 8004548:	460b      	mov	r3, r1
 800454a:	b086      	sub	sp, #24
 800454c:	6829      	ldr	r1, [r5, #0]
  if((thread_def->buffer != NULL) && (thread_def->controlblock != NULL)) {
 800454e:	b176      	cbz	r6, 800456e <osThreadCreate+0x34>
 8004550:	69ad      	ldr	r5, [r5, #24]
 8004552:	b165      	cbz	r5, 800456e <osThreadCreate+0x34>
  if (priority != osPriorityError) {
 8004554:	2c84      	cmp	r4, #132	; 0x84
    fpriority += (priority - osPriorityIdle);
 8004556:	bf14      	ite	ne
 8004558:	3403      	addne	r4, #3
  unsigned portBASE_TYPE fpriority = tskIDLE_PRIORITY;
 800455a:	2400      	moveq	r4, #0
    handle = xTaskCreateStatic((TaskFunction_t)thread_def->pthread,(const portCHAR *)thread_def->name,
 800455c:	9502      	str	r5, [sp, #8]
 800455e:	e88d 0050 	stmia.w	sp, {r4, r6}
 8004562:	f000 ff5a 	bl	800541a <xTaskCreateStatic>
 8004566:	9005      	str	r0, [sp, #20]
                   &handle) != pdPASS)  {
    return NULL;
  }     
#endif
  
  return handle;
 8004568:	9805      	ldr	r0, [sp, #20]
}
 800456a:	b006      	add	sp, #24
 800456c:	bd70      	pop	{r4, r5, r6, pc}
  if (priority != osPriorityError) {
 800456e:	2c84      	cmp	r4, #132	; 0x84
    fpriority += (priority - osPriorityIdle);
 8004570:	bf14      	ite	ne
 8004572:	3403      	addne	r4, #3
  unsigned portBASE_TYPE fpriority = tskIDLE_PRIORITY;
 8004574:	2400      	moveq	r4, #0
    if (xTaskCreate((TaskFunction_t)thread_def->pthread,(const portCHAR *)thread_def->name,
 8004576:	ad05      	add	r5, sp, #20
 8004578:	b292      	uxth	r2, r2
 800457a:	e88d 0030 	stmia.w	sp, {r4, r5}
 800457e:	f000 ff7d 	bl	800547c <xTaskCreate>
 8004582:	2801      	cmp	r0, #1
 8004584:	d0f0      	beq.n	8004568 <osThreadCreate+0x2e>
      return NULL;
 8004586:	2000      	movs	r0, #0
 8004588:	e7ef      	b.n	800456a <osThreadCreate+0x30>
	...

0800458c <prvInsertBlockIntoFreeList>:
	xBlockAllocatedBit = ( ( size_t ) 1 ) << ( ( sizeof( size_t ) * heapBITS_PER_BYTE ) - 1 );
}
/*-----------------------------------------------------------*/

static void prvInsertBlockIntoFreeList( BlockLink_t *pxBlockToInsert )
{
 800458c:	b510      	push	{r4, lr}
BlockLink_t *pxIterator;
uint8_t *puc;

	/* Iterate through the list until a block is found that has a higher address
	than the block being inserted. */
	for( pxIterator = &xStart; pxIterator->pxNextFreeBlock < pxBlockToInsert; pxIterator = pxIterator->pxNextFreeBlock )
 800458e:	4b0f      	ldr	r3, [pc, #60]	; (80045cc <prvInsertBlockIntoFreeList+0x40>)
 8004590:	681a      	ldr	r2, [r3, #0]
 8004592:	4282      	cmp	r2, r0
 8004594:	d318      	bcc.n	80045c8 <prvInsertBlockIntoFreeList+0x3c>
	}

	/* Do the block being inserted, and the block it is being inserted after
	make a contiguous block of memory? */
	puc = ( uint8_t * ) pxIterator;
	if( ( puc + pxIterator->xBlockSize ) == ( uint8_t * ) pxBlockToInsert )
 8004596:	685c      	ldr	r4, [r3, #4]
 8004598:	1919      	adds	r1, r3, r4
 800459a:	4288      	cmp	r0, r1
	{
		pxIterator->xBlockSize += pxBlockToInsert->xBlockSize;
 800459c:	bf01      	itttt	eq
 800459e:	6841      	ldreq	r1, [r0, #4]
 80045a0:	4618      	moveq	r0, r3
 80045a2:	1909      	addeq	r1, r1, r4
 80045a4:	6059      	streq	r1, [r3, #4]
	}

	/* Do the block being inserted, and the block it is being inserted before
	make a contiguous block of memory? */
	puc = ( uint8_t * ) pxBlockToInsert;
	if( ( puc + pxBlockToInsert->xBlockSize ) == ( uint8_t * ) pxIterator->pxNextFreeBlock )
 80045a6:	6844      	ldr	r4, [r0, #4]
 80045a8:	1901      	adds	r1, r0, r4
 80045aa:	428a      	cmp	r2, r1
 80045ac:	d107      	bne.n	80045be <prvInsertBlockIntoFreeList+0x32>
	{
		if( pxIterator->pxNextFreeBlock != pxEnd )
 80045ae:	4908      	ldr	r1, [pc, #32]	; (80045d0 <prvInsertBlockIntoFreeList+0x44>)
 80045b0:	6809      	ldr	r1, [r1, #0]
 80045b2:	428a      	cmp	r2, r1
		{
			/* Form one big block from the two blocks. */
			pxBlockToInsert->xBlockSize += pxIterator->pxNextFreeBlock->xBlockSize;
 80045b4:	bf1f      	itttt	ne
 80045b6:	6851      	ldrne	r1, [r2, #4]
			pxBlockToInsert->pxNextFreeBlock = pxIterator->pxNextFreeBlock->pxNextFreeBlock;
 80045b8:	6812      	ldrne	r2, [r2, #0]
			pxBlockToInsert->xBlockSize += pxIterator->pxNextFreeBlock->xBlockSize;
 80045ba:	1909      	addne	r1, r1, r4
 80045bc:	6041      	strne	r1, [r0, #4]

	/* If the block being inserted plugged a gab, so was merged with the block
	before and the block after, then it's pxNextFreeBlock pointer will have
	already been set, and should not be set here as that would make it point
	to itself. */
	if( pxIterator != pxBlockToInsert )
 80045be:	4298      	cmp	r0, r3
		pxBlockToInsert->pxNextFreeBlock = pxIterator->pxNextFreeBlock;
 80045c0:	6002      	str	r2, [r0, #0]
	{
		pxIterator->pxNextFreeBlock = pxBlockToInsert;
 80045c2:	bf18      	it	ne
 80045c4:	6018      	strne	r0, [r3, #0]
 80045c6:	bd10      	pop	{r4, pc}
 80045c8:	4613      	mov	r3, r2
 80045ca:	e7e1      	b.n	8004590 <prvInsertBlockIntoFreeList+0x4>
 80045cc:	20003060 	.word	0x20003060
 80045d0:	200018e0 	.word	0x200018e0

080045d4 <pvPortMalloc>:
{
 80045d4:	e92d 41f0 	stmdb	sp!, {r4, r5, r6, r7, r8, lr}
 80045d8:	4604      	mov	r4, r0
	vTaskSuspendAll();
 80045da:	f000 ffb3 	bl	8005544 <vTaskSuspendAll>
		if( pxEnd == NULL )
 80045de:	493d      	ldr	r1, [pc, #244]	; (80046d4 <pvPortMalloc+0x100>)
 80045e0:	4d3d      	ldr	r5, [pc, #244]	; (80046d8 <pvPortMalloc+0x104>)
 80045e2:	680b      	ldr	r3, [r1, #0]
 80045e4:	b9fb      	cbnz	r3, 8004626 <pvPortMalloc+0x52>
	uxAddress = ( size_t ) ucHeap;
 80045e6:	4a3d      	ldr	r2, [pc, #244]	; (80046dc <pvPortMalloc+0x108>)
	if( ( uxAddress & portBYTE_ALIGNMENT_MASK ) != 0 )
 80045e8:	0756      	lsls	r6, r2, #29
		uxAddress += ( portBYTE_ALIGNMENT - 1 );
 80045ea:	bf1c      	itt	ne
 80045ec:	3207      	addne	r2, #7
		xTotalHeapSize -= uxAddress - ( size_t ) ucHeap;
 80045ee:	4b3c      	ldrne	r3, [pc, #240]	; (80046e0 <pvPortMalloc+0x10c>)
	xStart.pxNextFreeBlock = ( void * ) pucAlignedHeap;
 80045f0:	4e3c      	ldr	r6, [pc, #240]	; (80046e4 <pvPortMalloc+0x110>)
		uxAddress &= ~( ( size_t ) portBYTE_ALIGNMENT_MASK );
 80045f2:	bf1a      	itte	ne
 80045f4:	f022 0207 	bicne.w	r2, r2, #7
		xTotalHeapSize -= uxAddress - ( size_t ) ucHeap;
 80045f8:	1a9b      	subne	r3, r3, r2
size_t xTotalHeapSize = configTOTAL_HEAP_SIZE;
 80045fa:	f241 7370 	movweq	r3, #6000	; 0x1770
	uxAddress = ( ( size_t ) pucAlignedHeap ) + xTotalHeapSize;
 80045fe:	4413      	add	r3, r2
	uxAddress -= xHeapStructSize;
 8004600:	3b08      	subs	r3, #8
	uxAddress &= ~( ( size_t ) portBYTE_ALIGNMENT_MASK );
 8004602:	f023 0307 	bic.w	r3, r3, #7
	xStart.xBlockSize = ( size_t ) 0;
 8004606:	2000      	movs	r0, #0
 8004608:	6070      	str	r0, [r6, #4]
	xStart.pxNextFreeBlock = ( void * ) pucAlignedHeap;
 800460a:	6032      	str	r2, [r6, #0]
	pxEnd->xBlockSize = 0;
 800460c:	6058      	str	r0, [r3, #4]
	pxEnd->pxNextFreeBlock = NULL;
 800460e:	6018      	str	r0, [r3, #0]
	pxEnd = ( void * ) uxAddress;
 8004610:	600b      	str	r3, [r1, #0]
	pxFirstFreeBlock->xBlockSize = uxAddress - ( size_t ) pxFirstFreeBlock;
 8004612:	1a98      	subs	r0, r3, r2
	pxFirstFreeBlock->pxNextFreeBlock = pxEnd;
 8004614:	6013      	str	r3, [r2, #0]
	xMinimumEverFreeBytesRemaining = pxFirstFreeBlock->xBlockSize;
 8004616:	4b34      	ldr	r3, [pc, #208]	; (80046e8 <pvPortMalloc+0x114>)
	pxFirstFreeBlock->xBlockSize = uxAddress - ( size_t ) pxFirstFreeBlock;
 8004618:	6050      	str	r0, [r2, #4]
	xMinimumEverFreeBytesRemaining = pxFirstFreeBlock->xBlockSize;
 800461a:	6018      	str	r0, [r3, #0]
	xFreeBytesRemaining = pxFirstFreeBlock->xBlockSize;
 800461c:	4b33      	ldr	r3, [pc, #204]	; (80046ec <pvPortMalloc+0x118>)
 800461e:	6018      	str	r0, [r3, #0]
	xBlockAllocatedBit = ( ( size_t ) 1 ) << ( ( sizeof( size_t ) * heapBITS_PER_BYTE ) - 1 );
 8004620:	f04f 4300 	mov.w	r3, #2147483648	; 0x80000000
 8004624:	602b      	str	r3, [r5, #0]
		if( ( xWantedSize & xBlockAllocatedBit ) == 0 )
 8004626:	682f      	ldr	r7, [r5, #0]
 8004628:	4227      	tst	r7, r4
 800462a:	d116      	bne.n	800465a <pvPortMalloc+0x86>
			if( xWantedSize > 0 )
 800462c:	2c00      	cmp	r4, #0
 800462e:	d041      	beq.n	80046b4 <pvPortMalloc+0xe0>
				xWantedSize += xHeapStructSize;
 8004630:	f104 0308 	add.w	r3, r4, #8
				if( ( xWantedSize & portBYTE_ALIGNMENT_MASK ) != 0x00 )
 8004634:	0758      	lsls	r0, r3, #29
					xWantedSize += ( portBYTE_ALIGNMENT - ( xWantedSize & portBYTE_ALIGNMENT_MASK ) );
 8004636:	bf1c      	itt	ne
 8004638:	f023 0307 	bicne.w	r3, r3, #7
 800463c:	3308      	addne	r3, #8
			if( ( xWantedSize > 0 ) && ( xWantedSize <= xFreeBytesRemaining ) )
 800463e:	b163      	cbz	r3, 800465a <pvPortMalloc+0x86>
 8004640:	4a2a      	ldr	r2, [pc, #168]	; (80046ec <pvPortMalloc+0x118>)
 8004642:	6816      	ldr	r6, [r2, #0]
 8004644:	42b3      	cmp	r3, r6
 8004646:	4690      	mov	r8, r2
 8004648:	d807      	bhi.n	800465a <pvPortMalloc+0x86>
				pxBlock = xStart.pxNextFreeBlock;
 800464a:	4a26      	ldr	r2, [pc, #152]	; (80046e4 <pvPortMalloc+0x110>)
 800464c:	6815      	ldr	r5, [r2, #0]
				while( ( pxBlock->xBlockSize < xWantedSize ) && ( pxBlock->pxNextFreeBlock != NULL ) )
 800464e:	6868      	ldr	r0, [r5, #4]
 8004650:	4283      	cmp	r3, r0
 8004652:	d804      	bhi.n	800465e <pvPortMalloc+0x8a>
				if( pxBlock != pxEnd )
 8004654:	6809      	ldr	r1, [r1, #0]
 8004656:	428d      	cmp	r5, r1
 8004658:	d107      	bne.n	800466a <pvPortMalloc+0x96>
void *pvReturn = NULL;
 800465a:	2400      	movs	r4, #0
 800465c:	e02a      	b.n	80046b4 <pvPortMalloc+0xe0>
				while( ( pxBlock->xBlockSize < xWantedSize ) && ( pxBlock->pxNextFreeBlock != NULL ) )
 800465e:	682c      	ldr	r4, [r5, #0]
 8004660:	2c00      	cmp	r4, #0
 8004662:	d0f7      	beq.n	8004654 <pvPortMalloc+0x80>
 8004664:	462a      	mov	r2, r5
 8004666:	4625      	mov	r5, r4
 8004668:	e7f1      	b.n	800464e <pvPortMalloc+0x7a>
					pxPreviousBlock->pxNextFreeBlock = pxBlock->pxNextFreeBlock;
 800466a:	6829      	ldr	r1, [r5, #0]
					pvReturn = ( void * ) ( ( ( uint8_t * ) pxPreviousBlock->pxNextFreeBlock ) + xHeapStructSize );
 800466c:	6814      	ldr	r4, [r2, #0]
					pxPreviousBlock->pxNextFreeBlock = pxBlock->pxNextFreeBlock;
 800466e:	6011      	str	r1, [r2, #0]
					if( ( pxBlock->xBlockSize - xWantedSize ) > heapMINIMUM_BLOCK_SIZE )
 8004670:	1ac2      	subs	r2, r0, r3
 8004672:	2a10      	cmp	r2, #16
 8004674:	d90f      	bls.n	8004696 <pvPortMalloc+0xc2>
						pxNewBlockLink = ( void * ) ( ( ( uint8_t * ) pxBlock ) + xWantedSize );
 8004676:	18e8      	adds	r0, r5, r3
						configASSERT( ( ( ( size_t ) pxNewBlockLink ) & portBYTE_ALIGNMENT_MASK ) == 0 );
 8004678:	0741      	lsls	r1, r0, #29
 800467a:	d008      	beq.n	800468e <pvPortMalloc+0xba>

portFORCE_INLINE static void vPortRaiseBASEPRI( void )
{
uint32_t ulNewBASEPRI;

	__asm volatile
 800467c:	f04f 0350 	mov.w	r3, #80	; 0x50
 8004680:	f383 8811 	msr	BASEPRI, r3
 8004684:	f3bf 8f6f 	isb	sy
 8004688:	f3bf 8f4f 	dsb	sy
 800468c:	e7fe      	b.n	800468c <pvPortMalloc+0xb8>
						pxNewBlockLink->xBlockSize = pxBlock->xBlockSize - xWantedSize;
 800468e:	6042      	str	r2, [r0, #4]
						pxBlock->xBlockSize = xWantedSize;
 8004690:	606b      	str	r3, [r5, #4]
						prvInsertBlockIntoFreeList( pxNewBlockLink );
 8004692:	f7ff ff7b 	bl	800458c <prvInsertBlockIntoFreeList>
					if( xFreeBytesRemaining < xMinimumEverFreeBytesRemaining )
 8004696:	4914      	ldr	r1, [pc, #80]	; (80046e8 <pvPortMalloc+0x114>)
					xFreeBytesRemaining -= pxBlock->xBlockSize;
 8004698:	686b      	ldr	r3, [r5, #4]
					if( xFreeBytesRemaining < xMinimumEverFreeBytesRemaining )
 800469a:	6808      	ldr	r0, [r1, #0]
					xFreeBytesRemaining -= pxBlock->xBlockSize;
 800469c:	1af6      	subs	r6, r6, r3
					pxBlock->xBlockSize |= xBlockAllocatedBit;
 800469e:	431f      	orrs	r7, r3
					if( xFreeBytesRemaining < xMinimumEverFreeBytesRemaining )
 80046a0:	4286      	cmp	r6, r0
					pxBlock->pxNextFreeBlock = NULL;
 80046a2:	f04f 0300 	mov.w	r3, #0
					xFreeBytesRemaining -= pxBlock->xBlockSize;
 80046a6:	f8c8 6000 	str.w	r6, [r8]
						xMinimumEverFreeBytesRemaining = xFreeBytesRemaining;
 80046aa:	bf38      	it	cc
 80046ac:	600e      	strcc	r6, [r1, #0]
					pvReturn = ( void * ) ( ( ( uint8_t * ) pxPreviousBlock->pxNextFreeBlock ) + xHeapStructSize );
 80046ae:	3408      	adds	r4, #8
					pxBlock->xBlockSize |= xBlockAllocatedBit;
 80046b0:	606f      	str	r7, [r5, #4]
					pxBlock->pxNextFreeBlock = NULL;
 80046b2:	602b      	str	r3, [r5, #0]
	( void ) xTaskResumeAll();
 80046b4:	f000 ffe0 	bl	8005678 <xTaskResumeAll>
	configASSERT( ( ( ( size_t ) pvReturn ) & ( size_t ) portBYTE_ALIGNMENT_MASK ) == 0 );
 80046b8:	0763      	lsls	r3, r4, #29
 80046ba:	d008      	beq.n	80046ce <pvPortMalloc+0xfa>
 80046bc:	f04f 0350 	mov.w	r3, #80	; 0x50
 80046c0:	f383 8811 	msr	BASEPRI, r3
 80046c4:	f3bf 8f6f 	isb	sy
 80046c8:	f3bf 8f4f 	dsb	sy
 80046cc:	e7fe      	b.n	80046cc <pvPortMalloc+0xf8>
}
 80046ce:	4620      	mov	r0, r4
 80046d0:	e8bd 81f0 	ldmia.w	sp!, {r4, r5, r6, r7, r8, pc}
 80046d4:	200018e0 	.word	0x200018e0
 80046d8:	20003054 	.word	0x20003054
 80046dc:	200018e4 	.word	0x200018e4
 80046e0:	20003054 	.word	0x20003054
 80046e4:	20003060 	.word	0x20003060
 80046e8:	2000305c 	.word	0x2000305c
 80046ec:	20003058 	.word	0x20003058

080046f0 <vPortFree>:
{
 80046f0:	b510      	push	{r4, lr}
	if( pv != NULL )
 80046f2:	4604      	mov	r4, r0
 80046f4:	b370      	cbz	r0, 8004754 <vPortFree+0x64>
		configASSERT( ( pxLink->xBlockSize & xBlockAllocatedBit ) != 0 );
 80046f6:	4a18      	ldr	r2, [pc, #96]	; (8004758 <vPortFree+0x68>)
 80046f8:	f850 3c04 	ldr.w	r3, [r0, #-4]
 80046fc:	6812      	ldr	r2, [r2, #0]
 80046fe:	4213      	tst	r3, r2
 8004700:	d108      	bne.n	8004714 <vPortFree+0x24>
 8004702:	f04f 0350 	mov.w	r3, #80	; 0x50
 8004706:	f383 8811 	msr	BASEPRI, r3
 800470a:	f3bf 8f6f 	isb	sy
 800470e:	f3bf 8f4f 	dsb	sy
 8004712:	e7fe      	b.n	8004712 <vPortFree+0x22>
		configASSERT( pxLink->pxNextFreeBlock == NULL );
 8004714:	f850 1c08 	ldr.w	r1, [r0, #-8]
 8004718:	b141      	cbz	r1, 800472c <vPortFree+0x3c>
 800471a:	f04f 0350 	mov.w	r3, #80	; 0x50
 800471e:	f383 8811 	msr	BASEPRI, r3
 8004722:	f3bf 8f6f 	isb	sy
 8004726:	f3bf 8f4f 	dsb	sy
 800472a:	e7fe      	b.n	800472a <vPortFree+0x3a>
				pxLink->xBlockSize &= ~xBlockAllocatedBit;
 800472c:	ea23 0302 	bic.w	r3, r3, r2
 8004730:	f840 3c04 	str.w	r3, [r0, #-4]
				vTaskSuspendAll();
 8004734:	f000 ff06 	bl	8005544 <vTaskSuspendAll>
					xFreeBytesRemaining += pxLink->xBlockSize;
 8004738:	4a08      	ldr	r2, [pc, #32]	; (800475c <vPortFree+0x6c>)
 800473a:	f854 3c04 	ldr.w	r3, [r4, #-4]
 800473e:	6811      	ldr	r1, [r2, #0]
					prvInsertBlockIntoFreeList( ( ( BlockLink_t * ) pxLink ) );
 8004740:	f1a4 0008 	sub.w	r0, r4, #8
					xFreeBytesRemaining += pxLink->xBlockSize;
 8004744:	440b      	add	r3, r1
 8004746:	6013      	str	r3, [r2, #0]
					prvInsertBlockIntoFreeList( ( ( BlockLink_t * ) pxLink ) );
 8004748:	f7ff ff20 	bl	800458c <prvInsertBlockIntoFreeList>
}
 800474c:	e8bd 4010 	ldmia.w	sp!, {r4, lr}
				( void ) xTaskResumeAll();
 8004750:	f000 bf92 	b.w	8005678 <xTaskResumeAll>
 8004754:	bd10      	pop	{r4, pc}
 8004756:	bf00      	nop
 8004758:	20003054 	.word	0x20003054
 800475c:	20003058 	.word	0x20003058

08004760 <vListInitialise>:
void vListInitialise( List_t * const pxList )
{
	/* The list structure contains a list item which is used to mark the
	end of the list.  To initialise the list the list end is inserted
	as the only list entry. */
	pxList->pxIndex = ( ListItem_t * ) &( pxList->xListEnd );			/*lint !e826 !e740 !e9087 The mini list structure is used as the list end to save RAM.  This is checked and valid. */
 8004760:	f100 0308 	add.w	r3, r0, #8
 8004764:	6043      	str	r3, [r0, #4]

	/* The list end value is the highest possible value in the list to
	ensure it remains at the end of the list. */
	pxList->xListEnd.xItemValue = portMAX_DELAY;
 8004766:	f04f 32ff 	mov.w	r2, #4294967295

	/* The list end next and previous pointers point to itself so we know
	when the list is empty. */
	pxList->xListEnd.pxNext = ( ListItem_t * ) &( pxList->xListEnd );	/*lint !e826 !e740 !e9087 The mini list structure is used as the list end to save RAM.  This is checked and valid. */
 800476a:	60c3      	str	r3, [r0, #12]
	pxList->xListEnd.pxPrevious = ( ListItem_t * ) &( pxList->xListEnd );/*lint !e826 !e740 !e9087 The mini list structure is used as the list end to save RAM.  This is checked and valid. */
 800476c:	6103      	str	r3, [r0, #16]

	pxList->uxNumberOfItems = ( UBaseType_t ) 0U;
 800476e:	2300      	movs	r3, #0
	pxList->xListEnd.xItemValue = portMAX_DELAY;
 8004770:	6082      	str	r2, [r0, #8]
	pxList->uxNumberOfItems = ( UBaseType_t ) 0U;
 8004772:	6003      	str	r3, [r0, #0]
 8004774:	4770      	bx	lr

08004776 <vListInitialiseItem>:
/*-----------------------------------------------------------*/

void vListInitialiseItem( ListItem_t * const pxItem )
{
	/* Make sure the list item is not recorded as being on a list. */
	pxItem->pxContainer = NULL;
 8004776:	2300      	movs	r3, #0
 8004778:	6103      	str	r3, [r0, #16]
 800477a:	4770      	bx	lr

0800477c <vListInsertEnd>:
}
/*-----------------------------------------------------------*/

void vListInsertEnd( List_t * const pxList, ListItem_t * const pxNewListItem )
{
ListItem_t * const pxIndex = pxList->pxIndex;
 800477c:	6843      	ldr	r3, [r0, #4]
	listTEST_LIST_ITEM_INTEGRITY( pxNewListItem );

	/* Insert a new list item into pxList, but rather than sort the list,
	makes the new list item the last item to be removed by a call to
	listGET_OWNER_OF_NEXT_ENTRY(). */
	pxNewListItem->pxNext = pxIndex;
 800477e:	604b      	str	r3, [r1, #4]
	pxNewListItem->pxPrevious = pxIndex->pxPrevious;
 8004780:	689a      	ldr	r2, [r3, #8]
 8004782:	608a      	str	r2, [r1, #8]

	/* Only used during decision coverage testing. */
	mtCOVERAGE_TEST_DELAY();

	pxIndex->pxPrevious->pxNext = pxNewListItem;
 8004784:	689a      	ldr	r2, [r3, #8]
 8004786:	6051      	str	r1, [r2, #4]
	pxIndex->pxPrevious = pxNewListItem;
 8004788:	6099      	str	r1, [r3, #8]

	/* Remember which list the item is in. */
	pxNewListItem->pxContainer = pxList;

	( pxList->uxNumberOfItems )++;
 800478a:	6803      	ldr	r3, [r0, #0]
	pxNewListItem->pxContainer = pxList;
 800478c:	6108      	str	r0, [r1, #16]
	( pxList->uxNumberOfItems )++;
 800478e:	3301      	adds	r3, #1
 8004790:	6003      	str	r3, [r0, #0]
 8004792:	4770      	bx	lr

08004794 <vListInsert>:
/*-----------------------------------------------------------*/

void vListInsert( List_t * const pxList, ListItem_t * const pxNewListItem )
{
ListItem_t *pxIterator;
const TickType_t xValueOfInsertion = pxNewListItem->xItemValue;
 8004794:	680a      	ldr	r2, [r1, #0]
	new list item should be placed after it.  This ensures that TCBs which are
	stored in ready lists (all of which have the same xItemValue value) get a
	share of the CPU.  However, if the xItemValue is the same as the back marker
	the iteration loop below will not end.  Therefore the value is checked
	first, and the algorithm slightly modified if necessary. */
	if( xValueOfInsertion == portMAX_DELAY )
 8004796:	1c53      	adds	r3, r2, #1
{
 8004798:	b530      	push	{r4, r5, lr}
	if( xValueOfInsertion == portMAX_DELAY )
 800479a:	d10a      	bne.n	80047b2 <vListInsert+0x1e>
	{
		pxIterator = pxList->xListEnd.pxPrevious;
 800479c:	6903      	ldr	r3, [r0, #16]
			/* There is nothing to do here, just iterating to the wanted
			insertion position. */
		}
	}

	pxNewListItem->pxNext = pxIterator->pxNext;
 800479e:	685a      	ldr	r2, [r3, #4]
 80047a0:	604a      	str	r2, [r1, #4]
	pxNewListItem->pxNext->pxPrevious = pxNewListItem;
 80047a2:	6091      	str	r1, [r2, #8]
	pxNewListItem->pxPrevious = pxIterator;
 80047a4:	608b      	str	r3, [r1, #8]
	pxIterator->pxNext = pxNewListItem;
 80047a6:	6059      	str	r1, [r3, #4]

	/* Remember which list the item is in.  This allows fast removal of the
	item later. */
	pxNewListItem->pxContainer = pxList;

	( pxList->uxNumberOfItems )++;
 80047a8:	6803      	ldr	r3, [r0, #0]
	pxNewListItem->pxContainer = pxList;
 80047aa:	6108      	str	r0, [r1, #16]
	( pxList->uxNumberOfItems )++;
 80047ac:	3301      	adds	r3, #1
 80047ae:	6003      	str	r3, [r0, #0]
 80047b0:	bd30      	pop	{r4, r5, pc}
		for( pxIterator = ( ListItem_t * ) &( pxList->xListEnd ); pxIterator->pxNext->xItemValue <= xValueOfInsertion; pxIterator = pxIterator->pxNext ) /*lint !e826 !e740 !e9087 The mini list structure is used as the list end to save RAM.  This is checked and valid. *//*lint !e440 The iterator moves to a different value, not xValueOfInsertion. */
 80047b2:	f100 0308 	add.w	r3, r0, #8
 80047b6:	685c      	ldr	r4, [r3, #4]
 80047b8:	6825      	ldr	r5, [r4, #0]
 80047ba:	42aa      	cmp	r2, r5
 80047bc:	d3ef      	bcc.n	800479e <vListInsert+0xa>
 80047be:	4623      	mov	r3, r4
 80047c0:	e7f9      	b.n	80047b6 <vListInsert+0x22>

080047c2 <uxListRemove>:
{
/* The list item knows which list it is in.  Obtain the list from the list
item. */
List_t * const pxList = pxItemToRemove->pxContainer;

	pxItemToRemove->pxNext->pxPrevious = pxItemToRemove->pxPrevious;
 80047c2:	6841      	ldr	r1, [r0, #4]
 80047c4:	6882      	ldr	r2, [r0, #8]
List_t * const pxList = pxItemToRemove->pxContainer;
 80047c6:	6903      	ldr	r3, [r0, #16]
	pxItemToRemove->pxNext->pxPrevious = pxItemToRemove->pxPrevious;
 80047c8:	608a      	str	r2, [r1, #8]
	pxItemToRemove->pxPrevious->pxNext = pxItemToRemove->pxNext;
 80047ca:	6882      	ldr	r2, [r0, #8]
 80047cc:	6051      	str	r1, [r2, #4]

	/* Only used during decision coverage testing. */
	mtCOVERAGE_TEST_DELAY();

	/* Make sure the index is left pointing to a valid item. */
	if( pxList->pxIndex == pxItemToRemove )
 80047ce:	6859      	ldr	r1, [r3, #4]
 80047d0:	4288      	cmp	r0, r1
	{
		pxList->pxIndex = pxItemToRemove->pxPrevious;
 80047d2:	bf08      	it	eq
 80047d4:	605a      	streq	r2, [r3, #4]
	else
	{
		mtCOVERAGE_TEST_MARKER();
	}

	pxItemToRemove->pxContainer = NULL;
 80047d6:	2200      	movs	r2, #0
 80047d8:	6102      	str	r2, [r0, #16]
	( pxList->uxNumberOfItems )--;
 80047da:	681a      	ldr	r2, [r3, #0]
 80047dc:	3a01      	subs	r2, #1
 80047de:	601a      	str	r2, [r3, #0]

	return pxList->uxNumberOfItems;
 80047e0:	6818      	ldr	r0, [r3, #0]
}
 80047e2:	4770      	bx	lr

080047e4 <prvTaskExitError>:
	return pxTopOfStack;
}
/*-----------------------------------------------------------*/

static void prvTaskExitError( void )
{
 80047e4:	b082      	sub	sp, #8
volatile uint32_t ulDummy = 0;
 80047e6:	2300      	movs	r3, #0
 80047e8:	9301      	str	r3, [sp, #4]
	its caller as there is nothing to return to.  If a task wants to exit it
	should instead call vTaskDelete( NULL ).

	Artificially force an assert() to be triggered if configASSERT() is
	defined, then stop here so application writers can catch the error. */
	configASSERT( uxCriticalNesting == ~0UL );
 80047ea:	4b0d      	ldr	r3, [pc, #52]	; (8004820 <prvTaskExitError+0x3c>)
 80047ec:	681b      	ldr	r3, [r3, #0]
 80047ee:	3301      	adds	r3, #1
 80047f0:	d008      	beq.n	8004804 <prvTaskExitError+0x20>
 80047f2:	f04f 0350 	mov.w	r3, #80	; 0x50
 80047f6:	f383 8811 	msr	BASEPRI, r3
 80047fa:	f3bf 8f6f 	isb	sy
 80047fe:	f3bf 8f4f 	dsb	sy
 8004802:	e7fe      	b.n	8004802 <prvTaskExitError+0x1e>
 8004804:	f04f 0350 	mov.w	r3, #80	; 0x50
 8004808:	f383 8811 	msr	BASEPRI, r3
 800480c:	f3bf 8f6f 	isb	sy
 8004810:	f3bf 8f4f 	dsb	sy
	portDISABLE_INTERRUPTS();
	while( ulDummy == 0 )
 8004814:	9b01      	ldr	r3, [sp, #4]
 8004816:	2b00      	cmp	r3, #0
 8004818:	d0fc      	beq.n	8004814 <prvTaskExitError+0x30>
		about code appearing after this function is called - making ulDummy
		volatile makes the compiler think the function could return and
		therefore not output an 'unreachable code' warning for code that appears
		after it. */
	}
}
 800481a:	b002      	add	sp, #8
 800481c:	4770      	bx	lr
 800481e:	bf00      	nop
 8004820:	20000008 	.word	0x20000008

08004824 <prvPortStartFirstTask>:
{
	/* Start the first task.  This also clears the bit that indicates the FPU is
	in use in case the FPU was used before the scheduler was started - which
	would otherwise result in the unnecessary leaving of space in the SVC stack
	for lazy saving of FPU registers. */
	__asm volatile(
 8004824:	4808      	ldr	r0, [pc, #32]	; (8004848 <prvPortStartFirstTask+0x24>)
 8004826:	6800      	ldr	r0, [r0, #0]
 8004828:	6800      	ldr	r0, [r0, #0]
 800482a:	f380 8808 	msr	MSP, r0
 800482e:	f04f 0000 	mov.w	r0, #0
 8004832:	f380 8814 	msr	CONTROL, r0
 8004836:	b662      	cpsie	i
 8004838:	b661      	cpsie	f
 800483a:	f3bf 8f4f 	dsb	sy
 800483e:	f3bf 8f6f 	isb	sy
 8004842:	df00      	svc	0
 8004844:	bf00      	nop
 8004846:	0000      	.short	0x0000
 8004848:	e000ed08 	.word	0xe000ed08

0800484c <vPortEnableVFP>:
/*-----------------------------------------------------------*/

/* This is a naked function. */
static void vPortEnableVFP( void )
{
	__asm volatile
 800484c:	f8df 000c 	ldr.w	r0, [pc, #12]	; 800485c <vPortEnableVFP+0x10>
 8004850:	6801      	ldr	r1, [r0, #0]
 8004852:	f441 0170 	orr.w	r1, r1, #15728640	; 0xf00000
 8004856:	6001      	str	r1, [r0, #0]
 8004858:	4770      	bx	lr
 800485a:	0000      	.short	0x0000
 800485c:	e000ed88 	.word	0xe000ed88

08004860 <pxPortInitialiseStack>:
	*pxTopOfStack = portINITIAL_XPSR;	/* xPSR */
 8004860:	f04f 7380 	mov.w	r3, #16777216	; 0x1000000
 8004864:	f840 3c04 	str.w	r3, [r0, #-4]
	*pxTopOfStack = ( StackType_t ) portTASK_RETURN_ADDRESS;	/* LR */
 8004868:	4b07      	ldr	r3, [pc, #28]	; (8004888 <pxPortInitialiseStack+0x28>)
 800486a:	f840 3c0c 	str.w	r3, [r0, #-12]
	*pxTopOfStack = ( ( StackType_t ) pxCode ) & portSTART_ADDRESS_MASK;	/* PC */
 800486e:	f021 0101 	bic.w	r1, r1, #1
	*pxTopOfStack = portINITIAL_EXC_RETURN;
 8004872:	f06f 0302 	mvn.w	r3, #2
	*pxTopOfStack = ( ( StackType_t ) pxCode ) & portSTART_ADDRESS_MASK;	/* PC */
 8004876:	f840 1c08 	str.w	r1, [r0, #-8]
	*pxTopOfStack = ( StackType_t ) pvParameters;	/* R0 */
 800487a:	f840 2c20 	str.w	r2, [r0, #-32]
	*pxTopOfStack = portINITIAL_EXC_RETURN;
 800487e:	f840 3c24 	str.w	r3, [r0, #-36]
}
 8004882:	3844      	subs	r0, #68	; 0x44
 8004884:	4770      	bx	lr
 8004886:	bf00      	nop
 8004888:	080047e5 	.word	0x080047e5
 800488c:	00000000 	.word	0x00000000

08004890 <SVC_Handler>:
	__asm volatile (
 8004890:	4b07      	ldr	r3, [pc, #28]	; (80048b0 <pxCurrentTCBConst2>)
 8004892:	6819      	ldr	r1, [r3, #0]
 8004894:	6808      	ldr	r0, [r1, #0]
 8004896:	e8b0 4ff0 	ldmia.w	r0!, {r4, r5, r6, r7, r8, r9, sl, fp, lr}
 800489a:	f380 8809 	msr	PSP, r0
 800489e:	f3bf 8f6f 	isb	sy
 80048a2:	f04f 0000 	mov.w	r0, #0
 80048a6:	f380 8811 	msr	BASEPRI, r0
 80048aa:	4770      	bx	lr
 80048ac:	f3af 8000 	nop.w

080048b0 <pxCurrentTCBConst2>:
 80048b0:	20003070 	.word	0x20003070

080048b4 <vPortEnterCritical>:
 80048b4:	f04f 0350 	mov.w	r3, #80	; 0x50
 80048b8:	f383 8811 	msr	BASEPRI, r3
 80048bc:	f3bf 8f6f 	isb	sy
 80048c0:	f3bf 8f4f 	dsb	sy
	uxCriticalNesting++;
 80048c4:	4a0a      	ldr	r2, [pc, #40]	; (80048f0 <vPortEnterCritical+0x3c>)
 80048c6:	6813      	ldr	r3, [r2, #0]
 80048c8:	3301      	adds	r3, #1
	if( uxCriticalNesting == 1 )
 80048ca:	2b01      	cmp	r3, #1
	uxCriticalNesting++;
 80048cc:	6013      	str	r3, [r2, #0]
	if( uxCriticalNesting == 1 )
 80048ce:	d10d      	bne.n	80048ec <vPortEnterCritical+0x38>
		configASSERT( ( portNVIC_INT_CTRL_REG & portVECTACTIVE_MASK ) == 0 );
 80048d0:	4b08      	ldr	r3, [pc, #32]	; (80048f4 <vPortEnterCritical+0x40>)
 80048d2:	681b      	ldr	r3, [r3, #0]
 80048d4:	f013 0fff 	tst.w	r3, #255	; 0xff
 80048d8:	d008      	beq.n	80048ec <vPortEnterCritical+0x38>
 80048da:	f04f 0350 	mov.w	r3, #80	; 0x50
 80048de:	f383 8811 	msr	BASEPRI, r3
 80048e2:	f3bf 8f6f 	isb	sy
 80048e6:	f3bf 8f4f 	dsb	sy
 80048ea:	e7fe      	b.n	80048ea <vPortEnterCritical+0x36>
 80048ec:	4770      	bx	lr
 80048ee:	bf00      	nop
 80048f0:	20000008 	.word	0x20000008
 80048f4:	e000ed04 	.word	0xe000ed04

080048f8 <vPortExitCritical>:
	configASSERT( uxCriticalNesting );
 80048f8:	4a08      	ldr	r2, [pc, #32]	; (800491c <vPortExitCritical+0x24>)
 80048fa:	6813      	ldr	r3, [r2, #0]
 80048fc:	b943      	cbnz	r3, 8004910 <vPortExitCritical+0x18>
 80048fe:	f04f 0350 	mov.w	r3, #80	; 0x50
 8004902:	f383 8811 	msr	BASEPRI, r3
 8004906:	f3bf 8f6f 	isb	sy
 800490a:	f3bf 8f4f 	dsb	sy
 800490e:	e7fe      	b.n	800490e <vPortExitCritical+0x16>
	uxCriticalNesting--;
 8004910:	3b01      	subs	r3, #1
 8004912:	6013      	str	r3, [r2, #0]
	if( uxCriticalNesting == 0 )
 8004914:	b90b      	cbnz	r3, 800491a <vPortExitCritical+0x22>
}
/*-----------------------------------------------------------*/

portFORCE_INLINE static void vPortSetBASEPRI( uint32_t ulNewMaskValue )
{
	__asm volatile
 8004916:	f383 8811 	msr	BASEPRI, r3
 800491a:	4770      	bx	lr
 800491c:	20000008 	.word	0x20000008

08004920 <PendSV_Handler>:
	__asm volatile
 8004920:	f3ef 8009 	mrs	r0, PSP
 8004924:	f3bf 8f6f 	isb	sy
 8004928:	4b15      	ldr	r3, [pc, #84]	; (8004980 <pxCurrentTCBConst>)
 800492a:	681a      	ldr	r2, [r3, #0]
 800492c:	f01e 0f10 	tst.w	lr, #16
 8004930:	bf08      	it	eq
 8004932:	ed20 8a10 	vstmdbeq	r0!, {s16-s31}
 8004936:	e920 4ff0 	stmdb	r0!, {r4, r5, r6, r7, r8, r9, sl, fp, lr}
 800493a:	6010      	str	r0, [r2, #0]
 800493c:	e92d 0009 	stmdb	sp!, {r0, r3}
 8004940:	f04f 0050 	mov.w	r0, #80	; 0x50
 8004944:	f380 8811 	msr	BASEPRI, r0
 8004948:	f3bf 8f4f 	dsb	sy
 800494c:	f3bf 8f6f 	isb	sy
 8004950:	f000 ff0a 	bl	8005768 <vTaskSwitchContext>
 8004954:	f04f 0000 	mov.w	r0, #0
 8004958:	f380 8811 	msr	BASEPRI, r0
 800495c:	bc09      	pop	{r0, r3}
 800495e:	6819      	ldr	r1, [r3, #0]
 8004960:	6808      	ldr	r0, [r1, #0]
 8004962:	e8b0 4ff0 	ldmia.w	r0!, {r4, r5, r6, r7, r8, r9, sl, fp, lr}
 8004966:	f01e 0f10 	tst.w	lr, #16
 800496a:	bf08      	it	eq
 800496c:	ecb0 8a10 	vldmiaeq	r0!, {s16-s31}
 8004970:	f380 8809 	msr	PSP, r0
 8004974:	f3bf 8f6f 	isb	sy
 8004978:	4770      	bx	lr
 800497a:	bf00      	nop
 800497c:	f3af 8000 	nop.w

08004980 <pxCurrentTCBConst>:
 8004980:	20003070 	.word	0x20003070

08004984 <SysTick_Handler>:
{
 8004984:	b508      	push	{r3, lr}
	__asm volatile
 8004986:	f04f 0350 	mov.w	r3, #80	; 0x50
 800498a:	f383 8811 	msr	BASEPRI, r3
 800498e:	f3bf 8f6f 	isb	sy
 8004992:	f3bf 8f4f 	dsb	sy
		if( xTaskIncrementTick() != pdFALSE )
 8004996:	f000 fddd 	bl	8005554 <xTaskIncrementTick>
 800499a:	b118      	cbz	r0, 80049a4 <SysTick_Handler+0x20>
			portNVIC_INT_CTRL_REG = portNVIC_PENDSVSET_BIT;
 800499c:	4b03      	ldr	r3, [pc, #12]	; (80049ac <SysTick_Handler+0x28>)
 800499e:	f04f 5280 	mov.w	r2, #268435456	; 0x10000000
 80049a2:	601a      	str	r2, [r3, #0]
	__asm volatile
 80049a4:	2300      	movs	r3, #0
 80049a6:	f383 8811 	msr	BASEPRI, r3
 80049aa:	bd08      	pop	{r3, pc}
 80049ac:	e000ed04 	.word	0xe000ed04

080049b0 <vPortSetupTimerInterrupt>:
	portNVIC_SYSTICK_CTRL_REG = 0UL;
 80049b0:	4a08      	ldr	r2, [pc, #32]	; (80049d4 <vPortSetupTimerInterrupt+0x24>)
	portNVIC_SYSTICK_CURRENT_VALUE_REG = 0UL;
 80049b2:	4909      	ldr	r1, [pc, #36]	; (80049d8 <vPortSetupTimerInterrupt+0x28>)
	portNVIC_SYSTICK_CTRL_REG = 0UL;
 80049b4:	2300      	movs	r3, #0
 80049b6:	6013      	str	r3, [r2, #0]
	portNVIC_SYSTICK_CURRENT_VALUE_REG = 0UL;
 80049b8:	600b      	str	r3, [r1, #0]
	portNVIC_SYSTICK_LOAD_REG = ( configSYSTICK_CLOCK_HZ / configTICK_RATE_HZ ) - 1UL;
 80049ba:	4b08      	ldr	r3, [pc, #32]	; (80049dc <vPortSetupTimerInterrupt+0x2c>)
 80049bc:	f44f 717a 	mov.w	r1, #1000	; 0x3e8
 80049c0:	681b      	ldr	r3, [r3, #0]
 80049c2:	fbb3 f3f1 	udiv	r3, r3, r1
 80049c6:	4906      	ldr	r1, [pc, #24]	; (80049e0 <vPortSetupTimerInterrupt+0x30>)
 80049c8:	3b01      	subs	r3, #1
 80049ca:	600b      	str	r3, [r1, #0]
	portNVIC_SYSTICK_CTRL_REG = ( portNVIC_SYSTICK_CLK_BIT | portNVIC_SYSTICK_INT_BIT | portNVIC_SYSTICK_ENABLE_BIT );
 80049cc:	2307      	movs	r3, #7
 80049ce:	6013      	str	r3, [r2, #0]
 80049d0:	4770      	bx	lr
 80049d2:	bf00      	nop
 80049d4:	e000e010 	.word	0xe000e010
 80049d8:	e000e018 	.word	0xe000e018
 80049dc:	2000001c 	.word	0x2000001c
 80049e0:	e000e014 	.word	0xe000e014

080049e4 <xPortStartScheduler>:
	configASSERT( portCPUID != portCORTEX_M7_r0p1_ID );
 80049e4:	4b39      	ldr	r3, [pc, #228]	; (8004acc <xPortStartScheduler+0xe8>)
 80049e6:	4a3a      	ldr	r2, [pc, #232]	; (8004ad0 <xPortStartScheduler+0xec>)
{
 80049e8:	b513      	push	{r0, r1, r4, lr}
	configASSERT( portCPUID != portCORTEX_M7_r0p1_ID );
 80049ea:	6819      	ldr	r1, [r3, #0]
 80049ec:	4291      	cmp	r1, r2
 80049ee:	d108      	bne.n	8004a02 <xPortStartScheduler+0x1e>
	__asm volatile
 80049f0:	f04f 0350 	mov.w	r3, #80	; 0x50
 80049f4:	f383 8811 	msr	BASEPRI, r3
 80049f8:	f3bf 8f6f 	isb	sy
 80049fc:	f3bf 8f4f 	dsb	sy
 8004a00:	e7fe      	b.n	8004a00 <xPortStartScheduler+0x1c>
	configASSERT( portCPUID != portCORTEX_M7_r0p0_ID );
 8004a02:	681a      	ldr	r2, [r3, #0]
 8004a04:	4b33      	ldr	r3, [pc, #204]	; (8004ad4 <xPortStartScheduler+0xf0>)
 8004a06:	429a      	cmp	r2, r3
 8004a08:	d108      	bne.n	8004a1c <xPortStartScheduler+0x38>
 8004a0a:	f04f 0350 	mov.w	r3, #80	; 0x50
 8004a0e:	f383 8811 	msr	BASEPRI, r3
 8004a12:	f3bf 8f6f 	isb	sy
 8004a16:	f3bf 8f4f 	dsb	sy
 8004a1a:	e7fe      	b.n	8004a1a <xPortStartScheduler+0x36>
		ulOriginalPriority = *pucFirstUserPriorityRegister;
 8004a1c:	4b2e      	ldr	r3, [pc, #184]	; (8004ad8 <xPortStartScheduler+0xf4>)
 8004a1e:	781a      	ldrb	r2, [r3, #0]
 8004a20:	b2d2      	uxtb	r2, r2
 8004a22:	9201      	str	r2, [sp, #4]
		*pucFirstUserPriorityRegister = portMAX_8_BIT_VALUE;
 8004a24:	22ff      	movs	r2, #255	; 0xff
 8004a26:	701a      	strb	r2, [r3, #0]
		ucMaxPriorityValue = *pucFirstUserPriorityRegister;
 8004a28:	781b      	ldrb	r3, [r3, #0]
		ucMaxSysCallPriority = configMAX_SYSCALL_INTERRUPT_PRIORITY & ucMaxPriorityValue;
 8004a2a:	4a2c      	ldr	r2, [pc, #176]	; (8004adc <xPortStartScheduler+0xf8>)
		ucMaxPriorityValue = *pucFirstUserPriorityRegister;
 8004a2c:	b2db      	uxtb	r3, r3
 8004a2e:	f88d 3003 	strb.w	r3, [sp, #3]
		ucMaxSysCallPriority = configMAX_SYSCALL_INTERRUPT_PRIORITY & ucMaxPriorityValue;
 8004a32:	f89d 3003 	ldrb.w	r3, [sp, #3]
 8004a36:	f003 0350 	and.w	r3, r3, #80	; 0x50
 8004a3a:	7013      	strb	r3, [r2, #0]
		ulMaxPRIGROUPValue = portMAX_PRIGROUP_BITS;
 8004a3c:	4b28      	ldr	r3, [pc, #160]	; (8004ae0 <xPortStartScheduler+0xfc>)
 8004a3e:	2207      	movs	r2, #7
 8004a40:	601a      	str	r2, [r3, #0]
		while( ( ucMaxPriorityValue & portTOP_BIT_OF_BYTE ) == portTOP_BIT_OF_BYTE )
 8004a42:	2100      	movs	r1, #0
 8004a44:	f89d 0003 	ldrb.w	r0, [sp, #3]
 8004a48:	0600      	lsls	r0, r0, #24
 8004a4a:	f102 34ff 	add.w	r4, r2, #4294967295
 8004a4e:	d40d      	bmi.n	8004a6c <xPortStartScheduler+0x88>
 8004a50:	b101      	cbz	r1, 8004a54 <xPortStartScheduler+0x70>
 8004a52:	601a      	str	r2, [r3, #0]
			configASSERT( ( portMAX_PRIGROUP_BITS - ulMaxPRIGROUPValue ) == configPRIO_BITS );
 8004a54:	681a      	ldr	r2, [r3, #0]
 8004a56:	2a03      	cmp	r2, #3
 8004a58:	d011      	beq.n	8004a7e <xPortStartScheduler+0x9a>
 8004a5a:	f04f 0350 	mov.w	r3, #80	; 0x50
 8004a5e:	f383 8811 	msr	BASEPRI, r3
 8004a62:	f3bf 8f6f 	isb	sy
 8004a66:	f3bf 8f4f 	dsb	sy
 8004a6a:	e7fe      	b.n	8004a6a <xPortStartScheduler+0x86>
			ucMaxPriorityValue <<= ( uint8_t ) 0x01;
 8004a6c:	f89d 2003 	ldrb.w	r2, [sp, #3]
 8004a70:	0052      	lsls	r2, r2, #1
 8004a72:	b2d2      	uxtb	r2, r2
 8004a74:	f88d 2003 	strb.w	r2, [sp, #3]
 8004a78:	2101      	movs	r1, #1
 8004a7a:	4622      	mov	r2, r4
 8004a7c:	e7e2      	b.n	8004a44 <xPortStartScheduler+0x60>
		ulMaxPRIGROUPValue <<= portPRIGROUP_SHIFT;
 8004a7e:	0212      	lsls	r2, r2, #8
		ulMaxPRIGROUPValue &= portPRIORITY_GROUP_MASK;
 8004a80:	f402 62e0 	and.w	r2, r2, #1792	; 0x700
 8004a84:	601a      	str	r2, [r3, #0]
		*pucFirstUserPriorityRegister = ulOriginalPriority;
 8004a86:	9b01      	ldr	r3, [sp, #4]
 8004a88:	4a13      	ldr	r2, [pc, #76]	; (8004ad8 <xPortStartScheduler+0xf4>)
 8004a8a:	b2db      	uxtb	r3, r3
 8004a8c:	7013      	strb	r3, [r2, #0]
	portNVIC_SYSPRI2_REG |= portNVIC_PENDSV_PRI;
 8004a8e:	4b15      	ldr	r3, [pc, #84]	; (8004ae4 <xPortStartScheduler+0x100>)
 8004a90:	681a      	ldr	r2, [r3, #0]
 8004a92:	f442 0270 	orr.w	r2, r2, #15728640	; 0xf00000
 8004a96:	601a      	str	r2, [r3, #0]
	portNVIC_SYSPRI2_REG |= portNVIC_SYSTICK_PRI;
 8004a98:	681a      	ldr	r2, [r3, #0]
 8004a9a:	f042 4270 	orr.w	r2, r2, #4026531840	; 0xf0000000
 8004a9e:	601a      	str	r2, [r3, #0]
	vPortSetupTimerInterrupt();
 8004aa0:	f7ff ff86 	bl	80049b0 <vPortSetupTimerInterrupt>
	uxCriticalNesting = 0;
 8004aa4:	4b10      	ldr	r3, [pc, #64]	; (8004ae8 <xPortStartScheduler+0x104>)
 8004aa6:	2400      	movs	r4, #0
 8004aa8:	601c      	str	r4, [r3, #0]
	vPortEnableVFP();
 8004aaa:	f7ff fecf 	bl	800484c <vPortEnableVFP>
	*( portFPCCR ) |= portASPEN_AND_LSPEN_BITS;
 8004aae:	4a0f      	ldr	r2, [pc, #60]	; (8004aec <xPortStartScheduler+0x108>)
 8004ab0:	6813      	ldr	r3, [r2, #0]
 8004ab2:	f043 4340 	orr.w	r3, r3, #3221225472	; 0xc0000000
 8004ab6:	6013      	str	r3, [r2, #0]
	prvPortStartFirstTask();
 8004ab8:	f7ff feb4 	bl	8004824 <prvPortStartFirstTask>
	vTaskSwitchContext();
 8004abc:	f000 fe54 	bl	8005768 <vTaskSwitchContext>
	prvTaskExitError();
 8004ac0:	f7ff fe90 	bl	80047e4 <prvTaskExitError>
}
 8004ac4:	4620      	mov	r0, r4
 8004ac6:	b002      	add	sp, #8
 8004ac8:	bd10      	pop	{r4, pc}
 8004aca:	bf00      	nop
 8004acc:	e000ed00 	.word	0xe000ed00
 8004ad0:	410fc271 	.word	0x410fc271
 8004ad4:	410fc270 	.word	0x410fc270
 8004ad8:	e000e400 	.word	0xe000e400
 8004adc:	20003068 	.word	0x20003068
 8004ae0:	2000306c 	.word	0x2000306c
 8004ae4:	e000ed20 	.word	0xe000ed20
 8004ae8:	20000008 	.word	0x20000008
 8004aec:	e000ef34 	.word	0xe000ef34

08004af0 <prvIsQueueEmpty>:
	taskEXIT_CRITICAL();
}
/*-----------------------------------------------------------*/

static BaseType_t prvIsQueueEmpty( const Queue_t *pxQueue )
{
 8004af0:	b510      	push	{r4, lr}
 8004af2:	4604      	mov	r4, r0
BaseType_t xReturn;

	taskENTER_CRITICAL();
 8004af4:	f7ff fede 	bl	80048b4 <vPortEnterCritical>
	{
		if( pxQueue->uxMessagesWaiting == ( UBaseType_t )  0 )
 8004af8:	6ba4      	ldr	r4, [r4, #56]	; 0x38
		else
		{
			xReturn = pdFALSE;
		}
	}
	taskEXIT_CRITICAL();
 8004afa:	f7ff fefd 	bl	80048f8 <vPortExitCritical>

	return xReturn;
}
 8004afe:	fab4 f084 	clz	r0, r4
 8004b02:	0940      	lsrs	r0, r0, #5
 8004b04:	bd10      	pop	{r4, pc}

08004b06 <prvCopyDataToQueue>:
{
 8004b06:	b570      	push	{r4, r5, r6, lr}
 8004b08:	4615      	mov	r5, r2
	if( pxQueue->uxItemSize == ( UBaseType_t ) 0 )
 8004b0a:	6c02      	ldr	r2, [r0, #64]	; 0x40
	uxMessagesWaiting = pxQueue->uxMessagesWaiting;
 8004b0c:	6b86      	ldr	r6, [r0, #56]	; 0x38
{
 8004b0e:	4604      	mov	r4, r0
	if( pxQueue->uxItemSize == ( UBaseType_t ) 0 )
 8004b10:	b942      	cbnz	r2, 8004b24 <prvCopyDataToQueue+0x1e>
			if( pxQueue->uxQueueType == queueQUEUE_IS_MUTEX )
 8004b12:	6805      	ldr	r5, [r0, #0]
 8004b14:	b99d      	cbnz	r5, 8004b3e <prvCopyDataToQueue+0x38>
				xReturn = xTaskPriorityDisinherit( pxQueue->u.xSemaphore.xMutexHolder );
 8004b16:	6880      	ldr	r0, [r0, #8]
 8004b18:	f000 ff6e 	bl	80059f8 <xTaskPriorityDisinherit>
				pxQueue->u.xSemaphore.xMutexHolder = NULL;
 8004b1c:	60a5      	str	r5, [r4, #8]
	pxQueue->uxMessagesWaiting = uxMessagesWaiting + ( UBaseType_t ) 1;
 8004b1e:	3601      	adds	r6, #1
 8004b20:	63a6      	str	r6, [r4, #56]	; 0x38
}
 8004b22:	bd70      	pop	{r4, r5, r6, pc}
	else if( xPosition == queueSEND_TO_BACK )
 8004b24:	b96d      	cbnz	r5, 8004b42 <prvCopyDataToQueue+0x3c>
		( void ) memcpy( ( void * ) pxQueue->pcWriteTo, pvItemToQueue, ( size_t ) pxQueue->uxItemSize ); /*lint !e961 !e418 !e9087 MISRA exception as the casts are only redundant for some ports, plus previous logic ensures a null pointer can only be passed to memcpy() if the copy size is 0.  Cast to void required by function signature and safe as no alignment requirement and copy length specified in bytes. */
 8004b26:	6840      	ldr	r0, [r0, #4]
 8004b28:	f003 fc86 	bl	8008438 <memcpy>
		pxQueue->pcWriteTo += pxQueue->uxItemSize; /*lint !e9016 Pointer arithmetic on char types ok, especially in this use case where it is the clearest way of conveying intent. */
 8004b2c:	6863      	ldr	r3, [r4, #4]
 8004b2e:	6c22      	ldr	r2, [r4, #64]	; 0x40
 8004b30:	4413      	add	r3, r2
		if( pxQueue->pcWriteTo >= pxQueue->u.xQueue.pcTail ) /*lint !e946 MISRA exception justified as comparison of pointers is the cleanest solution. */
 8004b32:	68a2      	ldr	r2, [r4, #8]
		pxQueue->pcWriteTo += pxQueue->uxItemSize; /*lint !e9016 Pointer arithmetic on char types ok, especially in this use case where it is the clearest way of conveying intent. */
 8004b34:	6063      	str	r3, [r4, #4]
		if( pxQueue->pcWriteTo >= pxQueue->u.xQueue.pcTail ) /*lint !e946 MISRA exception justified as comparison of pointers is the cleanest solution. */
 8004b36:	4293      	cmp	r3, r2
 8004b38:	d301      	bcc.n	8004b3e <prvCopyDataToQueue+0x38>
			pxQueue->pcWriteTo = pxQueue->pcHead;
 8004b3a:	6823      	ldr	r3, [r4, #0]
 8004b3c:	6063      	str	r3, [r4, #4]
BaseType_t xReturn = pdFALSE;
 8004b3e:	2000      	movs	r0, #0
 8004b40:	e7ed      	b.n	8004b1e <prvCopyDataToQueue+0x18>
		( void ) memcpy( ( void * ) pxQueue->u.xQueue.pcReadFrom, pvItemToQueue, ( size_t ) pxQueue->uxItemSize ); /*lint !e961 !e9087 !e418 MISRA exception as the casts are only redundant for some ports.  Cast to void required by function signature and safe as no alignment requirement and copy length specified in bytes.  Assert checks null pointer only used when length is 0. */
 8004b42:	68c0      	ldr	r0, [r0, #12]
 8004b44:	f003 fc78 	bl	8008438 <memcpy>
		pxQueue->u.xQueue.pcReadFrom -= pxQueue->uxItemSize;
 8004b48:	6c23      	ldr	r3, [r4, #64]	; 0x40
 8004b4a:	68e2      	ldr	r2, [r4, #12]
		if( pxQueue->u.xQueue.pcReadFrom < pxQueue->pcHead ) /*lint !e946 MISRA exception justified as comparison of pointers is the cleanest solution. */
 8004b4c:	6821      	ldr	r1, [r4, #0]
		pxQueue->u.xQueue.pcReadFrom -= pxQueue->uxItemSize;
 8004b4e:	425b      	negs	r3, r3
 8004b50:	441a      	add	r2, r3
		if( pxQueue->u.xQueue.pcReadFrom < pxQueue->pcHead ) /*lint !e946 MISRA exception justified as comparison of pointers is the cleanest solution. */
 8004b52:	428a      	cmp	r2, r1
		pxQueue->u.xQueue.pcReadFrom -= pxQueue->uxItemSize;
 8004b54:	60e2      	str	r2, [r4, #12]
			pxQueue->u.xQueue.pcReadFrom = ( pxQueue->u.xQueue.pcTail - pxQueue->uxItemSize );
 8004b56:	bf3e      	ittt	cc
 8004b58:	68a2      	ldrcc	r2, [r4, #8]
 8004b5a:	189b      	addcc	r3, r3, r2
 8004b5c:	60e3      	strcc	r3, [r4, #12]
		if( xPosition == queueOVERWRITE )
 8004b5e:	2d02      	cmp	r5, #2
 8004b60:	d1ed      	bne.n	8004b3e <prvCopyDataToQueue+0x38>
			if( uxMessagesWaiting > ( UBaseType_t ) 0 )
 8004b62:	b10e      	cbz	r6, 8004b68 <prvCopyDataToQueue+0x62>
				--uxMessagesWaiting;
 8004b64:	3e01      	subs	r6, #1
 8004b66:	e7ea      	b.n	8004b3e <prvCopyDataToQueue+0x38>
BaseType_t xReturn = pdFALSE;
 8004b68:	4630      	mov	r0, r6
 8004b6a:	e7d8      	b.n	8004b1e <prvCopyDataToQueue+0x18>

08004b6c <prvCopyDataFromQueue>:
{
 8004b6c:	4603      	mov	r3, r0
 8004b6e:	b410      	push	{r4}
	if( pxQueue->uxItemSize != ( UBaseType_t ) 0 )
 8004b70:	6c1a      	ldr	r2, [r3, #64]	; 0x40
{
 8004b72:	4608      	mov	r0, r1
	if( pxQueue->uxItemSize != ( UBaseType_t ) 0 )
 8004b74:	b162      	cbz	r2, 8004b90 <prvCopyDataFromQueue+0x24>
		pxQueue->u.xQueue.pcReadFrom += pxQueue->uxItemSize; /*lint !e9016 Pointer arithmetic on char types ok, especially in this use case where it is the clearest way of conveying intent. */
 8004b76:	68d9      	ldr	r1, [r3, #12]
		if( pxQueue->u.xQueue.pcReadFrom >= pxQueue->u.xQueue.pcTail ) /*lint !e946 MISRA exception justified as use of the relational operator is the cleanest solutions. */
 8004b78:	689c      	ldr	r4, [r3, #8]
		pxQueue->u.xQueue.pcReadFrom += pxQueue->uxItemSize; /*lint !e9016 Pointer arithmetic on char types ok, especially in this use case where it is the clearest way of conveying intent. */
 8004b7a:	4411      	add	r1, r2
		if( pxQueue->u.xQueue.pcReadFrom >= pxQueue->u.xQueue.pcTail ) /*lint !e946 MISRA exception justified as use of the relational operator is the cleanest solutions. */
 8004b7c:	42a1      	cmp	r1, r4
		pxQueue->u.xQueue.pcReadFrom += pxQueue->uxItemSize; /*lint !e9016 Pointer arithmetic on char types ok, especially in this use case where it is the clearest way of conveying intent. */
 8004b7e:	60d9      	str	r1, [r3, #12]
			pxQueue->u.xQueue.pcReadFrom = pxQueue->pcHead;
 8004b80:	bf24      	itt	cs
 8004b82:	6819      	ldrcs	r1, [r3, #0]
 8004b84:	60d9      	strcs	r1, [r3, #12]
		( void ) memcpy( ( void * ) pvBuffer, ( void * ) pxQueue->u.xQueue.pcReadFrom, ( size_t ) pxQueue->uxItemSize ); /*lint !e961 !e418 !e9087 MISRA exception as the casts are only redundant for some ports.  Also previous logic ensures a null pointer can only be passed to memcpy() when the count is 0.  Cast to void required by function signature and safe as no alignment requirement and copy length specified in bytes. */
 8004b86:	68d9      	ldr	r1, [r3, #12]
}
 8004b88:	f85d 4b04 	ldr.w	r4, [sp], #4
		( void ) memcpy( ( void * ) pvBuffer, ( void * ) pxQueue->u.xQueue.pcReadFrom, ( size_t ) pxQueue->uxItemSize ); /*lint !e961 !e418 !e9087 MISRA exception as the casts are only redundant for some ports.  Also previous logic ensures a null pointer can only be passed to memcpy() when the count is 0.  Cast to void required by function signature and safe as no alignment requirement and copy length specified in bytes. */
 8004b8c:	f003 bc54 	b.w	8008438 <memcpy>
}
 8004b90:	f85d 4b04 	ldr.w	r4, [sp], #4
 8004b94:	4770      	bx	lr

08004b96 <prvUnlockQueue>:
{
 8004b96:	b570      	push	{r4, r5, r6, lr}
 8004b98:	4604      	mov	r4, r0
	taskENTER_CRITICAL();
 8004b9a:	f7ff fe8b 	bl	80048b4 <vPortEnterCritical>
		int8_t cTxLock = pxQueue->cTxLock;
 8004b9e:	f894 5045 	ldrb.w	r5, [r4, #69]	; 0x45
					if( xTaskRemoveFromEventList( &( pxQueue->xTasksWaitingToReceive ) ) != pdFALSE )
 8004ba2:	f104 0624 	add.w	r6, r4, #36	; 0x24
		int8_t cTxLock = pxQueue->cTxLock;
 8004ba6:	b26d      	sxtb	r5, r5
		while( cTxLock > queueLOCKED_UNMODIFIED )
 8004ba8:	2d00      	cmp	r5, #0
 8004baa:	dc14      	bgt.n	8004bd6 <prvUnlockQueue+0x40>
		pxQueue->cTxLock = queueUNLOCKED;
 8004bac:	23ff      	movs	r3, #255	; 0xff
 8004bae:	f884 3045 	strb.w	r3, [r4, #69]	; 0x45
	taskEXIT_CRITICAL();
 8004bb2:	f7ff fea1 	bl	80048f8 <vPortExitCritical>
	taskENTER_CRITICAL();
 8004bb6:	f7ff fe7d 	bl	80048b4 <vPortEnterCritical>
		int8_t cRxLock = pxQueue->cRxLock;
 8004bba:	f894 5044 	ldrb.w	r5, [r4, #68]	; 0x44
				if( xTaskRemoveFromEventList( &( pxQueue->xTasksWaitingToSend ) ) != pdFALSE )
 8004bbe:	f104 0610 	add.w	r6, r4, #16
		int8_t cRxLock = pxQueue->cRxLock;
 8004bc2:	b26d      	sxtb	r5, r5
		while( cRxLock > queueLOCKED_UNMODIFIED )
 8004bc4:	2d00      	cmp	r5, #0
 8004bc6:	dc12      	bgt.n	8004bee <prvUnlockQueue+0x58>
		pxQueue->cRxLock = queueUNLOCKED;
 8004bc8:	23ff      	movs	r3, #255	; 0xff
 8004bca:	f884 3044 	strb.w	r3, [r4, #68]	; 0x44
}
 8004bce:	e8bd 4070 	ldmia.w	sp!, {r4, r5, r6, lr}
	taskEXIT_CRITICAL();
 8004bd2:	f7ff be91 	b.w	80048f8 <vPortExitCritical>
				if( listLIST_IS_EMPTY( &( pxQueue->xTasksWaitingToReceive ) ) == pdFALSE )
 8004bd6:	6a63      	ldr	r3, [r4, #36]	; 0x24
 8004bd8:	2b00      	cmp	r3, #0
 8004bda:	d0e7      	beq.n	8004bac <prvUnlockQueue+0x16>
					if( xTaskRemoveFromEventList( &( pxQueue->xTasksWaitingToReceive ) ) != pdFALSE )
 8004bdc:	4630      	mov	r0, r6
 8004bde:	f000 fe17 	bl	8005810 <xTaskRemoveFromEventList>
 8004be2:	b108      	cbz	r0, 8004be8 <prvUnlockQueue+0x52>
						vTaskMissedYield();
 8004be4:	f000 fe9e 	bl	8005924 <vTaskMissedYield>
 8004be8:	3d01      	subs	r5, #1
 8004bea:	b26d      	sxtb	r5, r5
 8004bec:	e7dc      	b.n	8004ba8 <prvUnlockQueue+0x12>
			if( listLIST_IS_EMPTY( &( pxQueue->xTasksWaitingToSend ) ) == pdFALSE )
 8004bee:	6923      	ldr	r3, [r4, #16]
 8004bf0:	2b00      	cmp	r3, #0
 8004bf2:	d0e9      	beq.n	8004bc8 <prvUnlockQueue+0x32>
				if( xTaskRemoveFromEventList( &( pxQueue->xTasksWaitingToSend ) ) != pdFALSE )
 8004bf4:	4630      	mov	r0, r6
 8004bf6:	f000 fe0b 	bl	8005810 <xTaskRemoveFromEventList>
 8004bfa:	b108      	cbz	r0, 8004c00 <prvUnlockQueue+0x6a>
					vTaskMissedYield();
 8004bfc:	f000 fe92 	bl	8005924 <vTaskMissedYield>
 8004c00:	3d01      	subs	r5, #1
 8004c02:	b26d      	sxtb	r5, r5
 8004c04:	e7de      	b.n	8004bc4 <prvUnlockQueue+0x2e>
	...

08004c08 <xQueueGenericReset>:
{
 8004c08:	b538      	push	{r3, r4, r5, lr}
 8004c0a:	460d      	mov	r5, r1
	configASSERT( pxQueue );
 8004c0c:	4604      	mov	r4, r0
 8004c0e:	b940      	cbnz	r0, 8004c22 <xQueueGenericReset+0x1a>
 8004c10:	f04f 0350 	mov.w	r3, #80	; 0x50
 8004c14:	f383 8811 	msr	BASEPRI, r3
 8004c18:	f3bf 8f6f 	isb	sy
 8004c1c:	f3bf 8f4f 	dsb	sy
 8004c20:	e7fe      	b.n	8004c20 <xQueueGenericReset+0x18>
	taskENTER_CRITICAL();
 8004c22:	f7ff fe47 	bl	80048b4 <vPortEnterCritical>
		pxQueue->u.xQueue.pcTail = pxQueue->pcHead + ( pxQueue->uxLength * pxQueue->uxItemSize ); /*lint !e9016 Pointer arithmetic allowed on char types, especially when it assists conveying intent. */
 8004c26:	6c20      	ldr	r0, [r4, #64]	; 0x40
 8004c28:	6be3      	ldr	r3, [r4, #60]	; 0x3c
 8004c2a:	6822      	ldr	r2, [r4, #0]
		pxQueue->pcWriteTo = pxQueue->pcHead;
 8004c2c:	6062      	str	r2, [r4, #4]
		pxQueue->u.xQueue.pcTail = pxQueue->pcHead + ( pxQueue->uxLength * pxQueue->uxItemSize ); /*lint !e9016 Pointer arithmetic allowed on char types, especially when it assists conveying intent. */
 8004c2e:	4343      	muls	r3, r0
 8004c30:	18d1      	adds	r1, r2, r3
		pxQueue->u.xQueue.pcReadFrom = pxQueue->pcHead + ( ( pxQueue->uxLength - 1U ) * pxQueue->uxItemSize ); /*lint !e9016 Pointer arithmetic allowed on char types, especially when it assists conveying intent. */
 8004c32:	1a1b      	subs	r3, r3, r0
 8004c34:	4413      	add	r3, r2
		pxQueue->u.xQueue.pcTail = pxQueue->pcHead + ( pxQueue->uxLength * pxQueue->uxItemSize ); /*lint !e9016 Pointer arithmetic allowed on char types, especially when it assists conveying intent. */
 8004c36:	60a1      	str	r1, [r4, #8]
		pxQueue->u.xQueue.pcReadFrom = pxQueue->pcHead + ( ( pxQueue->uxLength - 1U ) * pxQueue->uxItemSize ); /*lint !e9016 Pointer arithmetic allowed on char types, especially when it assists conveying intent. */
 8004c38:	60e3      	str	r3, [r4, #12]
		pxQueue->uxMessagesWaiting = ( UBaseType_t ) 0U;
 8004c3a:	2100      	movs	r1, #0
		pxQueue->cRxLock = queueUNLOCKED;
 8004c3c:	23ff      	movs	r3, #255	; 0xff
		pxQueue->uxMessagesWaiting = ( UBaseType_t ) 0U;
 8004c3e:	63a1      	str	r1, [r4, #56]	; 0x38
		pxQueue->cRxLock = queueUNLOCKED;
 8004c40:	f884 3044 	strb.w	r3, [r4, #68]	; 0x44
		pxQueue->cTxLock = queueUNLOCKED;
 8004c44:	f884 3045 	strb.w	r3, [r4, #69]	; 0x45
		if( xNewQueue == pdFALSE )
 8004c48:	b995      	cbnz	r5, 8004c70 <xQueueGenericReset+0x68>
			if( listLIST_IS_EMPTY( &( pxQueue->xTasksWaitingToSend ) ) == pdFALSE )
 8004c4a:	6923      	ldr	r3, [r4, #16]
 8004c4c:	b163      	cbz	r3, 8004c68 <xQueueGenericReset+0x60>
				if( xTaskRemoveFromEventList( &( pxQueue->xTasksWaitingToSend ) ) != pdFALSE )
 8004c4e:	f104 0010 	add.w	r0, r4, #16
 8004c52:	f000 fddd 	bl	8005810 <xTaskRemoveFromEventList>
 8004c56:	b138      	cbz	r0, 8004c68 <xQueueGenericReset+0x60>
					queueYIELD_IF_USING_PREEMPTION();
 8004c58:	4b0a      	ldr	r3, [pc, #40]	; (8004c84 <xQueueGenericReset+0x7c>)
 8004c5a:	f04f 5280 	mov.w	r2, #268435456	; 0x10000000
 8004c5e:	601a      	str	r2, [r3, #0]
 8004c60:	f3bf 8f4f 	dsb	sy
 8004c64:	f3bf 8f6f 	isb	sy
	taskEXIT_CRITICAL();
 8004c68:	f7ff fe46 	bl	80048f8 <vPortExitCritical>
}
 8004c6c:	2001      	movs	r0, #1
 8004c6e:	bd38      	pop	{r3, r4, r5, pc}
			vListInitialise( &( pxQueue->xTasksWaitingToSend ) );
 8004c70:	f104 0010 	add.w	r0, r4, #16
 8004c74:	f7ff fd74 	bl	8004760 <vListInitialise>
			vListInitialise( &( pxQueue->xTasksWaitingToReceive ) );
 8004c78:	f104 0024 	add.w	r0, r4, #36	; 0x24
 8004c7c:	f7ff fd70 	bl	8004760 <vListInitialise>
 8004c80:	e7f2      	b.n	8004c68 <xQueueGenericReset+0x60>
 8004c82:	bf00      	nop
 8004c84:	e000ed04 	.word	0xe000ed04

08004c88 <xQueueGenericCreate>:
	{
 8004c88:	b570      	push	{r4, r5, r6, lr}
 8004c8a:	460d      	mov	r5, r1
		configASSERT( uxQueueLength > ( UBaseType_t ) 0 );
 8004c8c:	4606      	mov	r6, r0
 8004c8e:	b940      	cbnz	r0, 8004ca2 <xQueueGenericCreate+0x1a>
 8004c90:	f04f 0350 	mov.w	r3, #80	; 0x50
 8004c94:	f383 8811 	msr	BASEPRI, r3
 8004c98:	f3bf 8f6f 	isb	sy
 8004c9c:	f3bf 8f4f 	dsb	sy
 8004ca0:	e7fe      	b.n	8004ca0 <xQueueGenericCreate+0x18>
			xQueueSizeInBytes = ( size_t ) ( uxQueueLength * uxItemSize ); /*lint !e961 MISRA exception as the casts are only redundant for some ports. */
 8004ca2:	4348      	muls	r0, r1
		pxNewQueue = ( Queue_t * ) pvPortMalloc( sizeof( Queue_t ) + xQueueSizeInBytes ); /*lint !e9087 !e9079 see comment above. */
 8004ca4:	3048      	adds	r0, #72	; 0x48
 8004ca6:	f7ff fc95 	bl	80045d4 <pvPortMalloc>
		if( pxNewQueue != NULL )
 8004caa:	4604      	mov	r4, r0
 8004cac:	b150      	cbz	r0, 8004cc4 <xQueueGenericCreate+0x3c>
				pxNewQueue->ucStaticallyAllocated = pdFALSE;
 8004cae:	2300      	movs	r3, #0
 8004cb0:	f880 3046 	strb.w	r3, [r0, #70]	; 0x46
	if( uxItemSize == ( UBaseType_t ) 0 )
 8004cb4:	b945      	cbnz	r5, 8004cc8 <xQueueGenericCreate+0x40>
		pxNewQueue->pcHead = ( int8_t * ) pxNewQueue;
 8004cb6:	6020      	str	r0, [r4, #0]
	pxNewQueue->uxLength = uxQueueLength;
 8004cb8:	63e6      	str	r6, [r4, #60]	; 0x3c
	pxNewQueue->uxItemSize = uxItemSize;
 8004cba:	6425      	str	r5, [r4, #64]	; 0x40
	( void ) xQueueGenericReset( pxNewQueue, pdTRUE );
 8004cbc:	2101      	movs	r1, #1
 8004cbe:	4620      	mov	r0, r4
 8004cc0:	f7ff ffa2 	bl	8004c08 <xQueueGenericReset>
	}
 8004cc4:	4620      	mov	r0, r4
 8004cc6:	bd70      	pop	{r4, r5, r6, pc}
			pucQueueStorage += sizeof( Queue_t ); /*lint !e9016 Pointer arithmetic allowed on char types, especially when it assists conveying intent. */
 8004cc8:	f100 0348 	add.w	r3, r0, #72	; 0x48
		pxNewQueue->pcHead = ( int8_t * ) pucQueueStorage;
 8004ccc:	6003      	str	r3, [r0, #0]
 8004cce:	e7f3      	b.n	8004cb8 <xQueueGenericCreate+0x30>

08004cd0 <xQueueGenericSend>:
{
 8004cd0:	e92d 47ff 	stmdb	sp!, {r0, r1, r2, r3, r4, r5, r6, r7, r8, r9, sl, lr}
 8004cd4:	4689      	mov	r9, r1
 8004cd6:	9201      	str	r2, [sp, #4]
 8004cd8:	461f      	mov	r7, r3
	configASSERT( pxQueue );
 8004cda:	4604      	mov	r4, r0
 8004cdc:	b940      	cbnz	r0, 8004cf0 <xQueueGenericSend+0x20>
 8004cde:	f04f 0350 	mov.w	r3, #80	; 0x50
 8004ce2:	f383 8811 	msr	BASEPRI, r3
 8004ce6:	f3bf 8f6f 	isb	sy
 8004cea:	f3bf 8f4f 	dsb	sy
 8004cee:	e7fe      	b.n	8004cee <xQueueGenericSend+0x1e>
	configASSERT( !( ( pvItemToQueue == NULL ) && ( pxQueue->uxItemSize != ( UBaseType_t ) 0U ) ) );
 8004cf0:	2900      	cmp	r1, #0
 8004cf2:	f040 8088 	bne.w	8004e06 <xQueueGenericSend+0x136>
 8004cf6:	6c03      	ldr	r3, [r0, #64]	; 0x40
 8004cf8:	2b00      	cmp	r3, #0
 8004cfa:	f000 8084 	beq.w	8004e06 <xQueueGenericSend+0x136>
 8004cfe:	f04f 0350 	mov.w	r3, #80	; 0x50
 8004d02:	f383 8811 	msr	BASEPRI, r3
 8004d06:	f3bf 8f6f 	isb	sy
 8004d0a:	f3bf 8f4f 	dsb	sy
 8004d0e:	e7fe      	b.n	8004d0e <xQueueGenericSend+0x3e>
		configASSERT( !( ( xTaskGetSchedulerState() == taskSCHEDULER_SUSPENDED ) && ( xTicksToWait != 0 ) ) );
 8004d10:	9e01      	ldr	r6, [sp, #4]
 8004d12:	2e00      	cmp	r6, #0
 8004d14:	f000 8082 	beq.w	8004e1c <xQueueGenericSend+0x14c>
 8004d18:	f04f 0350 	mov.w	r3, #80	; 0x50
 8004d1c:	f383 8811 	msr	BASEPRI, r3
 8004d20:	f3bf 8f6f 	isb	sy
 8004d24:	f3bf 8f4f 	dsb	sy
 8004d28:	e7fe      	b.n	8004d28 <xQueueGenericSend+0x58>
				if( xTicksToWait == ( TickType_t ) 0 )
 8004d2a:	9d01      	ldr	r5, [sp, #4]
 8004d2c:	b91d      	cbnz	r5, 8004d36 <xQueueGenericSend+0x66>
					taskEXIT_CRITICAL();
 8004d2e:	f7ff fde3 	bl	80048f8 <vPortExitCritical>
			return errQUEUE_FULL;
 8004d32:	2000      	movs	r0, #0
 8004d34:	e058      	b.n	8004de8 <xQueueGenericSend+0x118>
				else if( xEntryTimeSet == pdFALSE )
 8004d36:	b916      	cbnz	r6, 8004d3e <xQueueGenericSend+0x6e>
					vTaskInternalSetTimeOutState( &xTimeOut );
 8004d38:	a802      	add	r0, sp, #8
 8004d3a:	f000 fdab 	bl	8005894 <vTaskInternalSetTimeOutState>
		taskEXIT_CRITICAL();
 8004d3e:	f7ff fddb 	bl	80048f8 <vPortExitCritical>
		vTaskSuspendAll();
 8004d42:	f000 fbff 	bl	8005544 <vTaskSuspendAll>
		prvLockQueue( pxQueue );
 8004d46:	f7ff fdb5 	bl	80048b4 <vPortEnterCritical>
 8004d4a:	f894 3044 	ldrb.w	r3, [r4, #68]	; 0x44
 8004d4e:	2bff      	cmp	r3, #255	; 0xff
 8004d50:	bf08      	it	eq
 8004d52:	f884 8044 	strbeq.w	r8, [r4, #68]	; 0x44
 8004d56:	f894 3045 	ldrb.w	r3, [r4, #69]	; 0x45
 8004d5a:	2bff      	cmp	r3, #255	; 0xff
 8004d5c:	bf08      	it	eq
 8004d5e:	f884 8045 	strbeq.w	r8, [r4, #69]	; 0x45
 8004d62:	f7ff fdc9 	bl	80048f8 <vPortExitCritical>
		if( xTaskCheckForTimeOut( &xTimeOut, &xTicksToWait ) == pdFALSE )
 8004d66:	a901      	add	r1, sp, #4
 8004d68:	a802      	add	r0, sp, #8
 8004d6a:	f000 fd9f 	bl	80058ac <xTaskCheckForTimeOut>
 8004d6e:	2800      	cmp	r0, #0
 8004d70:	d143      	bne.n	8004dfa <xQueueGenericSend+0x12a>

static BaseType_t prvIsQueueFull( const Queue_t *pxQueue )
{
BaseType_t xReturn;

	taskENTER_CRITICAL();
 8004d72:	f7ff fd9f 	bl	80048b4 <vPortEnterCritical>
	{
		if( pxQueue->uxMessagesWaiting == pxQueue->uxLength )
 8004d76:	6ba6      	ldr	r6, [r4, #56]	; 0x38
 8004d78:	6be5      	ldr	r5, [r4, #60]	; 0x3c
		else
		{
			xReturn = pdFALSE;
		}
	}
	taskEXIT_CRITICAL();
 8004d7a:	f7ff fdbd 	bl	80048f8 <vPortExitCritical>
			if( prvIsQueueFull( pxQueue ) != pdFALSE )
 8004d7e:	42ae      	cmp	r6, r5
 8004d80:	d135      	bne.n	8004dee <xQueueGenericSend+0x11e>
				vTaskPlaceOnEventList( &( pxQueue->xTasksWaitingToSend ), xTicksToWait );
 8004d82:	9901      	ldr	r1, [sp, #4]
 8004d84:	f104 0010 	add.w	r0, r4, #16
 8004d88:	f000 fd28 	bl	80057dc <vTaskPlaceOnEventList>
				prvUnlockQueue( pxQueue );
 8004d8c:	4620      	mov	r0, r4
 8004d8e:	f7ff ff02 	bl	8004b96 <prvUnlockQueue>
				if( xTaskResumeAll() == pdFALSE )
 8004d92:	f000 fc71 	bl	8005678 <xTaskResumeAll>
 8004d96:	b938      	cbnz	r0, 8004da8 <xQueueGenericSend+0xd8>
					portYIELD_WITHIN_API();
 8004d98:	f04f 5380 	mov.w	r3, #268435456	; 0x10000000
 8004d9c:	f8ca 3000 	str.w	r3, [sl]
 8004da0:	f3bf 8f4f 	dsb	sy
 8004da4:	f3bf 8f6f 	isb	sy
 8004da8:	2601      	movs	r6, #1
		taskENTER_CRITICAL();
 8004daa:	f7ff fd83 	bl	80048b4 <vPortEnterCritical>
			if( ( pxQueue->uxMessagesWaiting < pxQueue->uxLength ) || ( xCopyPosition == queueOVERWRITE ) )
 8004dae:	6ba2      	ldr	r2, [r4, #56]	; 0x38
 8004db0:	6be3      	ldr	r3, [r4, #60]	; 0x3c
 8004db2:	429a      	cmp	r2, r3
 8004db4:	d301      	bcc.n	8004dba <xQueueGenericSend+0xea>
 8004db6:	2f02      	cmp	r7, #2
 8004db8:	d1b7      	bne.n	8004d2a <xQueueGenericSend+0x5a>
					xYieldRequired = prvCopyDataToQueue( pxQueue, pvItemToQueue, xCopyPosition );
 8004dba:	463a      	mov	r2, r7
 8004dbc:	4649      	mov	r1, r9
 8004dbe:	4620      	mov	r0, r4
 8004dc0:	f7ff fea1 	bl	8004b06 <prvCopyDataToQueue>
					if( listLIST_IS_EMPTY( &( pxQueue->xTasksWaitingToReceive ) ) == pdFALSE )
 8004dc4:	6a63      	ldr	r3, [r4, #36]	; 0x24
 8004dc6:	b11b      	cbz	r3, 8004dd0 <xQueueGenericSend+0x100>
						if( xTaskRemoveFromEventList( &( pxQueue->xTasksWaitingToReceive ) ) != pdFALSE )
 8004dc8:	f104 0024 	add.w	r0, r4, #36	; 0x24
 8004dcc:	f000 fd20 	bl	8005810 <xTaskRemoveFromEventList>
					else if( xYieldRequired != pdFALSE )
 8004dd0:	b138      	cbz	r0, 8004de2 <xQueueGenericSend+0x112>
						queueYIELD_IF_USING_PREEMPTION();
 8004dd2:	4b19      	ldr	r3, [pc, #100]	; (8004e38 <xQueueGenericSend+0x168>)
 8004dd4:	f04f 5280 	mov.w	r2, #268435456	; 0x10000000
 8004dd8:	601a      	str	r2, [r3, #0]
 8004dda:	f3bf 8f4f 	dsb	sy
 8004dde:	f3bf 8f6f 	isb	sy
				taskEXIT_CRITICAL();
 8004de2:	f7ff fd89 	bl	80048f8 <vPortExitCritical>
				return pdPASS;
 8004de6:	2001      	movs	r0, #1
}
 8004de8:	b004      	add	sp, #16
 8004dea:	e8bd 87f0 	ldmia.w	sp!, {r4, r5, r6, r7, r8, r9, sl, pc}
				prvUnlockQueue( pxQueue );
 8004dee:	4620      	mov	r0, r4
 8004df0:	f7ff fed1 	bl	8004b96 <prvUnlockQueue>
				( void ) xTaskResumeAll();
 8004df4:	f000 fc40 	bl	8005678 <xTaskResumeAll>
 8004df8:	e7d6      	b.n	8004da8 <xQueueGenericSend+0xd8>
			prvUnlockQueue( pxQueue );
 8004dfa:	4620      	mov	r0, r4
 8004dfc:	f7ff fecb 	bl	8004b96 <prvUnlockQueue>
			( void ) xTaskResumeAll();
 8004e00:	f000 fc3a 	bl	8005678 <xTaskResumeAll>
 8004e04:	e795      	b.n	8004d32 <xQueueGenericSend+0x62>
	configASSERT( !( ( xCopyPosition == queueOVERWRITE ) && ( pxQueue->uxLength != 1 ) ) );
 8004e06:	2f02      	cmp	r7, #2
 8004e08:	d102      	bne.n	8004e10 <xQueueGenericSend+0x140>
 8004e0a:	6be3      	ldr	r3, [r4, #60]	; 0x3c
 8004e0c:	2b01      	cmp	r3, #1
 8004e0e:	d10a      	bne.n	8004e26 <xQueueGenericSend+0x156>
		configASSERT( !( ( xTaskGetSchedulerState() == taskSCHEDULER_SUSPENDED ) && ( xTicksToWait != 0 ) ) );
 8004e10:	f000 fd8e 	bl	8005930 <xTaskGetSchedulerState>
 8004e14:	2800      	cmp	r0, #0
 8004e16:	f43f af7b 	beq.w	8004d10 <xQueueGenericSend+0x40>
 8004e1a:	2600      	movs	r6, #0
		prvLockQueue( pxQueue );
 8004e1c:	f04f 0800 	mov.w	r8, #0
					portYIELD_WITHIN_API();
 8004e20:	f8df a014 	ldr.w	sl, [pc, #20]	; 8004e38 <xQueueGenericSend+0x168>
 8004e24:	e7c1      	b.n	8004daa <xQueueGenericSend+0xda>
 8004e26:	f04f 0350 	mov.w	r3, #80	; 0x50
 8004e2a:	f383 8811 	msr	BASEPRI, r3
 8004e2e:	f3bf 8f6f 	isb	sy
 8004e32:	f3bf 8f4f 	dsb	sy
 8004e36:	e7fe      	b.n	8004e36 <xQueueGenericSend+0x166>
 8004e38:	e000ed04 	.word	0xe000ed04

08004e3c <prvInitialiseMutex>:
		if( pxNewQueue != NULL )
 8004e3c:	b138      	cbz	r0, 8004e4e <prvInitialiseMutex+0x12>
			pxNewQueue->u.xSemaphore.xMutexHolder = NULL;
 8004e3e:	2300      	movs	r3, #0
 8004e40:	6083      	str	r3, [r0, #8]
			pxNewQueue->uxQueueType = queueQUEUE_IS_MUTEX;
 8004e42:	6003      	str	r3, [r0, #0]
			pxNewQueue->u.xSemaphore.uxRecursiveCallCount = 0;
 8004e44:	60c3      	str	r3, [r0, #12]
			( void ) xQueueGenericSend( pxNewQueue, NULL, ( TickType_t ) 0U, queueSEND_TO_BACK );
 8004e46:	461a      	mov	r2, r3
 8004e48:	4619      	mov	r1, r3
 8004e4a:	f7ff bf41 	b.w	8004cd0 <xQueueGenericSend>
 8004e4e:	4770      	bx	lr

08004e50 <xQueueCreateMutex>:
	{
 8004e50:	b510      	push	{r4, lr}
		xNewQueue = xQueueGenericCreate( uxMutexLength, uxMutexSize, ucQueueType );
 8004e52:	4602      	mov	r2, r0
 8004e54:	2100      	movs	r1, #0
 8004e56:	2001      	movs	r0, #1
 8004e58:	f7ff ff16 	bl	8004c88 <xQueueGenericCreate>
 8004e5c:	4604      	mov	r4, r0
		prvInitialiseMutex( ( Queue_t * ) xNewQueue );
 8004e5e:	f7ff ffed 	bl	8004e3c <prvInitialiseMutex>
	}
 8004e62:	4620      	mov	r0, r4
 8004e64:	bd10      	pop	{r4, pc}
	...

08004e68 <xQueueReceive>:
{
 8004e68:	e92d 43f0 	stmdb	sp!, {r4, r5, r6, r7, r8, r9, lr}
 8004e6c:	b085      	sub	sp, #20
 8004e6e:	4688      	mov	r8, r1
 8004e70:	9201      	str	r2, [sp, #4]
	configASSERT( ( pxQueue ) );
 8004e72:	4604      	mov	r4, r0
 8004e74:	b940      	cbnz	r0, 8004e88 <xQueueReceive+0x20>
 8004e76:	f04f 0350 	mov.w	r3, #80	; 0x50
 8004e7a:	f383 8811 	msr	BASEPRI, r3
 8004e7e:	f3bf 8f6f 	isb	sy
 8004e82:	f3bf 8f4f 	dsb	sy
 8004e86:	e7fe      	b.n	8004e86 <xQueueReceive+0x1e>
	configASSERT( !( ( ( pvBuffer ) == NULL ) && ( ( pxQueue )->uxItemSize != ( UBaseType_t ) 0U ) ) );
 8004e88:	2900      	cmp	r1, #0
 8004e8a:	f040 8086 	bne.w	8004f9a <xQueueReceive+0x132>
 8004e8e:	6c03      	ldr	r3, [r0, #64]	; 0x40
 8004e90:	2b00      	cmp	r3, #0
 8004e92:	f000 8082 	beq.w	8004f9a <xQueueReceive+0x132>
 8004e96:	f04f 0350 	mov.w	r3, #80	; 0x50
 8004e9a:	f383 8811 	msr	BASEPRI, r3
 8004e9e:	f3bf 8f6f 	isb	sy
 8004ea2:	f3bf 8f4f 	dsb	sy
 8004ea6:	e7fe      	b.n	8004ea6 <xQueueReceive+0x3e>
		configASSERT( !( ( xTaskGetSchedulerState() == taskSCHEDULER_SUSPENDED ) && ( xTicksToWait != 0 ) ) );
 8004ea8:	9e01      	ldr	r6, [sp, #4]
 8004eaa:	2e00      	cmp	r6, #0
 8004eac:	d07a      	beq.n	8004fa4 <xQueueReceive+0x13c>
 8004eae:	f04f 0350 	mov.w	r3, #80	; 0x50
 8004eb2:	f383 8811 	msr	BASEPRI, r3
 8004eb6:	f3bf 8f6f 	isb	sy
 8004eba:	f3bf 8f4f 	dsb	sy
 8004ebe:	e7fe      	b.n	8004ebe <xQueueReceive+0x56>
				if( xTicksToWait == ( TickType_t ) 0 )
 8004ec0:	9d01      	ldr	r5, [sp, #4]
 8004ec2:	b91d      	cbnz	r5, 8004ecc <xQueueReceive+0x64>
					taskEXIT_CRITICAL();
 8004ec4:	f7ff fd18 	bl	80048f8 <vPortExitCritical>
				return errQUEUE_EMPTY;
 8004ec8:	2000      	movs	r0, #0
 8004eca:	e052      	b.n	8004f72 <xQueueReceive+0x10a>
				else if( xEntryTimeSet == pdFALSE )
 8004ecc:	b916      	cbnz	r6, 8004ed4 <xQueueReceive+0x6c>
					vTaskInternalSetTimeOutState( &xTimeOut );
 8004ece:	a802      	add	r0, sp, #8
 8004ed0:	f000 fce0 	bl	8005894 <vTaskInternalSetTimeOutState>
		taskEXIT_CRITICAL();
 8004ed4:	f7ff fd10 	bl	80048f8 <vPortExitCritical>
		vTaskSuspendAll();
 8004ed8:	f000 fb34 	bl	8005544 <vTaskSuspendAll>
		prvLockQueue( pxQueue );
 8004edc:	f7ff fcea 	bl	80048b4 <vPortEnterCritical>
 8004ee0:	f894 3044 	ldrb.w	r3, [r4, #68]	; 0x44
 8004ee4:	2bff      	cmp	r3, #255	; 0xff
 8004ee6:	bf08      	it	eq
 8004ee8:	f884 7044 	strbeq.w	r7, [r4, #68]	; 0x44
 8004eec:	f894 3045 	ldrb.w	r3, [r4, #69]	; 0x45
 8004ef0:	2bff      	cmp	r3, #255	; 0xff
 8004ef2:	bf08      	it	eq
 8004ef4:	f884 7045 	strbeq.w	r7, [r4, #69]	; 0x45
 8004ef8:	f7ff fcfe 	bl	80048f8 <vPortExitCritical>
		if( xTaskCheckForTimeOut( &xTimeOut, &xTicksToWait ) == pdFALSE )
 8004efc:	a901      	add	r1, sp, #4
 8004efe:	a802      	add	r0, sp, #8
 8004f00:	f000 fcd4 	bl	80058ac <xTaskCheckForTimeOut>
 8004f04:	2800      	cmp	r0, #0
 8004f06:	d13d      	bne.n	8004f84 <xQueueReceive+0x11c>
			if( prvIsQueueEmpty( pxQueue ) != pdFALSE )
 8004f08:	4620      	mov	r0, r4
 8004f0a:	f7ff fdf1 	bl	8004af0 <prvIsQueueEmpty>
 8004f0e:	b398      	cbz	r0, 8004f78 <xQueueReceive+0x110>
				vTaskPlaceOnEventList( &( pxQueue->xTasksWaitingToReceive ), xTicksToWait );
 8004f10:	9901      	ldr	r1, [sp, #4]
 8004f12:	f104 0024 	add.w	r0, r4, #36	; 0x24
 8004f16:	f000 fc61 	bl	80057dc <vTaskPlaceOnEventList>
				prvUnlockQueue( pxQueue );
 8004f1a:	4620      	mov	r0, r4
 8004f1c:	f7ff fe3b 	bl	8004b96 <prvUnlockQueue>
				if( xTaskResumeAll() == pdFALSE )
 8004f20:	f000 fbaa 	bl	8005678 <xTaskResumeAll>
 8004f24:	b938      	cbnz	r0, 8004f36 <xQueueReceive+0xce>
					portYIELD_WITHIN_API();
 8004f26:	f04f 5380 	mov.w	r3, #268435456	; 0x10000000
 8004f2a:	f8c9 3000 	str.w	r3, [r9]
 8004f2e:	f3bf 8f4f 	dsb	sy
 8004f32:	f3bf 8f6f 	isb	sy
 8004f36:	2601      	movs	r6, #1
		taskENTER_CRITICAL();
 8004f38:	f7ff fcbc 	bl	80048b4 <vPortEnterCritical>
			const UBaseType_t uxMessagesWaiting = pxQueue->uxMessagesWaiting;
 8004f3c:	6ba5      	ldr	r5, [r4, #56]	; 0x38
			if( uxMessagesWaiting > ( UBaseType_t ) 0 )
 8004f3e:	2d00      	cmp	r5, #0
 8004f40:	d0be      	beq.n	8004ec0 <xQueueReceive+0x58>
				prvCopyDataFromQueue( pxQueue, pvBuffer );
 8004f42:	4641      	mov	r1, r8
 8004f44:	4620      	mov	r0, r4
				pxQueue->uxMessagesWaiting = uxMessagesWaiting - ( UBaseType_t ) 1;
 8004f46:	3d01      	subs	r5, #1
				prvCopyDataFromQueue( pxQueue, pvBuffer );
 8004f48:	f7ff fe10 	bl	8004b6c <prvCopyDataFromQueue>
				pxQueue->uxMessagesWaiting = uxMessagesWaiting - ( UBaseType_t ) 1;
 8004f4c:	63a5      	str	r5, [r4, #56]	; 0x38
				if( listLIST_IS_EMPTY( &( pxQueue->xTasksWaitingToSend ) ) == pdFALSE )
 8004f4e:	6923      	ldr	r3, [r4, #16]
 8004f50:	b163      	cbz	r3, 8004f6c <xQueueReceive+0x104>
					if( xTaskRemoveFromEventList( &( pxQueue->xTasksWaitingToSend ) ) != pdFALSE )
 8004f52:	f104 0010 	add.w	r0, r4, #16
 8004f56:	f000 fc5b 	bl	8005810 <xTaskRemoveFromEventList>
 8004f5a:	b138      	cbz	r0, 8004f6c <xQueueReceive+0x104>
						queueYIELD_IF_USING_PREEMPTION();
 8004f5c:	4b13      	ldr	r3, [pc, #76]	; (8004fac <xQueueReceive+0x144>)
 8004f5e:	f04f 5280 	mov.w	r2, #268435456	; 0x10000000
 8004f62:	601a      	str	r2, [r3, #0]
 8004f64:	f3bf 8f4f 	dsb	sy
 8004f68:	f3bf 8f6f 	isb	sy
				taskEXIT_CRITICAL();
 8004f6c:	f7ff fcc4 	bl	80048f8 <vPortExitCritical>
				return pdPASS;
 8004f70:	2001      	movs	r0, #1
}
 8004f72:	b005      	add	sp, #20
 8004f74:	e8bd 83f0 	ldmia.w	sp!, {r4, r5, r6, r7, r8, r9, pc}
				prvUnlockQueue( pxQueue );
 8004f78:	4620      	mov	r0, r4
 8004f7a:	f7ff fe0c 	bl	8004b96 <prvUnlockQueue>
				( void ) xTaskResumeAll();
 8004f7e:	f000 fb7b 	bl	8005678 <xTaskResumeAll>
 8004f82:	e7d8      	b.n	8004f36 <xQueueReceive+0xce>
			prvUnlockQueue( pxQueue );
 8004f84:	4620      	mov	r0, r4
 8004f86:	f7ff fe06 	bl	8004b96 <prvUnlockQueue>
			( void ) xTaskResumeAll();
 8004f8a:	f000 fb75 	bl	8005678 <xTaskResumeAll>
			if( prvIsQueueEmpty( pxQueue ) != pdFALSE )
 8004f8e:	4620      	mov	r0, r4
 8004f90:	f7ff fdae 	bl	8004af0 <prvIsQueueEmpty>
 8004f94:	2800      	cmp	r0, #0
 8004f96:	d0ce      	beq.n	8004f36 <xQueueReceive+0xce>
 8004f98:	e796      	b.n	8004ec8 <xQueueReceive+0x60>
		configASSERT( !( ( xTaskGetSchedulerState() == taskSCHEDULER_SUSPENDED ) && ( xTicksToWait != 0 ) ) );
 8004f9a:	f000 fcc9 	bl	8005930 <xTaskGetSchedulerState>
 8004f9e:	2800      	cmp	r0, #0
 8004fa0:	d082      	beq.n	8004ea8 <xQueueReceive+0x40>
 8004fa2:	2600      	movs	r6, #0
		prvLockQueue( pxQueue );
 8004fa4:	2700      	movs	r7, #0
					portYIELD_WITHIN_API();
 8004fa6:	f8df 9004 	ldr.w	r9, [pc, #4]	; 8004fac <xQueueReceive+0x144>
 8004faa:	e7c5      	b.n	8004f38 <xQueueReceive+0xd0>
 8004fac:	e000ed04 	.word	0xe000ed04

08004fb0 <xQueueSemaphoreTake>:
{
 8004fb0:	e92d 41ff 	stmdb	sp!, {r0, r1, r2, r3, r4, r5, r6, r7, r8, lr}
	configASSERT( ( pxQueue ) );
 8004fb4:	4604      	mov	r4, r0
{
 8004fb6:	9101      	str	r1, [sp, #4]
	configASSERT( ( pxQueue ) );
 8004fb8:	b940      	cbnz	r0, 8004fcc <xQueueSemaphoreTake+0x1c>
 8004fba:	f04f 0350 	mov.w	r3, #80	; 0x50
 8004fbe:	f383 8811 	msr	BASEPRI, r3
 8004fc2:	f3bf 8f6f 	isb	sy
 8004fc6:	f3bf 8f4f 	dsb	sy
 8004fca:	e7fe      	b.n	8004fca <xQueueSemaphoreTake+0x1a>
	configASSERT( pxQueue->uxItemSize == 0 );
 8004fcc:	6c05      	ldr	r5, [r0, #64]	; 0x40
 8004fce:	b145      	cbz	r5, 8004fe2 <xQueueSemaphoreTake+0x32>
 8004fd0:	f04f 0350 	mov.w	r3, #80	; 0x50
 8004fd4:	f383 8811 	msr	BASEPRI, r3
 8004fd8:	f3bf 8f6f 	isb	sy
 8004fdc:	f3bf 8f4f 	dsb	sy
 8004fe0:	e7fe      	b.n	8004fe0 <xQueueSemaphoreTake+0x30>
		configASSERT( !( ( xTaskGetSchedulerState() == taskSCHEDULER_SUSPENDED ) && ( xTicksToWait != 0 ) ) );
 8004fe2:	f000 fca5 	bl	8005930 <xTaskGetSchedulerState>
 8004fe6:	b918      	cbnz	r0, 8004ff0 <xQueueSemaphoreTake+0x40>
 8004fe8:	9d01      	ldr	r5, [sp, #4]
 8004fea:	2d00      	cmp	r5, #0
 8004fec:	f040 8095 	bne.w	800511a <xQueueSemaphoreTake+0x16a>
					portYIELD_WITHIN_API();
 8004ff0:	f8df 8138 	ldr.w	r8, [pc, #312]	; 800512c <xQueueSemaphoreTake+0x17c>
 8004ff4:	462e      	mov	r6, r5
		prvLockQueue( pxQueue );
 8004ff6:	2700      	movs	r7, #0
		taskENTER_CRITICAL();
 8004ff8:	f7ff fc5c 	bl	80048b4 <vPortEnterCritical>
			const UBaseType_t uxSemaphoreCount = pxQueue->uxMessagesWaiting;
 8004ffc:	6ba3      	ldr	r3, [r4, #56]	; 0x38
			if( uxSemaphoreCount > ( UBaseType_t ) 0 )
 8004ffe:	b1e3      	cbz	r3, 800503a <xQueueSemaphoreTake+0x8a>
				pxQueue->uxMessagesWaiting = uxSemaphoreCount - ( UBaseType_t ) 1;
 8005000:	3b01      	subs	r3, #1
 8005002:	63a3      	str	r3, [r4, #56]	; 0x38
					if( pxQueue->uxQueueType == queueQUEUE_IS_MUTEX )
 8005004:	6823      	ldr	r3, [r4, #0]
 8005006:	b913      	cbnz	r3, 800500e <xQueueSemaphoreTake+0x5e>
						pxQueue->u.xSemaphore.xMutexHolder = pvTaskIncrementMutexHeldCount();
 8005008:	f000 fda0 	bl	8005b4c <pvTaskIncrementMutexHeldCount>
 800500c:	60a0      	str	r0, [r4, #8]
				if( listLIST_IS_EMPTY( &( pxQueue->xTasksWaitingToSend ) ) == pdFALSE )
 800500e:	6923      	ldr	r3, [r4, #16]
 8005010:	b163      	cbz	r3, 800502c <xQueueSemaphoreTake+0x7c>
					if( xTaskRemoveFromEventList( &( pxQueue->xTasksWaitingToSend ) ) != pdFALSE )
 8005012:	f104 0010 	add.w	r0, r4, #16
 8005016:	f000 fbfb 	bl	8005810 <xTaskRemoveFromEventList>
 800501a:	b138      	cbz	r0, 800502c <xQueueSemaphoreTake+0x7c>
						queueYIELD_IF_USING_PREEMPTION();
 800501c:	4b43      	ldr	r3, [pc, #268]	; (800512c <xQueueSemaphoreTake+0x17c>)
 800501e:	f04f 5280 	mov.w	r2, #268435456	; 0x10000000
 8005022:	601a      	str	r2, [r3, #0]
 8005024:	f3bf 8f4f 	dsb	sy
 8005028:	f3bf 8f6f 	isb	sy
				taskEXIT_CRITICAL();
 800502c:	f7ff fc64 	bl	80048f8 <vPortExitCritical>
				return pdPASS;
 8005030:	2501      	movs	r5, #1
}
 8005032:	4628      	mov	r0, r5
 8005034:	b004      	add	sp, #16
 8005036:	e8bd 81f0 	ldmia.w	sp!, {r4, r5, r6, r7, r8, pc}
				if( xTicksToWait == ( TickType_t ) 0 )
 800503a:	9b01      	ldr	r3, [sp, #4]
 800503c:	b963      	cbnz	r3, 8005058 <xQueueSemaphoreTake+0xa8>
						configASSERT( xInheritanceOccurred == pdFALSE );
 800503e:	b145      	cbz	r5, 8005052 <xQueueSemaphoreTake+0xa2>
 8005040:	f04f 0350 	mov.w	r3, #80	; 0x50
 8005044:	f383 8811 	msr	BASEPRI, r3
 8005048:	f3bf 8f6f 	isb	sy
 800504c:	f3bf 8f4f 	dsb	sy
 8005050:	e7fe      	b.n	8005050 <xQueueSemaphoreTake+0xa0>
					taskEXIT_CRITICAL();
 8005052:	f7ff fc51 	bl	80048f8 <vPortExitCritical>
					return errQUEUE_EMPTY;
 8005056:	e7ec      	b.n	8005032 <xQueueSemaphoreTake+0x82>
				else if( xEntryTimeSet == pdFALSE )
 8005058:	b916      	cbnz	r6, 8005060 <xQueueSemaphoreTake+0xb0>
					vTaskInternalSetTimeOutState( &xTimeOut );
 800505a:	a802      	add	r0, sp, #8
 800505c:	f000 fc1a 	bl	8005894 <vTaskInternalSetTimeOutState>
		taskEXIT_CRITICAL();
 8005060:	f7ff fc4a 	bl	80048f8 <vPortExitCritical>
		vTaskSuspendAll();
 8005064:	f000 fa6e 	bl	8005544 <vTaskSuspendAll>
		prvLockQueue( pxQueue );
 8005068:	f7ff fc24 	bl	80048b4 <vPortEnterCritical>
 800506c:	f894 3044 	ldrb.w	r3, [r4, #68]	; 0x44
 8005070:	2bff      	cmp	r3, #255	; 0xff
 8005072:	bf08      	it	eq
 8005074:	f884 7044 	strbeq.w	r7, [r4, #68]	; 0x44
 8005078:	f894 3045 	ldrb.w	r3, [r4, #69]	; 0x45
 800507c:	2bff      	cmp	r3, #255	; 0xff
 800507e:	bf08      	it	eq
 8005080:	f884 7045 	strbeq.w	r7, [r4, #69]	; 0x45
 8005084:	f7ff fc38 	bl	80048f8 <vPortExitCritical>
		if( xTaskCheckForTimeOut( &xTimeOut, &xTicksToWait ) == pdFALSE )
 8005088:	a901      	add	r1, sp, #4
 800508a:	a802      	add	r0, sp, #8
 800508c:	f000 fc0e 	bl	80058ac <xTaskCheckForTimeOut>
 8005090:	bb40      	cbnz	r0, 80050e4 <xQueueSemaphoreTake+0x134>
			if( prvIsQueueEmpty( pxQueue ) != pdFALSE )
 8005092:	4620      	mov	r0, r4
 8005094:	f7ff fd2c 	bl	8004af0 <prvIsQueueEmpty>
 8005098:	b1f0      	cbz	r0, 80050d8 <xQueueSemaphoreTake+0x128>
					if( pxQueue->uxQueueType == queueQUEUE_IS_MUTEX )
 800509a:	6823      	ldr	r3, [r4, #0]
 800509c:	b93b      	cbnz	r3, 80050ae <xQueueSemaphoreTake+0xfe>
						taskENTER_CRITICAL();
 800509e:	f7ff fc09 	bl	80048b4 <vPortEnterCritical>
							xInheritanceOccurred = xTaskPriorityInherit( pxQueue->u.xSemaphore.xMutexHolder );
 80050a2:	68a0      	ldr	r0, [r4, #8]
 80050a4:	f000 fc54 	bl	8005950 <xTaskPriorityInherit>
 80050a8:	4605      	mov	r5, r0
						taskEXIT_CRITICAL();
 80050aa:	f7ff fc25 	bl	80048f8 <vPortExitCritical>
				vTaskPlaceOnEventList( &( pxQueue->xTasksWaitingToReceive ), xTicksToWait );
 80050ae:	9901      	ldr	r1, [sp, #4]
 80050b0:	f104 0024 	add.w	r0, r4, #36	; 0x24
 80050b4:	f000 fb92 	bl	80057dc <vTaskPlaceOnEventList>
				prvUnlockQueue( pxQueue );
 80050b8:	4620      	mov	r0, r4
 80050ba:	f7ff fd6c 	bl	8004b96 <prvUnlockQueue>
				if( xTaskResumeAll() == pdFALSE )
 80050be:	f000 fadb 	bl	8005678 <xTaskResumeAll>
 80050c2:	b938      	cbnz	r0, 80050d4 <xQueueSemaphoreTake+0x124>
					portYIELD_WITHIN_API();
 80050c4:	f04f 5380 	mov.w	r3, #268435456	; 0x10000000
 80050c8:	f8c8 3000 	str.w	r3, [r8]
 80050cc:	f3bf 8f4f 	dsb	sy
 80050d0:	f3bf 8f6f 	isb	sy
 80050d4:	2601      	movs	r6, #1
 80050d6:	e78f      	b.n	8004ff8 <xQueueSemaphoreTake+0x48>
				prvUnlockQueue( pxQueue );
 80050d8:	4620      	mov	r0, r4
 80050da:	f7ff fd5c 	bl	8004b96 <prvUnlockQueue>
				( void ) xTaskResumeAll();
 80050de:	f000 facb 	bl	8005678 <xTaskResumeAll>
 80050e2:	e7f7      	b.n	80050d4 <xQueueSemaphoreTake+0x124>
			prvUnlockQueue( pxQueue );
 80050e4:	4620      	mov	r0, r4
 80050e6:	f7ff fd56 	bl	8004b96 <prvUnlockQueue>
			( void ) xTaskResumeAll();
 80050ea:	f000 fac5 	bl	8005678 <xTaskResumeAll>
			if( prvIsQueueEmpty( pxQueue ) != pdFALSE )
 80050ee:	4620      	mov	r0, r4
 80050f0:	f7ff fcfe 	bl	8004af0 <prvIsQueueEmpty>
 80050f4:	2800      	cmp	r0, #0
 80050f6:	d0ed      	beq.n	80050d4 <xQueueSemaphoreTake+0x124>
					if( xInheritanceOccurred != pdFALSE )
 80050f8:	2d00      	cmp	r5, #0
 80050fa:	d09a      	beq.n	8005032 <xQueueSemaphoreTake+0x82>
						taskENTER_CRITICAL();
 80050fc:	f7ff fbda 	bl	80048b4 <vPortEnterCritical>
		if( listCURRENT_LIST_LENGTH( &( pxQueue->xTasksWaitingToReceive ) ) > 0U )
 8005100:	6a61      	ldr	r1, [r4, #36]	; 0x24
 8005102:	b119      	cbz	r1, 800510c <xQueueSemaphoreTake+0x15c>
			uxHighestPriorityOfWaitingTasks = ( UBaseType_t ) configMAX_PRIORITIES - ( UBaseType_t ) listGET_ITEM_VALUE_OF_HEAD_ENTRY( &( pxQueue->xTasksWaitingToReceive ) );
 8005104:	6b23      	ldr	r3, [r4, #48]	; 0x30
 8005106:	6819      	ldr	r1, [r3, #0]
 8005108:	f1c1 0107 	rsb	r1, r1, #7
							vTaskPriorityDisinheritAfterTimeout( pxQueue->u.xSemaphore.xMutexHolder, uxHighestWaitingPriority );
 800510c:	68a0      	ldr	r0, [r4, #8]
 800510e:	f000 fcc3 	bl	8005a98 <vTaskPriorityDisinheritAfterTimeout>
				return errQUEUE_EMPTY;
 8005112:	2500      	movs	r5, #0
						taskEXIT_CRITICAL();
 8005114:	f7ff fbf0 	bl	80048f8 <vPortExitCritical>
 8005118:	e78b      	b.n	8005032 <xQueueSemaphoreTake+0x82>
 800511a:	f04f 0350 	mov.w	r3, #80	; 0x50
 800511e:	f383 8811 	msr	BASEPRI, r3
 8005122:	f3bf 8f6f 	isb	sy
 8005126:	f3bf 8f4f 	dsb	sy
 800512a:	e7fe      	b.n	800512a <xQueueSemaphoreTake+0x17a>
 800512c:	e000ed04 	.word	0xe000ed04

08005130 <prvAddNewTaskToReadyList>:
	}
}
/*-----------------------------------------------------------*/

static void prvAddNewTaskToReadyList( TCB_t *pxNewTCB )
{
 8005130:	e92d 41f0 	stmdb	sp!, {r4, r5, r6, r7, r8, lr}
 8005134:	4606      	mov	r6, r0
	/* Ensure interrupts don't access the task lists while the lists are being
	updated. */
	taskENTER_CRITICAL();
 8005136:	f7ff fbbd 	bl	80048b4 <vPortEnterCritical>
	{
		uxCurrentNumberOfTasks++;
 800513a:	4b2d      	ldr	r3, [pc, #180]	; (80051f0 <prvAddNewTaskToReadyList+0xc0>)
		if( pxCurrentTCB == NULL )
 800513c:	4c2d      	ldr	r4, [pc, #180]	; (80051f4 <prvAddNewTaskToReadyList+0xc4>)
		uxCurrentNumberOfTasks++;
 800513e:	681a      	ldr	r2, [r3, #0]
 8005140:	4f2d      	ldr	r7, [pc, #180]	; (80051f8 <prvAddNewTaskToReadyList+0xc8>)
 8005142:	3201      	adds	r2, #1
 8005144:	601a      	str	r2, [r3, #0]
		if( pxCurrentTCB == NULL )
 8005146:	6825      	ldr	r5, [r4, #0]
 8005148:	2d00      	cmp	r5, #0
 800514a:	d145      	bne.n	80051d8 <prvAddNewTaskToReadyList+0xa8>
		{
			/* There are no other tasks, or all the other tasks are in
			the suspended state - make this the current task. */
			pxCurrentTCB = pxNewTCB;
 800514c:	6026      	str	r6, [r4, #0]

			if( uxCurrentNumberOfTasks == ( UBaseType_t ) 1 )
 800514e:	681b      	ldr	r3, [r3, #0]
 8005150:	2b01      	cmp	r3, #1
 8005152:	d11c      	bne.n	800518e <prvAddNewTaskToReadyList+0x5e>
{
UBaseType_t uxPriority;

	for( uxPriority = ( UBaseType_t ) 0U; uxPriority < ( UBaseType_t ) configMAX_PRIORITIES; uxPriority++ )
	{
		vListInitialise( &( pxReadyTasksLists[ uxPriority ] ) );
 8005154:	1978      	adds	r0, r7, r5
 8005156:	3514      	adds	r5, #20
 8005158:	f7ff fb02 	bl	8004760 <vListInitialise>
	for( uxPriority = ( UBaseType_t ) 0U; uxPriority < ( UBaseType_t ) configMAX_PRIORITIES; uxPriority++ )
 800515c:	2d8c      	cmp	r5, #140	; 0x8c
 800515e:	d1f9      	bne.n	8005154 <prvAddNewTaskToReadyList+0x24>
	}

	vListInitialise( &xDelayedTaskList1 );
 8005160:	f8df 80c0 	ldr.w	r8, [pc, #192]	; 8005224 <prvAddNewTaskToReadyList+0xf4>
	vListInitialise( &xDelayedTaskList2 );
 8005164:	4d25      	ldr	r5, [pc, #148]	; (80051fc <prvAddNewTaskToReadyList+0xcc>)
	vListInitialise( &xDelayedTaskList1 );
 8005166:	4640      	mov	r0, r8
 8005168:	f7ff fafa 	bl	8004760 <vListInitialise>
	vListInitialise( &xDelayedTaskList2 );
 800516c:	4628      	mov	r0, r5
 800516e:	f7ff faf7 	bl	8004760 <vListInitialise>
	vListInitialise( &xPendingReadyList );
 8005172:	4823      	ldr	r0, [pc, #140]	; (8005200 <prvAddNewTaskToReadyList+0xd0>)
 8005174:	f7ff faf4 	bl	8004760 <vListInitialise>

	#if ( INCLUDE_vTaskDelete == 1 )
	{
		vListInitialise( &xTasksWaitingTermination );
 8005178:	4822      	ldr	r0, [pc, #136]	; (8005204 <prvAddNewTaskToReadyList+0xd4>)
 800517a:	f7ff faf1 	bl	8004760 <vListInitialise>
	}
	#endif /* INCLUDE_vTaskDelete */

	#if ( INCLUDE_vTaskSuspend == 1 )
	{
		vListInitialise( &xSuspendedTaskList );
 800517e:	4822      	ldr	r0, [pc, #136]	; (8005208 <prvAddNewTaskToReadyList+0xd8>)
 8005180:	f7ff faee 	bl	8004760 <vListInitialise>
	}
	#endif /* INCLUDE_vTaskSuspend */

	/* Start with pxDelayedTaskList using list1 and the pxOverflowDelayedTaskList
	using list2. */
	pxDelayedTaskList = &xDelayedTaskList1;
 8005184:	4b21      	ldr	r3, [pc, #132]	; (800520c <prvAddNewTaskToReadyList+0xdc>)
 8005186:	f8c3 8000 	str.w	r8, [r3]
	pxOverflowDelayedTaskList = &xDelayedTaskList2;
 800518a:	4b21      	ldr	r3, [pc, #132]	; (8005210 <prvAddNewTaskToReadyList+0xe0>)
 800518c:	601d      	str	r5, [r3, #0]
		uxTaskNumber++;
 800518e:	4a21      	ldr	r2, [pc, #132]	; (8005214 <prvAddNewTaskToReadyList+0xe4>)
		prvAddTaskToReadyList( pxNewTCB );
 8005190:	4921      	ldr	r1, [pc, #132]	; (8005218 <prvAddNewTaskToReadyList+0xe8>)
		uxTaskNumber++;
 8005192:	6813      	ldr	r3, [r2, #0]
		prvAddTaskToReadyList( pxNewTCB );
 8005194:	6808      	ldr	r0, [r1, #0]
		uxTaskNumber++;
 8005196:	3301      	adds	r3, #1
 8005198:	6013      	str	r3, [r2, #0]
		prvAddTaskToReadyList( pxNewTCB );
 800519a:	6af2      	ldr	r2, [r6, #44]	; 0x2c
 800519c:	2301      	movs	r3, #1
 800519e:	4093      	lsls	r3, r2
 80051a0:	4303      	orrs	r3, r0
 80051a2:	2014      	movs	r0, #20
 80051a4:	600b      	str	r3, [r1, #0]
 80051a6:	fb00 7002 	mla	r0, r0, r2, r7
 80051aa:	1d31      	adds	r1, r6, #4
 80051ac:	f7ff fae6 	bl	800477c <vListInsertEnd>
	taskEXIT_CRITICAL();
 80051b0:	f7ff fba2 	bl	80048f8 <vPortExitCritical>
	if( xSchedulerRunning != pdFALSE )
 80051b4:	4b19      	ldr	r3, [pc, #100]	; (800521c <prvAddNewTaskToReadyList+0xec>)
 80051b6:	681b      	ldr	r3, [r3, #0]
 80051b8:	b163      	cbz	r3, 80051d4 <prvAddNewTaskToReadyList+0xa4>
		if( pxCurrentTCB->uxPriority < pxNewTCB->uxPriority )
 80051ba:	6823      	ldr	r3, [r4, #0]
 80051bc:	6ada      	ldr	r2, [r3, #44]	; 0x2c
 80051be:	6af3      	ldr	r3, [r6, #44]	; 0x2c
 80051c0:	429a      	cmp	r2, r3
 80051c2:	d207      	bcs.n	80051d4 <prvAddNewTaskToReadyList+0xa4>
			taskYIELD_IF_USING_PREEMPTION();
 80051c4:	4b16      	ldr	r3, [pc, #88]	; (8005220 <prvAddNewTaskToReadyList+0xf0>)
 80051c6:	f04f 5280 	mov.w	r2, #268435456	; 0x10000000
 80051ca:	601a      	str	r2, [r3, #0]
 80051cc:	f3bf 8f4f 	dsb	sy
 80051d0:	f3bf 8f6f 	isb	sy
 80051d4:	e8bd 81f0 	ldmia.w	sp!, {r4, r5, r6, r7, r8, pc}
			if( xSchedulerRunning == pdFALSE )
 80051d8:	4b10      	ldr	r3, [pc, #64]	; (800521c <prvAddNewTaskToReadyList+0xec>)
 80051da:	681b      	ldr	r3, [r3, #0]
 80051dc:	2b00      	cmp	r3, #0
 80051de:	d1d6      	bne.n	800518e <prvAddNewTaskToReadyList+0x5e>
				if( pxCurrentTCB->uxPriority <= pxNewTCB->uxPriority )
 80051e0:	6823      	ldr	r3, [r4, #0]
 80051e2:	6ada      	ldr	r2, [r3, #44]	; 0x2c
 80051e4:	6af3      	ldr	r3, [r6, #44]	; 0x2c
 80051e6:	429a      	cmp	r2, r3
					pxCurrentTCB = pxNewTCB;
 80051e8:	bf98      	it	ls
 80051ea:	6026      	strls	r6, [r4, #0]
 80051ec:	e7cf      	b.n	800518e <prvAddNewTaskToReadyList+0x5e>
 80051ee:	bf00      	nop
 80051f0:	20003108 	.word	0x20003108
 80051f4:	20003070 	.word	0x20003070
 80051f8:	2000307c 	.word	0x2000307c
 80051fc:	20003134 	.word	0x20003134
 8005200:	20003150 	.word	0x20003150
 8005204:	2000317c 	.word	0x2000317c
 8005208:	20003168 	.word	0x20003168
 800520c:	20003074 	.word	0x20003074
 8005210:	20003078 	.word	0x20003078
 8005214:	20003118 	.word	0x20003118
 8005218:	2000311c 	.word	0x2000311c
 800521c:	20003164 	.word	0x20003164
 8005220:	e000ed04 	.word	0xe000ed04
 8005224:	20003120 	.word	0x20003120

08005228 <prvResetNextTaskUnblockTime>:

static void prvResetNextTaskUnblockTime( void )
{
TCB_t *pxTCB;

	if( listLIST_IS_EMPTY( pxDelayedTaskList ) != pdFALSE )
 8005228:	4a06      	ldr	r2, [pc, #24]	; (8005244 <prvResetNextTaskUnblockTime+0x1c>)
 800522a:	6813      	ldr	r3, [r2, #0]
 800522c:	6819      	ldr	r1, [r3, #0]
 800522e:	4b06      	ldr	r3, [pc, #24]	; (8005248 <prvResetNextTaskUnblockTime+0x20>)
 8005230:	b919      	cbnz	r1, 800523a <prvResetNextTaskUnblockTime+0x12>
	{
		/* The new current delayed list is empty.  Set xNextTaskUnblockTime to
		the maximum possible value so it is	extremely unlikely that the
		if( xTickCount >= xNextTaskUnblockTime ) test will pass until
		there is an item in the delayed list. */
		xNextTaskUnblockTime = portMAX_DELAY;
 8005232:	f04f 32ff 	mov.w	r2, #4294967295
		/* The new current delayed list is not empty, get the value of
		the item at the head of the delayed list.  This is the time at
		which the task at the head of the delayed list should be removed
		from the Blocked state. */
		( pxTCB ) = listGET_OWNER_OF_HEAD_ENTRY( pxDelayedTaskList ); /*lint !e9079 void * is used as this macro is used with timers and co-routines too.  Alignment is known to be fine as the type of the pointer stored and retrieved is the same. */
		xNextTaskUnblockTime = listGET_LIST_ITEM_VALUE( &( ( pxTCB )->xStateListItem ) );
 8005236:	601a      	str	r2, [r3, #0]
 8005238:	4770      	bx	lr
		( pxTCB ) = listGET_OWNER_OF_HEAD_ENTRY( pxDelayedTaskList ); /*lint !e9079 void * is used as this macro is used with timers and co-routines too.  Alignment is known to be fine as the type of the pointer stored and retrieved is the same. */
 800523a:	6812      	ldr	r2, [r2, #0]
 800523c:	68d2      	ldr	r2, [r2, #12]
		xNextTaskUnblockTime = listGET_LIST_ITEM_VALUE( &( ( pxTCB )->xStateListItem ) );
 800523e:	68d2      	ldr	r2, [r2, #12]
 8005240:	6852      	ldr	r2, [r2, #4]
 8005242:	e7f8      	b.n	8005236 <prvResetNextTaskUnblockTime+0xe>
 8005244:	20003074 	.word	0x20003074
 8005248:	20003148 	.word	0x20003148

0800524c <prvInitialiseNewTask.isra.2>:
static void prvInitialiseNewTask( 	TaskFunction_t pxTaskCode,
 800524c:	e92d 47f0 	stmdb	sp!, {r4, r5, r6, r7, r8, r9, sl, lr}
 8005250:	9c0a      	ldr	r4, [sp, #40]	; 0x28
 8005252:	9e09      	ldr	r6, [sp, #36]	; 0x24
		( void ) memset( pxNewTCB->pxStack, ( int ) tskSTACK_FILL_BYTE, ( size_t ) ulStackDepth * sizeof( StackType_t ) );
 8005254:	ea4f 0982 	mov.w	r9, r2, lsl #2
 8005258:	464a      	mov	r2, r9
static void prvInitialiseNewTask( 	TaskFunction_t pxTaskCode,
 800525a:	4607      	mov	r7, r0
 800525c:	460d      	mov	r5, r1
		( void ) memset( pxNewTCB->pxStack, ( int ) tskSTACK_FILL_BYTE, ( size_t ) ulStackDepth * sizeof( StackType_t ) );
 800525e:	6b20      	ldr	r0, [r4, #48]	; 0x30
 8005260:	21a5      	movs	r1, #165	; 0xa5
static void prvInitialiseNewTask( 	TaskFunction_t pxTaskCode,
 8005262:	4698      	mov	r8, r3
		( void ) memset( pxNewTCB->pxStack, ( int ) tskSTACK_FILL_BYTE, ( size_t ) ulStackDepth * sizeof( StackType_t ) );
 8005264:	f003 f8f3 	bl	800844e <memset>
		pxTopOfStack = &( pxNewTCB->pxStack[ ulStackDepth - ( uint32_t ) 1 ] );
 8005268:	6b23      	ldr	r3, [r4, #48]	; 0x30
 800526a:	f1a9 0904 	sub.w	r9, r9, #4
 800526e:	4499      	add	r9, r3
		pxTopOfStack = ( StackType_t * ) ( ( ( portPOINTER_SIZE_TYPE ) pxTopOfStack ) & ( ~( ( portPOINTER_SIZE_TYPE ) portBYTE_ALIGNMENT_MASK ) ) ); /*lint !e923 !e9033 !e9078 MISRA exception.  Avoiding casts between pointers and integers is not practical.  Size differences accounted for using portPOINTER_SIZE_TYPE type.  Checked by assert(). */
 8005270:	f029 0907 	bic.w	r9, r9, #7
	if( pcName != NULL )
 8005274:	b395      	cbz	r5, 80052dc <prvInitialiseNewTask.isra.2+0x90>
 8005276:	1e6b      	subs	r3, r5, #1
 8005278:	f104 0234 	add.w	r2, r4, #52	; 0x34
 800527c:	351f      	adds	r5, #31
			pxNewTCB->pcTaskName[ x ] = pcName[ x ];
 800527e:	7859      	ldrb	r1, [r3, #1]
 8005280:	f802 1b01 	strb.w	r1, [r2], #1
			if( pcName[ x ] == ( char ) 0x00 )
 8005284:	f813 1f01 	ldrb.w	r1, [r3, #1]!
 8005288:	b109      	cbz	r1, 800528e <prvInitialiseNewTask.isra.2+0x42>
		for( x = ( UBaseType_t ) 0; x < ( UBaseType_t ) configMAX_TASK_NAME_LEN; x++ )
 800528a:	42ab      	cmp	r3, r5
 800528c:	d1f7      	bne.n	800527e <prvInitialiseNewTask.isra.2+0x32>
		pxNewTCB->pcTaskName[ configMAX_TASK_NAME_LEN - 1 ] = '\0';
 800528e:	2300      	movs	r3, #0
 8005290:	f884 3053 	strb.w	r3, [r4, #83]	; 0x53
 8005294:	9d08      	ldr	r5, [sp, #32]
 8005296:	2d06      	cmp	r5, #6
 8005298:	bf28      	it	cs
 800529a:	2506      	movcs	r5, #6
		pxNewTCB->uxMutexesHeld = 0;
 800529c:	f04f 0a00 	mov.w	sl, #0
	pxNewTCB->uxPriority = uxPriority;
 80052a0:	62e5      	str	r5, [r4, #44]	; 0x2c
		pxNewTCB->uxBasePriority = uxPriority;
 80052a2:	6565      	str	r5, [r4, #84]	; 0x54
	vListInitialiseItem( &( pxNewTCB->xStateListItem ) );
 80052a4:	1d20      	adds	r0, r4, #4
		pxNewTCB->uxMutexesHeld = 0;
 80052a6:	f8c4 a058 	str.w	sl, [r4, #88]	; 0x58
	vListInitialiseItem( &( pxNewTCB->xStateListItem ) );
 80052aa:	f7ff fa64 	bl	8004776 <vListInitialiseItem>
	listSET_LIST_ITEM_VALUE( &( pxNewTCB->xEventListItem ), ( TickType_t ) configMAX_PRIORITIES - ( TickType_t ) uxPriority ); /*lint !e961 MISRA exception as the casts are only redundant for some ports. */
 80052ae:	f1c5 0507 	rsb	r5, r5, #7
	vListInitialiseItem( &( pxNewTCB->xEventListItem ) );
 80052b2:	f104 0018 	add.w	r0, r4, #24
 80052b6:	f7ff fa5e 	bl	8004776 <vListInitialiseItem>
		pxNewTCB->ulNotifiedValue = 0;
 80052ba:	f8c4 a05c 	str.w	sl, [r4, #92]	; 0x5c
	listSET_LIST_ITEM_OWNER( &( pxNewTCB->xStateListItem ), pxNewTCB );
 80052be:	6124      	str	r4, [r4, #16]
	listSET_LIST_ITEM_VALUE( &( pxNewTCB->xEventListItem ), ( TickType_t ) configMAX_PRIORITIES - ( TickType_t ) uxPriority ); /*lint !e961 MISRA exception as the casts are only redundant for some ports. */
 80052c0:	61a5      	str	r5, [r4, #24]
	listSET_LIST_ITEM_OWNER( &( pxNewTCB->xEventListItem ), pxNewTCB );
 80052c2:	6264      	str	r4, [r4, #36]	; 0x24
		pxNewTCB->ucNotifyState = taskNOT_WAITING_NOTIFICATION;
 80052c4:	f884 a060 	strb.w	sl, [r4, #96]	; 0x60
			pxNewTCB->pxTopOfStack = pxPortInitialiseStack( pxTopOfStack, pxTaskCode, pvParameters );
 80052c8:	4642      	mov	r2, r8
 80052ca:	4639      	mov	r1, r7
 80052cc:	4648      	mov	r0, r9
 80052ce:	f7ff fac7 	bl	8004860 <pxPortInitialiseStack>
 80052d2:	6020      	str	r0, [r4, #0]
	if( pxCreatedTask != NULL )
 80052d4:	b106      	cbz	r6, 80052d8 <prvInitialiseNewTask.isra.2+0x8c>
		*pxCreatedTask = ( TaskHandle_t ) pxNewTCB;
 80052d6:	6034      	str	r4, [r6, #0]
 80052d8:	e8bd 87f0 	ldmia.w	sp!, {r4, r5, r6, r7, r8, r9, sl, pc}
		pxNewTCB->pcTaskName[ 0 ] = 0x00;
 80052dc:	f884 5034 	strb.w	r5, [r4, #52]	; 0x34
 80052e0:	e7d8      	b.n	8005294 <prvInitialiseNewTask.isra.2+0x48>

080052e2 <prvDeleteTCB>:
	{
 80052e2:	b510      	push	{r4, lr}
			if( pxTCB->ucStaticallyAllocated == tskDYNAMICALLY_ALLOCATED_STACK_AND_TCB )
 80052e4:	f890 3061 	ldrb.w	r3, [r0, #97]	; 0x61
	{
 80052e8:	4604      	mov	r4, r0
			if( pxTCB->ucStaticallyAllocated == tskDYNAMICALLY_ALLOCATED_STACK_AND_TCB )
 80052ea:	b93b      	cbnz	r3, 80052fc <prvDeleteTCB+0x1a>
				vPortFree( pxTCB->pxStack );
 80052ec:	6b00      	ldr	r0, [r0, #48]	; 0x30
 80052ee:	f7ff f9ff 	bl	80046f0 <vPortFree>
				vPortFree( pxTCB );
 80052f2:	4620      	mov	r0, r4
	}
 80052f4:	e8bd 4010 	ldmia.w	sp!, {r4, lr}
				vPortFree( pxTCB );
 80052f8:	f7ff b9fa 	b.w	80046f0 <vPortFree>
			else if( pxTCB->ucStaticallyAllocated == tskSTATICALLY_ALLOCATED_STACK_ONLY )
 80052fc:	2b01      	cmp	r3, #1
 80052fe:	d0f9      	beq.n	80052f4 <prvDeleteTCB+0x12>
				configASSERT( pxTCB->ucStaticallyAllocated == tskSTATICALLY_ALLOCATED_STACK_AND_TCB	);
 8005300:	2b02      	cmp	r3, #2
 8005302:	d008      	beq.n	8005316 <prvDeleteTCB+0x34>
 8005304:	f04f 0350 	mov.w	r3, #80	; 0x50
 8005308:	f383 8811 	msr	BASEPRI, r3
 800530c:	f3bf 8f6f 	isb	sy
 8005310:	f3bf 8f4f 	dsb	sy
 8005314:	e7fe      	b.n	8005314 <prvDeleteTCB+0x32>
 8005316:	bd10      	pop	{r4, pc}

08005318 <prvIdleTask>:
{
 8005318:	b580      	push	{r7, lr}
				taskYIELD();
 800531a:	f8df 805c 	ldr.w	r8, [pc, #92]	; 8005378 <prvIdleTask+0x60>
				pxTCB = listGET_OWNER_OF_HEAD_ENTRY( ( &xTasksWaitingTermination ) ); /*lint !e9079 void * is used as this macro is used with timers and co-routines too.  Alignment is known to be fine as the type of the pointer stored and retrieved is the same. */
 800531e:	4f12      	ldr	r7, [pc, #72]	; (8005368 <prvIdleTask+0x50>)
		while( uxDeletedTasksWaitingCleanUp > ( UBaseType_t ) 0U )
 8005320:	4c12      	ldr	r4, [pc, #72]	; (800536c <prvIdleTask+0x54>)
				--uxCurrentNumberOfTasks;
 8005322:	4d13      	ldr	r5, [pc, #76]	; (8005370 <prvIdleTask+0x58>)
		while( uxDeletedTasksWaitingCleanUp > ( UBaseType_t ) 0U )
 8005324:	6823      	ldr	r3, [r4, #0]
 8005326:	b963      	cbnz	r3, 8005342 <prvIdleTask+0x2a>
			if( listCURRENT_LIST_LENGTH( &( pxReadyTasksLists[ tskIDLE_PRIORITY ] ) ) > ( UBaseType_t ) 1 )
 8005328:	4b12      	ldr	r3, [pc, #72]	; (8005374 <prvIdleTask+0x5c>)
 800532a:	681b      	ldr	r3, [r3, #0]
 800532c:	2b01      	cmp	r3, #1
 800532e:	d9f8      	bls.n	8005322 <prvIdleTask+0xa>
				taskYIELD();
 8005330:	f04f 5380 	mov.w	r3, #268435456	; 0x10000000
 8005334:	f8c8 3000 	str.w	r3, [r8]
 8005338:	f3bf 8f4f 	dsb	sy
 800533c:	f3bf 8f6f 	isb	sy
 8005340:	e7ee      	b.n	8005320 <prvIdleTask+0x8>
			taskENTER_CRITICAL();
 8005342:	f7ff fab7 	bl	80048b4 <vPortEnterCritical>
				pxTCB = listGET_OWNER_OF_HEAD_ENTRY( ( &xTasksWaitingTermination ) ); /*lint !e9079 void * is used as this macro is used with timers and co-routines too.  Alignment is known to be fine as the type of the pointer stored and retrieved is the same. */
 8005346:	68fb      	ldr	r3, [r7, #12]
 8005348:	68de      	ldr	r6, [r3, #12]
				( void ) uxListRemove( &( pxTCB->xStateListItem ) );
 800534a:	1d30      	adds	r0, r6, #4
 800534c:	f7ff fa39 	bl	80047c2 <uxListRemove>
				--uxCurrentNumberOfTasks;
 8005350:	682b      	ldr	r3, [r5, #0]
 8005352:	3b01      	subs	r3, #1
 8005354:	602b      	str	r3, [r5, #0]
				--uxDeletedTasksWaitingCleanUp;
 8005356:	6823      	ldr	r3, [r4, #0]
 8005358:	3b01      	subs	r3, #1
 800535a:	6023      	str	r3, [r4, #0]
			taskEXIT_CRITICAL();
 800535c:	f7ff facc 	bl	80048f8 <vPortExitCritical>
			prvDeleteTCB( pxTCB );
 8005360:	4630      	mov	r0, r6
 8005362:	f7ff ffbe 	bl	80052e2 <prvDeleteTCB>
 8005366:	e7dd      	b.n	8005324 <prvIdleTask+0xc>
 8005368:	2000317c 	.word	0x2000317c
 800536c:	2000310c 	.word	0x2000310c
 8005370:	20003108 	.word	0x20003108
 8005374:	2000307c 	.word	0x2000307c
 8005378:	e000ed04 	.word	0xe000ed04

0800537c <prvAddCurrentTaskToDelayedList>:
	}
#endif
/*-----------------------------------------------------------*/

static void prvAddCurrentTaskToDelayedList( TickType_t xTicksToWait, const BaseType_t xCanBlockIndefinitely )
{
 800537c:	b5f8      	push	{r3, r4, r5, r6, r7, lr}
TickType_t xTimeToWake;
const TickType_t xConstTickCount = xTickCount;
 800537e:	4b1b      	ldr	r3, [pc, #108]	; (80053ec <prvAddCurrentTaskToDelayedList+0x70>)
	}
	#endif

	/* Remove the task from the ready list before adding it to the blocked list
	as the same list item is used for both lists. */
	if( uxListRemove( &( pxCurrentTCB->xStateListItem ) ) == ( UBaseType_t ) 0 )
 8005380:	4e1b      	ldr	r6, [pc, #108]	; (80053f0 <prvAddCurrentTaskToDelayedList+0x74>)
const TickType_t xConstTickCount = xTickCount;
 8005382:	681d      	ldr	r5, [r3, #0]
{
 8005384:	4604      	mov	r4, r0
	if( uxListRemove( &( pxCurrentTCB->xStateListItem ) ) == ( UBaseType_t ) 0 )
 8005386:	6830      	ldr	r0, [r6, #0]
 8005388:	3004      	adds	r0, #4
{
 800538a:	460f      	mov	r7, r1
	if( uxListRemove( &( pxCurrentTCB->xStateListItem ) ) == ( UBaseType_t ) 0 )
 800538c:	f7ff fa19 	bl	80047c2 <uxListRemove>
 8005390:	4633      	mov	r3, r6
 8005392:	b940      	cbnz	r0, 80053a6 <prvAddCurrentTaskToDelayedList+0x2a>
	{
		/* The current task must be in a ready list, so there is no need to
		check, and the port reset macro can be called directly. */
		portRESET_READY_PRIORITY( pxCurrentTCB->uxPriority, uxTopReadyPriority ); /*lint !e931 pxCurrentTCB cannot change as it is the calling task.  pxCurrentTCB->uxPriority and uxTopReadyPriority cannot change as called with scheduler suspended or in a critical section. */
 8005394:	6831      	ldr	r1, [r6, #0]
 8005396:	4e17      	ldr	r6, [pc, #92]	; (80053f4 <prvAddCurrentTaskToDelayedList+0x78>)
 8005398:	6ac9      	ldr	r1, [r1, #44]	; 0x2c
 800539a:	6832      	ldr	r2, [r6, #0]
 800539c:	2001      	movs	r0, #1
 800539e:	4088      	lsls	r0, r1
 80053a0:	ea22 0200 	bic.w	r2, r2, r0
 80053a4:	6032      	str	r2, [r6, #0]
		mtCOVERAGE_TEST_MARKER();
	}

	#if ( INCLUDE_vTaskSuspend == 1 )
	{
		if( ( xTicksToWait == portMAX_DELAY ) && ( xCanBlockIndefinitely != pdFALSE ) )
 80053a6:	1c62      	adds	r2, r4, #1
 80053a8:	d107      	bne.n	80053ba <prvAddCurrentTaskToDelayedList+0x3e>
 80053aa:	b137      	cbz	r7, 80053ba <prvAddCurrentTaskToDelayedList+0x3e>
		{
			/* Add the task to the suspended task list instead of a delayed task
			list to ensure it is not woken by a timing event.  It will block
			indefinitely. */
			vListInsertEnd( &xSuspendedTaskList, &( pxCurrentTCB->xStateListItem ) );
 80053ac:	6819      	ldr	r1, [r3, #0]
 80053ae:	4812      	ldr	r0, [pc, #72]	; (80053f8 <prvAddCurrentTaskToDelayedList+0x7c>)
 80053b0:	3104      	adds	r1, #4

		/* Avoid compiler warning when INCLUDE_vTaskSuspend is not 1. */
		( void ) xCanBlockIndefinitely;
	}
	#endif /* INCLUDE_vTaskSuspend */
}
 80053b2:	e8bd 40f8 	ldmia.w	sp!, {r3, r4, r5, r6, r7, lr}
			vListInsertEnd( &xSuspendedTaskList, &( pxCurrentTCB->xStateListItem ) );
 80053b6:	f7ff b9e1 	b.w	800477c <vListInsertEnd>
			xTimeToWake = xConstTickCount + xTicksToWait;
 80053ba:	442c      	add	r4, r5
			listSET_LIST_ITEM_VALUE( &( pxCurrentTCB->xStateListItem ), xTimeToWake );
 80053bc:	681a      	ldr	r2, [r3, #0]
			if( xTimeToWake < xConstTickCount )
 80053be:	42a5      	cmp	r5, r4
			listSET_LIST_ITEM_VALUE( &( pxCurrentTCB->xStateListItem ), xTimeToWake );
 80053c0:	6054      	str	r4, [r2, #4]
			if( xTimeToWake < xConstTickCount )
 80053c2:	d907      	bls.n	80053d4 <prvAddCurrentTaskToDelayedList+0x58>
				vListInsert( pxOverflowDelayedTaskList, &( pxCurrentTCB->xStateListItem ) );
 80053c4:	4a0d      	ldr	r2, [pc, #52]	; (80053fc <prvAddCurrentTaskToDelayedList+0x80>)
 80053c6:	6810      	ldr	r0, [r2, #0]
 80053c8:	6819      	ldr	r1, [r3, #0]
}
 80053ca:	e8bd 40f8 	ldmia.w	sp!, {r3, r4, r5, r6, r7, lr}
				vListInsert( pxOverflowDelayedTaskList, &( pxCurrentTCB->xStateListItem ) );
 80053ce:	3104      	adds	r1, #4
 80053d0:	f7ff b9e0 	b.w	8004794 <vListInsert>
				vListInsert( pxDelayedTaskList, &( pxCurrentTCB->xStateListItem ) );
 80053d4:	4a0a      	ldr	r2, [pc, #40]	; (8005400 <prvAddCurrentTaskToDelayedList+0x84>)
 80053d6:	6810      	ldr	r0, [r2, #0]
 80053d8:	6819      	ldr	r1, [r3, #0]
 80053da:	3104      	adds	r1, #4
 80053dc:	f7ff f9da 	bl	8004794 <vListInsert>
				if( xTimeToWake < xNextTaskUnblockTime )
 80053e0:	4b08      	ldr	r3, [pc, #32]	; (8005404 <prvAddCurrentTaskToDelayedList+0x88>)
 80053e2:	681a      	ldr	r2, [r3, #0]
 80053e4:	4294      	cmp	r4, r2
					xNextTaskUnblockTime = xTimeToWake;
 80053e6:	bf38      	it	cc
 80053e8:	601c      	strcc	r4, [r3, #0]
 80053ea:	bdf8      	pop	{r3, r4, r5, r6, r7, pc}
 80053ec:	20003190 	.word	0x20003190
 80053f0:	20003070 	.word	0x20003070
 80053f4:	2000311c 	.word	0x2000311c
 80053f8:	20003168 	.word	0x20003168
 80053fc:	20003078 	.word	0x20003078
 8005400:	20003074 	.word	0x20003074
 8005404:	20003148 	.word	0x20003148

08005408 <prvTaskIsTaskSuspended.part.0>:
 8005408:	f04f 0350 	mov.w	r3, #80	; 0x50
 800540c:	f383 8811 	msr	BASEPRI, r3
 8005410:	f3bf 8f6f 	isb	sy
 8005414:	f3bf 8f4f 	dsb	sy
 8005418:	e7fe      	b.n	8005418 <prvTaskIsTaskSuspended.part.0+0x10>

0800541a <xTaskCreateStatic>:
	{
 800541a:	b570      	push	{r4, r5, r6, lr}
 800541c:	b086      	sub	sp, #24
 800541e:	9d0b      	ldr	r5, [sp, #44]	; 0x2c
 8005420:	9c0c      	ldr	r4, [sp, #48]	; 0x30
		configASSERT( puxStackBuffer != NULL );
 8005422:	b90d      	cbnz	r5, 8005428 <xTaskCreateStatic+0xe>
 8005424:	f7ff fff0 	bl	8005408 <prvTaskIsTaskSuspended.part.0>
		configASSERT( pxTaskBuffer != NULL );
 8005428:	b944      	cbnz	r4, 800543c <xTaskCreateStatic+0x22>
 800542a:	f04f 0350 	mov.w	r3, #80	; 0x50
 800542e:	f383 8811 	msr	BASEPRI, r3
 8005432:	f3bf 8f6f 	isb	sy
 8005436:	f3bf 8f4f 	dsb	sy
 800543a:	e7fe      	b.n	800543a <xTaskCreateStatic+0x20>
			volatile size_t xSize = sizeof( StaticTask_t );
 800543c:	2664      	movs	r6, #100	; 0x64
 800543e:	9605      	str	r6, [sp, #20]
			configASSERT( xSize == sizeof( TCB_t ) );
 8005440:	9e05      	ldr	r6, [sp, #20]
 8005442:	2e64      	cmp	r6, #100	; 0x64
 8005444:	d008      	beq.n	8005458 <xTaskCreateStatic+0x3e>
 8005446:	f04f 0350 	mov.w	r3, #80	; 0x50
 800544a:	f383 8811 	msr	BASEPRI, r3
 800544e:	f3bf 8f6f 	isb	sy
 8005452:	f3bf 8f4f 	dsb	sy
 8005456:	e7fe      	b.n	8005456 <xTaskCreateStatic+0x3c>
			pxNewTCB->pxStack = ( StackType_t * ) puxStackBuffer;
 8005458:	6325      	str	r5, [r4, #48]	; 0x30
				pxNewTCB->ucStaticallyAllocated = tskSTATICALLY_ALLOCATED_STACK_AND_TCB;
 800545a:	2502      	movs	r5, #2
 800545c:	f884 5061 	strb.w	r5, [r4, #97]	; 0x61
			prvInitialiseNewTask( pxTaskCode, pcName, ulStackDepth, pvParameters, uxPriority, &xReturn, pxNewTCB, NULL );
 8005460:	ad04      	add	r5, sp, #16
 8005462:	9501      	str	r5, [sp, #4]
 8005464:	9d0a      	ldr	r5, [sp, #40]	; 0x28
 8005466:	9402      	str	r4, [sp, #8]
 8005468:	9500      	str	r5, [sp, #0]
			( void ) xSize; /* Prevent lint warning when configASSERT() is not used. */
 800546a:	9e05      	ldr	r6, [sp, #20]
			prvInitialiseNewTask( pxTaskCode, pcName, ulStackDepth, pvParameters, uxPriority, &xReturn, pxNewTCB, NULL );
 800546c:	f7ff feee 	bl	800524c <prvInitialiseNewTask.isra.2>
			prvAddNewTaskToReadyList( pxNewTCB );
 8005470:	4620      	mov	r0, r4
 8005472:	f7ff fe5d 	bl	8005130 <prvAddNewTaskToReadyList>
	}
 8005476:	9804      	ldr	r0, [sp, #16]
 8005478:	b006      	add	sp, #24
 800547a:	bd70      	pop	{r4, r5, r6, pc}

0800547c <xTaskCreate>:
	{
 800547c:	e92d 43f0 	stmdb	sp!, {r4, r5, r6, r7, r8, r9, lr}
 8005480:	4607      	mov	r7, r0
 8005482:	b085      	sub	sp, #20
			pxStack = pvPortMalloc( ( ( ( size_t ) usStackDepth ) * sizeof( StackType_t ) ) ); /*lint !e9079 All values returned by pvPortMalloc() have at least the alignment required by the MCU's stack and this allocation is the stack. */
 8005484:	0090      	lsls	r0, r2, #2
	{
 8005486:	4688      	mov	r8, r1
 8005488:	4616      	mov	r6, r2
 800548a:	4699      	mov	r9, r3
			pxStack = pvPortMalloc( ( ( ( size_t ) usStackDepth ) * sizeof( StackType_t ) ) ); /*lint !e9079 All values returned by pvPortMalloc() have at least the alignment required by the MCU's stack and this allocation is the stack. */
 800548c:	f7ff f8a2 	bl	80045d4 <pvPortMalloc>
			if( pxStack != NULL )
 8005490:	4605      	mov	r5, r0
 8005492:	b1e8      	cbz	r0, 80054d0 <xTaskCreate+0x54>
				pxNewTCB = ( TCB_t * ) pvPortMalloc( sizeof( TCB_t ) ); /*lint !e9087 !e9079 All values returned by pvPortMalloc() have at least the alignment required by the MCU's stack, and the first member of TCB_t is always a pointer to the task's stack. */
 8005494:	2064      	movs	r0, #100	; 0x64
 8005496:	f7ff f89d 	bl	80045d4 <pvPortMalloc>
				if( pxNewTCB != NULL )
 800549a:	4604      	mov	r4, r0
 800549c:	b1a8      	cbz	r0, 80054ca <xTaskCreate+0x4e>
				pxNewTCB->ucStaticallyAllocated = tskDYNAMICALLY_ALLOCATED_STACK_AND_TCB;
 800549e:	2300      	movs	r3, #0
 80054a0:	f880 3061 	strb.w	r3, [r0, #97]	; 0x61
			prvInitialiseNewTask( pxTaskCode, pcName, ( uint32_t ) usStackDepth, pvParameters, uxPriority, pxCreatedTask, pxNewTCB, NULL );
 80054a4:	9b0d      	ldr	r3, [sp, #52]	; 0x34
					pxNewTCB->pxStack = pxStack;
 80054a6:	6305      	str	r5, [r0, #48]	; 0x30
			prvInitialiseNewTask( pxTaskCode, pcName, ( uint32_t ) usStackDepth, pvParameters, uxPriority, pxCreatedTask, pxNewTCB, NULL );
 80054a8:	9301      	str	r3, [sp, #4]
 80054aa:	9b0c      	ldr	r3, [sp, #48]	; 0x30
 80054ac:	9002      	str	r0, [sp, #8]
 80054ae:	9300      	str	r3, [sp, #0]
 80054b0:	4632      	mov	r2, r6
 80054b2:	464b      	mov	r3, r9
 80054b4:	4641      	mov	r1, r8
 80054b6:	4638      	mov	r0, r7
 80054b8:	f7ff fec8 	bl	800524c <prvInitialiseNewTask.isra.2>
			prvAddNewTaskToReadyList( pxNewTCB );
 80054bc:	4620      	mov	r0, r4
 80054be:	f7ff fe37 	bl	8005130 <prvAddNewTaskToReadyList>
			xReturn = pdPASS;
 80054c2:	2001      	movs	r0, #1
	}
 80054c4:	b005      	add	sp, #20
 80054c6:	e8bd 83f0 	ldmia.w	sp!, {r4, r5, r6, r7, r8, r9, pc}
					vPortFree( pxStack );
 80054ca:	4628      	mov	r0, r5
 80054cc:	f7ff f910 	bl	80046f0 <vPortFree>
			xReturn = errCOULD_NOT_ALLOCATE_REQUIRED_MEMORY;
 80054d0:	f04f 30ff 	mov.w	r0, #4294967295
		return xReturn;
 80054d4:	e7f6      	b.n	80054c4 <xTaskCreate+0x48>
	...

080054d8 <vTaskStartScheduler>:
{
 80054d8:	b510      	push	{r4, lr}
 80054da:	b088      	sub	sp, #32
		StaticTask_t *pxIdleTaskTCBBuffer = NULL;
 80054dc:	2400      	movs	r4, #0
		vApplicationGetIdleTaskMemory( &pxIdleTaskTCBBuffer, &pxIdleTaskStackBuffer, &ulIdleTaskStackSize );
 80054de:	aa07      	add	r2, sp, #28
 80054e0:	a906      	add	r1, sp, #24
 80054e2:	a805      	add	r0, sp, #20
		StaticTask_t *pxIdleTaskTCBBuffer = NULL;
 80054e4:	9405      	str	r4, [sp, #20]
		StackType_t *pxIdleTaskStackBuffer = NULL;
 80054e6:	9406      	str	r4, [sp, #24]
		vApplicationGetIdleTaskMemory( &pxIdleTaskTCBBuffer, &pxIdleTaskStackBuffer, &ulIdleTaskStackSize );
 80054e8:	f000 fd2c 	bl	8005f44 <vApplicationGetIdleTaskMemory>
		xIdleTaskHandle = xTaskCreateStatic(	prvIdleTask,
 80054ec:	9b05      	ldr	r3, [sp, #20]
 80054ee:	9302      	str	r3, [sp, #8]
 80054f0:	9b06      	ldr	r3, [sp, #24]
 80054f2:	9301      	str	r3, [sp, #4]
 80054f4:	9400      	str	r4, [sp, #0]
 80054f6:	4623      	mov	r3, r4
 80054f8:	9a07      	ldr	r2, [sp, #28]
 80054fa:	490d      	ldr	r1, [pc, #52]	; (8005530 <vTaskStartScheduler+0x58>)
 80054fc:	480d      	ldr	r0, [pc, #52]	; (8005534 <vTaskStartScheduler+0x5c>)
 80054fe:	f7ff ff8c 	bl	800541a <xTaskCreateStatic>
		if( xIdleTaskHandle != NULL )
 8005502:	b190      	cbz	r0, 800552a <vTaskStartScheduler+0x52>
 8005504:	f04f 0350 	mov.w	r3, #80	; 0x50
 8005508:	f383 8811 	msr	BASEPRI, r3
 800550c:	f3bf 8f6f 	isb	sy
 8005510:	f3bf 8f4f 	dsb	sy
		xNextTaskUnblockTime = portMAX_DELAY;
 8005514:	4b08      	ldr	r3, [pc, #32]	; (8005538 <vTaskStartScheduler+0x60>)
 8005516:	f04f 32ff 	mov.w	r2, #4294967295
 800551a:	601a      	str	r2, [r3, #0]
		xSchedulerRunning = pdTRUE;
 800551c:	4b07      	ldr	r3, [pc, #28]	; (800553c <vTaskStartScheduler+0x64>)
 800551e:	2201      	movs	r2, #1
 8005520:	601a      	str	r2, [r3, #0]
		xTickCount = ( TickType_t ) configINITIAL_TICK_COUNT;
 8005522:	4b07      	ldr	r3, [pc, #28]	; (8005540 <vTaskStartScheduler+0x68>)
 8005524:	601c      	str	r4, [r3, #0]
		if( xPortStartScheduler() != pdFALSE )
 8005526:	f7ff fa5d 	bl	80049e4 <xPortStartScheduler>
}
 800552a:	b008      	add	sp, #32
 800552c:	bd10      	pop	{r4, pc}
 800552e:	bf00      	nop
 8005530:	0800b8f7 	.word	0x0800b8f7
 8005534:	08005319 	.word	0x08005319
 8005538:	20003148 	.word	0x20003148
 800553c:	20003164 	.word	0x20003164
 8005540:	20003190 	.word	0x20003190

08005544 <vTaskSuspendAll>:
	++uxSchedulerSuspended;
 8005544:	4a02      	ldr	r2, [pc, #8]	; (8005550 <vTaskSuspendAll+0xc>)
 8005546:	6813      	ldr	r3, [r2, #0]
 8005548:	3301      	adds	r3, #1
 800554a:	6013      	str	r3, [r2, #0]
	portMEMORY_BARRIER();
 800554c:	4770      	bx	lr
 800554e:	bf00      	nop
 8005550:	20003114 	.word	0x20003114

08005554 <xTaskIncrementTick>:
{
 8005554:	e92d 4ff8 	stmdb	sp!, {r3, r4, r5, r6, r7, r8, r9, sl, fp, lr}
	if( uxSchedulerSuspended == ( UBaseType_t ) pdFALSE )
 8005558:	4b3c      	ldr	r3, [pc, #240]	; (800564c <xTaskIncrementTick+0xf8>)
 800555a:	681b      	ldr	r3, [r3, #0]
 800555c:	2b00      	cmp	r3, #0
 800555e:	d16d      	bne.n	800563c <xTaskIncrementTick+0xe8>
		const TickType_t xConstTickCount = xTickCount + ( TickType_t ) 1;
 8005560:	4b3b      	ldr	r3, [pc, #236]	; (8005650 <xTaskIncrementTick+0xfc>)
 8005562:	681c      	ldr	r4, [r3, #0]
 8005564:	3401      	adds	r4, #1
		xTickCount = xConstTickCount;
 8005566:	601c      	str	r4, [r3, #0]
		if( xConstTickCount == ( TickType_t ) 0U ) /*lint !e774 'if' does not always evaluate to false as it is looking for an overflow. */
 8005568:	b9bc      	cbnz	r4, 800559a <xTaskIncrementTick+0x46>
			taskSWITCH_DELAYED_LISTS();
 800556a:	4b3a      	ldr	r3, [pc, #232]	; (8005654 <xTaskIncrementTick+0x100>)
 800556c:	681a      	ldr	r2, [r3, #0]
 800556e:	6812      	ldr	r2, [r2, #0]
 8005570:	b142      	cbz	r2, 8005584 <xTaskIncrementTick+0x30>
 8005572:	f04f 0350 	mov.w	r3, #80	; 0x50
 8005576:	f383 8811 	msr	BASEPRI, r3
 800557a:	f3bf 8f6f 	isb	sy
 800557e:	f3bf 8f4f 	dsb	sy
 8005582:	e7fe      	b.n	8005582 <xTaskIncrementTick+0x2e>
 8005584:	4a34      	ldr	r2, [pc, #208]	; (8005658 <xTaskIncrementTick+0x104>)
 8005586:	6819      	ldr	r1, [r3, #0]
 8005588:	6810      	ldr	r0, [r2, #0]
 800558a:	6018      	str	r0, [r3, #0]
 800558c:	6011      	str	r1, [r2, #0]
 800558e:	4a33      	ldr	r2, [pc, #204]	; (800565c <xTaskIncrementTick+0x108>)
 8005590:	6813      	ldr	r3, [r2, #0]
 8005592:	3301      	adds	r3, #1
 8005594:	6013      	str	r3, [r2, #0]
 8005596:	f7ff fe47 	bl	8005228 <prvResetNextTaskUnblockTime>
		if( xConstTickCount >= xNextTaskUnblockTime )
 800559a:	4d31      	ldr	r5, [pc, #196]	; (8005660 <xTaskIncrementTick+0x10c>)
 800559c:	4f31      	ldr	r7, [pc, #196]	; (8005664 <xTaskIncrementTick+0x110>)
 800559e:	682b      	ldr	r3, [r5, #0]
 80055a0:	429c      	cmp	r4, r3
 80055a2:	f04f 0b00 	mov.w	fp, #0
 80055a6:	d30a      	bcc.n	80055be <xTaskIncrementTick+0x6a>
				if( listLIST_IS_EMPTY( pxDelayedTaskList ) != pdFALSE )
 80055a8:	f8df a0a8 	ldr.w	sl, [pc, #168]	; 8005654 <xTaskIncrementTick+0x100>
					prvAddTaskToReadyList( pxTCB );
 80055ac:	f8df 90c4 	ldr.w	r9, [pc, #196]	; 8005674 <xTaskIncrementTick+0x120>
				if( listLIST_IS_EMPTY( pxDelayedTaskList ) != pdFALSE )
 80055b0:	f8da 2000 	ldr.w	r2, [sl]
 80055b4:	6812      	ldr	r2, [r2, #0]
 80055b6:	b9a2      	cbnz	r2, 80055e2 <xTaskIncrementTick+0x8e>
					xNextTaskUnblockTime = portMAX_DELAY; /*lint !e961 MISRA exception as the casts are only redundant for some ports. */
 80055b8:	f04f 32ff 	mov.w	r2, #4294967295
 80055bc:	602a      	str	r2, [r5, #0]
			if( listCURRENT_LIST_LENGTH( &( pxReadyTasksLists[ pxCurrentTCB->uxPriority ] ) ) > ( UBaseType_t ) 1 )
 80055be:	683a      	ldr	r2, [r7, #0]
 80055c0:	4b29      	ldr	r3, [pc, #164]	; (8005668 <xTaskIncrementTick+0x114>)
 80055c2:	6ad1      	ldr	r1, [r2, #44]	; 0x2c
 80055c4:	2214      	movs	r2, #20
 80055c6:	434a      	muls	r2, r1
 80055c8:	589a      	ldr	r2, [r3, r2]
				xSwitchRequired = pdTRUE;
 80055ca:	2a02      	cmp	r2, #2
 80055cc:	bf28      	it	cs
 80055ce:	f04f 0b01 	movcs.w	fp, #1
		if( xYieldPending != pdFALSE )
 80055d2:	4a26      	ldr	r2, [pc, #152]	; (800566c <xTaskIncrementTick+0x118>)
 80055d4:	6812      	ldr	r2, [r2, #0]
			xSwitchRequired = pdTRUE;
 80055d6:	2a00      	cmp	r2, #0
}
 80055d8:	bf0c      	ite	eq
 80055da:	4658      	moveq	r0, fp
 80055dc:	2001      	movne	r0, #1
 80055de:	e8bd 8ff8 	ldmia.w	sp!, {r3, r4, r5, r6, r7, r8, r9, sl, fp, pc}
					pxTCB = listGET_OWNER_OF_HEAD_ENTRY( pxDelayedTaskList ); /*lint !e9079 void * is used as this macro is used with timers and co-routines too.  Alignment is known to be fine as the type of the pointer stored and retrieved is the same. */
 80055e2:	f8da 2000 	ldr.w	r2, [sl]
 80055e6:	68d2      	ldr	r2, [r2, #12]
 80055e8:	68d6      	ldr	r6, [r2, #12]
					xItemValue = listGET_LIST_ITEM_VALUE( &( pxTCB->xStateListItem ) );
 80055ea:	6871      	ldr	r1, [r6, #4]
					if( xConstTickCount < xItemValue )
 80055ec:	428c      	cmp	r4, r1
 80055ee:	d201      	bcs.n	80055f4 <xTaskIncrementTick+0xa0>
						xNextTaskUnblockTime = xItemValue;
 80055f0:	6029      	str	r1, [r5, #0]
						break; /*lint !e9011 Code structure here is deedmed easier to understand with multiple breaks. */
 80055f2:	e7e4      	b.n	80055be <xTaskIncrementTick+0x6a>
					( void ) uxListRemove( &( pxTCB->xStateListItem ) );
 80055f4:	f106 0804 	add.w	r8, r6, #4
 80055f8:	4640      	mov	r0, r8
 80055fa:	f7ff f8e2 	bl	80047c2 <uxListRemove>
					if( listLIST_ITEM_CONTAINER( &( pxTCB->xEventListItem ) ) != NULL )
 80055fe:	6ab1      	ldr	r1, [r6, #40]	; 0x28
 8005600:	b119      	cbz	r1, 800560a <xTaskIncrementTick+0xb6>
						( void ) uxListRemove( &( pxTCB->xEventListItem ) );
 8005602:	f106 0018 	add.w	r0, r6, #24
 8005606:	f7ff f8dc 	bl	80047c2 <uxListRemove>
					prvAddTaskToReadyList( pxTCB );
 800560a:	6af0      	ldr	r0, [r6, #44]	; 0x2c
 800560c:	f8d9 3000 	ldr.w	r3, [r9]
 8005610:	2201      	movs	r2, #1
 8005612:	fa02 f100 	lsl.w	r1, r2, r0
 8005616:	4319      	orrs	r1, r3
 8005618:	4b13      	ldr	r3, [pc, #76]	; (8005668 <xTaskIncrementTick+0x114>)
 800561a:	f8c9 1000 	str.w	r1, [r9]
 800561e:	f04f 0e14 	mov.w	lr, #20
 8005622:	4641      	mov	r1, r8
 8005624:	fb0e 3000 	mla	r0, lr, r0, r3
 8005628:	f7ff f8a8 	bl	800477c <vListInsertEnd>
						if( pxTCB->uxPriority >= pxCurrentTCB->uxPriority )
 800562c:	6838      	ldr	r0, [r7, #0]
 800562e:	6af1      	ldr	r1, [r6, #44]	; 0x2c
 8005630:	6ac2      	ldr	r2, [r0, #44]	; 0x2c
							xSwitchRequired = pdTRUE;
 8005632:	4291      	cmp	r1, r2
 8005634:	bf28      	it	cs
 8005636:	f04f 0b01 	movcs.w	fp, #1
 800563a:	e7b9      	b.n	80055b0 <xTaskIncrementTick+0x5c>
		++uxPendedTicks;
 800563c:	4a0c      	ldr	r2, [pc, #48]	; (8005670 <xTaskIncrementTick+0x11c>)
 800563e:	6813      	ldr	r3, [r2, #0]
 8005640:	3301      	adds	r3, #1
 8005642:	6013      	str	r3, [r2, #0]
BaseType_t xSwitchRequired = pdFALSE;
 8005644:	f04f 0b00 	mov.w	fp, #0
 8005648:	e7c3      	b.n	80055d2 <xTaskIncrementTick+0x7e>
 800564a:	bf00      	nop
 800564c:	20003114 	.word	0x20003114
 8005650:	20003190 	.word	0x20003190
 8005654:	20003074 	.word	0x20003074
 8005658:	20003078 	.word	0x20003078
 800565c:	2000314c 	.word	0x2000314c
 8005660:	20003148 	.word	0x20003148
 8005664:	20003070 	.word	0x20003070
 8005668:	2000307c 	.word	0x2000307c
 800566c:	20003194 	.word	0x20003194
 8005670:	20003110 	.word	0x20003110
 8005674:	2000311c 	.word	0x2000311c

08005678 <xTaskResumeAll>:
{
 8005678:	e92d 43f8 	stmdb	sp!, {r3, r4, r5, r6, r7, r8, r9, lr}
	configASSERT( uxSchedulerSuspended );
 800567c:	4c31      	ldr	r4, [pc, #196]	; (8005744 <xTaskResumeAll+0xcc>)
 800567e:	6823      	ldr	r3, [r4, #0]
 8005680:	b943      	cbnz	r3, 8005694 <xTaskResumeAll+0x1c>
 8005682:	f04f 0350 	mov.w	r3, #80	; 0x50
 8005686:	f383 8811 	msr	BASEPRI, r3
 800568a:	f3bf 8f6f 	isb	sy
 800568e:	f3bf 8f4f 	dsb	sy
 8005692:	e7fe      	b.n	8005692 <xTaskResumeAll+0x1a>
	taskENTER_CRITICAL();
 8005694:	f7ff f90e 	bl	80048b4 <vPortEnterCritical>
		--uxSchedulerSuspended;
 8005698:	6823      	ldr	r3, [r4, #0]
 800569a:	3b01      	subs	r3, #1
 800569c:	6023      	str	r3, [r4, #0]
		if( uxSchedulerSuspended == ( UBaseType_t ) pdFALSE )
 800569e:	6824      	ldr	r4, [r4, #0]
 80056a0:	b12c      	cbz	r4, 80056ae <xTaskResumeAll+0x36>
BaseType_t xAlreadyYielded = pdFALSE;
 80056a2:	2400      	movs	r4, #0
	taskEXIT_CRITICAL();
 80056a4:	f7ff f928 	bl	80048f8 <vPortExitCritical>
}
 80056a8:	4620      	mov	r0, r4
 80056aa:	e8bd 83f8 	ldmia.w	sp!, {r3, r4, r5, r6, r7, r8, r9, pc}
			if( uxCurrentNumberOfTasks > ( UBaseType_t ) 0U )
 80056ae:	4b26      	ldr	r3, [pc, #152]	; (8005748 <xTaskResumeAll+0xd0>)
 80056b0:	681b      	ldr	r3, [r3, #0]
 80056b2:	2b00      	cmp	r3, #0
 80056b4:	d0f5      	beq.n	80056a2 <xTaskResumeAll+0x2a>
				while( listLIST_IS_EMPTY( &xPendingReadyList ) == pdFALSE )
 80056b6:	f8df 90a8 	ldr.w	r9, [pc, #168]	; 8005760 <xTaskResumeAll+0xe8>
					prvAddTaskToReadyList( pxTCB );
 80056ba:	4f24      	ldr	r7, [pc, #144]	; (800574c <xTaskResumeAll+0xd4>)
 80056bc:	f8df 80a4 	ldr.w	r8, [pc, #164]	; 8005764 <xTaskResumeAll+0xec>
				while( listLIST_IS_EMPTY( &xPendingReadyList ) == pdFALSE )
 80056c0:	f8d9 3000 	ldr.w	r3, [r9]
 80056c4:	b9e3      	cbnz	r3, 8005700 <xTaskResumeAll+0x88>
				if( pxTCB != NULL )
 80056c6:	b10c      	cbz	r4, 80056cc <xTaskResumeAll+0x54>
					prvResetNextTaskUnblockTime();
 80056c8:	f7ff fdae 	bl	8005228 <prvResetNextTaskUnblockTime>
					UBaseType_t uxPendedCounts = uxPendedTicks; /* Non-volatile copy. */
 80056cc:	4d20      	ldr	r5, [pc, #128]	; (8005750 <xTaskResumeAll+0xd8>)
 80056ce:	682c      	ldr	r4, [r5, #0]
					if( uxPendedCounts > ( UBaseType_t ) 0U )
 80056d0:	b144      	cbz	r4, 80056e4 <xTaskResumeAll+0x6c>
								xYieldPending = pdTRUE;
 80056d2:	4e20      	ldr	r6, [pc, #128]	; (8005754 <xTaskResumeAll+0xdc>)
 80056d4:	2701      	movs	r7, #1
							if( xTaskIncrementTick() != pdFALSE )
 80056d6:	f7ff ff3d 	bl	8005554 <xTaskIncrementTick>
 80056da:	b100      	cbz	r0, 80056de <xTaskResumeAll+0x66>
								xYieldPending = pdTRUE;
 80056dc:	6037      	str	r7, [r6, #0]
						} while( uxPendedCounts > ( UBaseType_t ) 0U );
 80056de:	3c01      	subs	r4, #1
 80056e0:	d1f9      	bne.n	80056d6 <xTaskResumeAll+0x5e>
						uxPendedTicks = 0;
 80056e2:	602c      	str	r4, [r5, #0]
				if( xYieldPending != pdFALSE )
 80056e4:	4b1b      	ldr	r3, [pc, #108]	; (8005754 <xTaskResumeAll+0xdc>)
 80056e6:	681b      	ldr	r3, [r3, #0]
 80056e8:	2b00      	cmp	r3, #0
 80056ea:	d0da      	beq.n	80056a2 <xTaskResumeAll+0x2a>
					taskYIELD_IF_USING_PREEMPTION();
 80056ec:	4b1a      	ldr	r3, [pc, #104]	; (8005758 <xTaskResumeAll+0xe0>)
 80056ee:	f04f 5280 	mov.w	r2, #268435456	; 0x10000000
 80056f2:	601a      	str	r2, [r3, #0]
 80056f4:	f3bf 8f4f 	dsb	sy
 80056f8:	f3bf 8f6f 	isb	sy
						xAlreadyYielded = pdTRUE;
 80056fc:	2401      	movs	r4, #1
 80056fe:	e7d1      	b.n	80056a4 <xTaskResumeAll+0x2c>
					pxTCB = listGET_OWNER_OF_HEAD_ENTRY( ( &xPendingReadyList ) ); /*lint !e9079 void * is used as this macro is used with timers and co-routines too.  Alignment is known to be fine as the type of the pointer stored and retrieved is the same. */
 8005700:	f8d9 300c 	ldr.w	r3, [r9, #12]
 8005704:	68dc      	ldr	r4, [r3, #12]
					( void ) uxListRemove( &( pxTCB->xStateListItem ) );
 8005706:	1d26      	adds	r6, r4, #4
					( void ) uxListRemove( &( pxTCB->xEventListItem ) );
 8005708:	f104 0018 	add.w	r0, r4, #24
 800570c:	f7ff f859 	bl	80047c2 <uxListRemove>
					( void ) uxListRemove( &( pxTCB->xStateListItem ) );
 8005710:	4630      	mov	r0, r6
 8005712:	f7ff f856 	bl	80047c2 <uxListRemove>
					prvAddTaskToReadyList( pxTCB );
 8005716:	6ae2      	ldr	r2, [r4, #44]	; 0x2c
 8005718:	6839      	ldr	r1, [r7, #0]
 800571a:	2501      	movs	r5, #1
 800571c:	fa05 f302 	lsl.w	r3, r5, r2
 8005720:	2014      	movs	r0, #20
 8005722:	430b      	orrs	r3, r1
 8005724:	fb00 8002 	mla	r0, r0, r2, r8
 8005728:	4631      	mov	r1, r6
 800572a:	603b      	str	r3, [r7, #0]
 800572c:	f7ff f826 	bl	800477c <vListInsertEnd>
					if( pxTCB->uxPriority >= pxCurrentTCB->uxPriority )
 8005730:	4b0a      	ldr	r3, [pc, #40]	; (800575c <xTaskResumeAll+0xe4>)
 8005732:	6ae2      	ldr	r2, [r4, #44]	; 0x2c
 8005734:	681b      	ldr	r3, [r3, #0]
 8005736:	6adb      	ldr	r3, [r3, #44]	; 0x2c
 8005738:	429a      	cmp	r2, r3
						xYieldPending = pdTRUE;
 800573a:	bf24      	itt	cs
 800573c:	4b05      	ldrcs	r3, [pc, #20]	; (8005754 <xTaskResumeAll+0xdc>)
 800573e:	601d      	strcs	r5, [r3, #0]
 8005740:	e7be      	b.n	80056c0 <xTaskResumeAll+0x48>
 8005742:	bf00      	nop
 8005744:	20003114 	.word	0x20003114
 8005748:	20003108 	.word	0x20003108
 800574c:	2000311c 	.word	0x2000311c
 8005750:	20003110 	.word	0x20003110
 8005754:	20003194 	.word	0x20003194
 8005758:	e000ed04 	.word	0xe000ed04
 800575c:	20003070 	.word	0x20003070
 8005760:	20003150 	.word	0x20003150
 8005764:	2000307c 	.word	0x2000307c

08005768 <vTaskSwitchContext>:
	if( uxSchedulerSuspended != ( UBaseType_t ) pdFALSE )
 8005768:	4b17      	ldr	r3, [pc, #92]	; (80057c8 <vTaskSwitchContext+0x60>)
 800576a:	681a      	ldr	r2, [r3, #0]
 800576c:	4b17      	ldr	r3, [pc, #92]	; (80057cc <vTaskSwitchContext+0x64>)
{
 800576e:	b510      	push	{r4, lr}
	if( uxSchedulerSuspended != ( UBaseType_t ) pdFALSE )
 8005770:	b112      	cbz	r2, 8005778 <vTaskSwitchContext+0x10>
		xYieldPending = pdTRUE;
 8005772:	2201      	movs	r2, #1
		taskSELECT_HIGHEST_PRIORITY_TASK(); /*lint !e9079 void * is used as this macro is used with timers and co-routines too.  Alignment is known to be fine as the type of the pointer stored and retrieved is the same. */
 8005774:	601a      	str	r2, [r3, #0]
 8005776:	bd10      	pop	{r4, pc}
		xYieldPending = pdFALSE;
 8005778:	601a      	str	r2, [r3, #0]
		taskSELECT_HIGHEST_PRIORITY_TASK(); /*lint !e9079 void * is used as this macro is used with timers and co-routines too.  Alignment is known to be fine as the type of the pointer stored and retrieved is the same. */
 800577a:	4b15      	ldr	r3, [pc, #84]	; (80057d0 <vTaskSwitchContext+0x68>)
 800577c:	681b      	ldr	r3, [r3, #0]
		__asm volatile ( "clz %0, %1" : "=r" ( ucReturn ) : "r" ( ulBitmap ) : "memory" );
 800577e:	fab3 f383 	clz	r3, r3
 8005782:	b2db      	uxtb	r3, r3
 8005784:	f1c3 031f 	rsb	r3, r3, #31
 8005788:	2214      	movs	r2, #20
 800578a:	4912      	ldr	r1, [pc, #72]	; (80057d4 <vTaskSwitchContext+0x6c>)
 800578c:	435a      	muls	r2, r3
 800578e:	1888      	adds	r0, r1, r2
 8005790:	588c      	ldr	r4, [r1, r2]
 8005792:	b944      	cbnz	r4, 80057a6 <vTaskSwitchContext+0x3e>
	__asm volatile
 8005794:	f04f 0350 	mov.w	r3, #80	; 0x50
 8005798:	f383 8811 	msr	BASEPRI, r3
 800579c:	f3bf 8f6f 	isb	sy
 80057a0:	f3bf 8f4f 	dsb	sy
 80057a4:	e7fe      	b.n	80057a4 <vTaskSwitchContext+0x3c>
 80057a6:	6844      	ldr	r4, [r0, #4]
 80057a8:	3208      	adds	r2, #8
 80057aa:	6864      	ldr	r4, [r4, #4]
 80057ac:	6044      	str	r4, [r0, #4]
 80057ae:	440a      	add	r2, r1
 80057b0:	4294      	cmp	r4, r2
 80057b2:	bf04      	itt	eq
 80057b4:	6862      	ldreq	r2, [r4, #4]
 80057b6:	6042      	streq	r2, [r0, #4]
 80057b8:	2214      	movs	r2, #20
 80057ba:	fb02 1303 	mla	r3, r2, r3, r1
 80057be:	685b      	ldr	r3, [r3, #4]
 80057c0:	68da      	ldr	r2, [r3, #12]
 80057c2:	4b05      	ldr	r3, [pc, #20]	; (80057d8 <vTaskSwitchContext+0x70>)
 80057c4:	e7d6      	b.n	8005774 <vTaskSwitchContext+0xc>
 80057c6:	bf00      	nop
 80057c8:	20003114 	.word	0x20003114
 80057cc:	20003194 	.word	0x20003194
 80057d0:	2000311c 	.word	0x2000311c
 80057d4:	2000307c 	.word	0x2000307c
 80057d8:	20003070 	.word	0x20003070

080057dc <vTaskPlaceOnEventList>:
{
 80057dc:	b510      	push	{r4, lr}
 80057de:	460c      	mov	r4, r1
	configASSERT( pxEventList );
 80057e0:	b940      	cbnz	r0, 80057f4 <vTaskPlaceOnEventList+0x18>
 80057e2:	f04f 0350 	mov.w	r3, #80	; 0x50
 80057e6:	f383 8811 	msr	BASEPRI, r3
 80057ea:	f3bf 8f6f 	isb	sy
 80057ee:	f3bf 8f4f 	dsb	sy
 80057f2:	e7fe      	b.n	80057f2 <vTaskPlaceOnEventList+0x16>
	vListInsert( pxEventList, &( pxCurrentTCB->xEventListItem ) );
 80057f4:	4b05      	ldr	r3, [pc, #20]	; (800580c <vTaskPlaceOnEventList+0x30>)
 80057f6:	6819      	ldr	r1, [r3, #0]
 80057f8:	3118      	adds	r1, #24
 80057fa:	f7fe ffcb 	bl	8004794 <vListInsert>
	prvAddCurrentTaskToDelayedList( xTicksToWait, pdTRUE );
 80057fe:	4620      	mov	r0, r4
 8005800:	2101      	movs	r1, #1
}
 8005802:	e8bd 4010 	ldmia.w	sp!, {r4, lr}
	prvAddCurrentTaskToDelayedList( xTicksToWait, pdTRUE );
 8005806:	f7ff bdb9 	b.w	800537c <prvAddCurrentTaskToDelayedList>
 800580a:	bf00      	nop
 800580c:	20003070 	.word	0x20003070

08005810 <xTaskRemoveFromEventList>:
{
 8005810:	b538      	push	{r3, r4, r5, lr}
	pxUnblockedTCB = listGET_OWNER_OF_HEAD_ENTRY( pxEventList ); /*lint !e9079 void * is used as this macro is used with timers and co-routines too.  Alignment is known to be fine as the type of the pointer stored and retrieved is the same. */
 8005812:	68c3      	ldr	r3, [r0, #12]
 8005814:	68dc      	ldr	r4, [r3, #12]
	configASSERT( pxUnblockedTCB );
 8005816:	b944      	cbnz	r4, 800582a <xTaskRemoveFromEventList+0x1a>
 8005818:	f04f 0350 	mov.w	r3, #80	; 0x50
 800581c:	f383 8811 	msr	BASEPRI, r3
 8005820:	f3bf 8f6f 	isb	sy
 8005824:	f3bf 8f4f 	dsb	sy
 8005828:	e7fe      	b.n	8005828 <xTaskRemoveFromEventList+0x18>
	( void ) uxListRemove( &( pxUnblockedTCB->xEventListItem ) );
 800582a:	f104 0518 	add.w	r5, r4, #24
 800582e:	4628      	mov	r0, r5
 8005830:	f7fe ffc7 	bl	80047c2 <uxListRemove>
	if( uxSchedulerSuspended == ( UBaseType_t ) pdFALSE )
 8005834:	4b11      	ldr	r3, [pc, #68]	; (800587c <xTaskRemoveFromEventList+0x6c>)
 8005836:	681b      	ldr	r3, [r3, #0]
 8005838:	b9e3      	cbnz	r3, 8005874 <xTaskRemoveFromEventList+0x64>
		( void ) uxListRemove( &( pxUnblockedTCB->xStateListItem ) );
 800583a:	1d25      	adds	r5, r4, #4
 800583c:	4628      	mov	r0, r5
 800583e:	f7fe ffc0 	bl	80047c2 <uxListRemove>
		prvAddTaskToReadyList( pxUnblockedTCB );
 8005842:	490f      	ldr	r1, [pc, #60]	; (8005880 <xTaskRemoveFromEventList+0x70>)
 8005844:	6ae2      	ldr	r2, [r4, #44]	; 0x2c
 8005846:	6808      	ldr	r0, [r1, #0]
 8005848:	2301      	movs	r3, #1
 800584a:	4093      	lsls	r3, r2
 800584c:	4303      	orrs	r3, r0
 800584e:	600b      	str	r3, [r1, #0]
 8005850:	4b0c      	ldr	r3, [pc, #48]	; (8005884 <xTaskRemoveFromEventList+0x74>)
 8005852:	2014      	movs	r0, #20
 8005854:	4629      	mov	r1, r5
 8005856:	fb00 3002 	mla	r0, r0, r2, r3
		vListInsertEnd( &( xPendingReadyList ), &( pxUnblockedTCB->xEventListItem ) );
 800585a:	f7fe ff8f 	bl	800477c <vListInsertEnd>
	if( pxUnblockedTCB->uxPriority > pxCurrentTCB->uxPriority )
 800585e:	4b0a      	ldr	r3, [pc, #40]	; (8005888 <xTaskRemoveFromEventList+0x78>)
 8005860:	6ae2      	ldr	r2, [r4, #44]	; 0x2c
 8005862:	681b      	ldr	r3, [r3, #0]
 8005864:	6adb      	ldr	r3, [r3, #44]	; 0x2c
 8005866:	429a      	cmp	r2, r3
		xYieldPending = pdTRUE;
 8005868:	bf83      	ittte	hi
 800586a:	4b08      	ldrhi	r3, [pc, #32]	; (800588c <xTaskRemoveFromEventList+0x7c>)
 800586c:	2001      	movhi	r0, #1
 800586e:	6018      	strhi	r0, [r3, #0]
		xReturn = pdFALSE;
 8005870:	2000      	movls	r0, #0
}
 8005872:	bd38      	pop	{r3, r4, r5, pc}
		vListInsertEnd( &( xPendingReadyList ), &( pxUnblockedTCB->xEventListItem ) );
 8005874:	4629      	mov	r1, r5
 8005876:	4806      	ldr	r0, [pc, #24]	; (8005890 <xTaskRemoveFromEventList+0x80>)
 8005878:	e7ef      	b.n	800585a <xTaskRemoveFromEventList+0x4a>
 800587a:	bf00      	nop
 800587c:	20003114 	.word	0x20003114
 8005880:	2000311c 	.word	0x2000311c
 8005884:	2000307c 	.word	0x2000307c
 8005888:	20003070 	.word	0x20003070
 800588c:	20003194 	.word	0x20003194
 8005890:	20003150 	.word	0x20003150

08005894 <vTaskInternalSetTimeOutState>:
	pxTimeOut->xOverflowCount = xNumOfOverflows;
 8005894:	4b03      	ldr	r3, [pc, #12]	; (80058a4 <vTaskInternalSetTimeOutState+0x10>)
 8005896:	681b      	ldr	r3, [r3, #0]
 8005898:	6003      	str	r3, [r0, #0]
	pxTimeOut->xTimeOnEntering = xTickCount;
 800589a:	4b03      	ldr	r3, [pc, #12]	; (80058a8 <vTaskInternalSetTimeOutState+0x14>)
 800589c:	681b      	ldr	r3, [r3, #0]
 800589e:	6043      	str	r3, [r0, #4]
 80058a0:	4770      	bx	lr
 80058a2:	bf00      	nop
 80058a4:	2000314c 	.word	0x2000314c
 80058a8:	20003190 	.word	0x20003190

080058ac <xTaskCheckForTimeOut>:
{
 80058ac:	b570      	push	{r4, r5, r6, lr}
 80058ae:	460c      	mov	r4, r1
	configASSERT( pxTimeOut );
 80058b0:	4605      	mov	r5, r0
 80058b2:	b940      	cbnz	r0, 80058c6 <xTaskCheckForTimeOut+0x1a>
 80058b4:	f04f 0350 	mov.w	r3, #80	; 0x50
 80058b8:	f383 8811 	msr	BASEPRI, r3
 80058bc:	f3bf 8f6f 	isb	sy
 80058c0:	f3bf 8f4f 	dsb	sy
 80058c4:	e7fe      	b.n	80058c4 <xTaskCheckForTimeOut+0x18>
	configASSERT( pxTicksToWait );
 80058c6:	b941      	cbnz	r1, 80058da <xTaskCheckForTimeOut+0x2e>
 80058c8:	f04f 0350 	mov.w	r3, #80	; 0x50
 80058cc:	f383 8811 	msr	BASEPRI, r3
 80058d0:	f3bf 8f6f 	isb	sy
 80058d4:	f3bf 8f4f 	dsb	sy
 80058d8:	e7fe      	b.n	80058d8 <xTaskCheckForTimeOut+0x2c>
	taskENTER_CRITICAL();
 80058da:	f7fe ffeb 	bl	80048b4 <vPortEnterCritical>
		const TickType_t xConstTickCount = xTickCount;
 80058de:	4b0f      	ldr	r3, [pc, #60]	; (800591c <xTaskCheckForTimeOut+0x70>)
		const TickType_t xElapsedTime = xConstTickCount - pxTimeOut->xTimeOnEntering;
 80058e0:	6869      	ldr	r1, [r5, #4]
		const TickType_t xConstTickCount = xTickCount;
 80058e2:	681a      	ldr	r2, [r3, #0]
			if( *pxTicksToWait == portMAX_DELAY )
 80058e4:	6823      	ldr	r3, [r4, #0]
 80058e6:	1c58      	adds	r0, r3, #1
 80058e8:	d00e      	beq.n	8005908 <xTaskCheckForTimeOut+0x5c>
		if( ( xNumOfOverflows != pxTimeOut->xOverflowCount ) && ( xConstTickCount >= pxTimeOut->xTimeOnEntering ) ) /*lint !e525 Indentation preferred as is to make code within pre-processor directives clearer. */
 80058ea:	480d      	ldr	r0, [pc, #52]	; (8005920 <xTaskCheckForTimeOut+0x74>)
 80058ec:	682e      	ldr	r6, [r5, #0]
 80058ee:	6800      	ldr	r0, [r0, #0]
 80058f0:	4286      	cmp	r6, r0
 80058f2:	d001      	beq.n	80058f8 <xTaskCheckForTimeOut+0x4c>
 80058f4:	428a      	cmp	r2, r1
 80058f6:	d20e      	bcs.n	8005916 <xTaskCheckForTimeOut+0x6a>
		const TickType_t xElapsedTime = xConstTickCount - pxTimeOut->xTimeOnEntering;
 80058f8:	1a52      	subs	r2, r2, r1
		else if( xElapsedTime < *pxTicksToWait ) /*lint !e961 Explicit casting is only redundant with some compilers, whereas others require it to prevent integer conversion errors. */
 80058fa:	429a      	cmp	r2, r3
 80058fc:	d209      	bcs.n	8005912 <xTaskCheckForTimeOut+0x66>
			*pxTicksToWait -= xElapsedTime;
 80058fe:	1a9b      	subs	r3, r3, r2
 8005900:	6023      	str	r3, [r4, #0]
			vTaskInternalSetTimeOutState( pxTimeOut );
 8005902:	4628      	mov	r0, r5
 8005904:	f7ff ffc6 	bl	8005894 <vTaskInternalSetTimeOutState>
				xReturn = pdFALSE;
 8005908:	2400      	movs	r4, #0
	taskEXIT_CRITICAL();
 800590a:	f7fe fff5 	bl	80048f8 <vPortExitCritical>
}
 800590e:	4620      	mov	r0, r4
 8005910:	bd70      	pop	{r4, r5, r6, pc}
			*pxTicksToWait = 0;
 8005912:	2300      	movs	r3, #0
 8005914:	6023      	str	r3, [r4, #0]
			xReturn = pdTRUE;
 8005916:	2401      	movs	r4, #1
 8005918:	e7f7      	b.n	800590a <xTaskCheckForTimeOut+0x5e>
 800591a:	bf00      	nop
 800591c:	20003190 	.word	0x20003190
 8005920:	2000314c 	.word	0x2000314c

08005924 <vTaskMissedYield>:
	xYieldPending = pdTRUE;
 8005924:	4b01      	ldr	r3, [pc, #4]	; (800592c <vTaskMissedYield+0x8>)
 8005926:	2201      	movs	r2, #1
 8005928:	601a      	str	r2, [r3, #0]
 800592a:	4770      	bx	lr
 800592c:	20003194 	.word	0x20003194

08005930 <xTaskGetSchedulerState>:
		if( xSchedulerRunning == pdFALSE )
 8005930:	4b05      	ldr	r3, [pc, #20]	; (8005948 <xTaskGetSchedulerState+0x18>)
 8005932:	681b      	ldr	r3, [r3, #0]
 8005934:	b133      	cbz	r3, 8005944 <xTaskGetSchedulerState+0x14>
			if( uxSchedulerSuspended == ( UBaseType_t ) pdFALSE )
 8005936:	4b05      	ldr	r3, [pc, #20]	; (800594c <xTaskGetSchedulerState+0x1c>)
 8005938:	681b      	ldr	r3, [r3, #0]
 800593a:	2b00      	cmp	r3, #0
				xReturn = taskSCHEDULER_SUSPENDED;
 800593c:	bf0c      	ite	eq
 800593e:	2002      	moveq	r0, #2
 8005940:	2000      	movne	r0, #0
 8005942:	4770      	bx	lr
			xReturn = taskSCHEDULER_NOT_STARTED;
 8005944:	2001      	movs	r0, #1
	}
 8005946:	4770      	bx	lr
 8005948:	20003164 	.word	0x20003164
 800594c:	20003114 	.word	0x20003114

08005950 <xTaskPriorityInherit>:
	{
 8005950:	e92d 41f0 	stmdb	sp!, {r4, r5, r6, r7, r8, lr}
		if( pxMutexHolder != NULL )
 8005954:	4604      	mov	r4, r0
 8005956:	2800      	cmp	r0, #0
 8005958:	d035      	beq.n	80059c6 <xTaskPriorityInherit+0x76>
			if( pxMutexHolderTCB->uxPriority < pxCurrentTCB->uxPriority )
 800595a:	4a24      	ldr	r2, [pc, #144]	; (80059ec <xTaskPriorityInherit+0x9c>)
 800595c:	6ac3      	ldr	r3, [r0, #44]	; 0x2c
 800595e:	6811      	ldr	r1, [r2, #0]
 8005960:	6ac9      	ldr	r1, [r1, #44]	; 0x2c
 8005962:	428b      	cmp	r3, r1
 8005964:	4617      	mov	r7, r2
 8005966:	d237      	bcs.n	80059d8 <xTaskPriorityInherit+0x88>
				if( ( listGET_LIST_ITEM_VALUE( &( pxMutexHolderTCB->xEventListItem ) ) & taskEVENT_LIST_ITEM_VALUE_IN_USE ) == 0UL )
 8005968:	6982      	ldr	r2, [r0, #24]
				if( listIS_CONTAINED_WITHIN( &( pxReadyTasksLists[ pxMutexHolderTCB->uxPriority ] ), &( pxMutexHolderTCB->xStateListItem ) ) != pdFALSE )
 800596a:	4d21      	ldr	r5, [pc, #132]	; (80059f0 <xTaskPriorityInherit+0xa0>)
				if( ( listGET_LIST_ITEM_VALUE( &( pxMutexHolderTCB->xEventListItem ) ) & taskEVENT_LIST_ITEM_VALUE_IN_USE ) == 0UL )
 800596c:	2a00      	cmp	r2, #0
					listSET_LIST_ITEM_VALUE( &( pxMutexHolderTCB->xEventListItem ), ( TickType_t ) configMAX_PRIORITIES - ( TickType_t ) pxCurrentTCB->uxPriority ); /*lint !e961 MISRA exception as the casts are only redundant for some ports. */
 800596e:	bfa1      	itttt	ge
 8005970:	683a      	ldrge	r2, [r7, #0]
 8005972:	6ad2      	ldrge	r2, [r2, #44]	; 0x2c
 8005974:	f1c2 0207 	rsbge	r2, r2, #7
 8005978:	6182      	strge	r2, [r0, #24]
				if( listIS_CONTAINED_WITHIN( &( pxReadyTasksLists[ pxMutexHolderTCB->uxPriority ] ), &( pxMutexHolderTCB->xStateListItem ) ) != pdFALSE )
 800597a:	2614      	movs	r6, #20
 800597c:	6942      	ldr	r2, [r0, #20]
 800597e:	fb06 5303 	mla	r3, r6, r3, r5
 8005982:	429a      	cmp	r2, r3
 8005984:	d122      	bne.n	80059cc <xTaskPriorityInherit+0x7c>
					if( uxListRemove( &( pxMutexHolderTCB->xStateListItem ) ) == ( UBaseType_t ) 0 )
 8005986:	f100 0804 	add.w	r8, r0, #4
 800598a:	4640      	mov	r0, r8
 800598c:	f7fe ff19 	bl	80047c2 <uxListRemove>
 8005990:	4b18      	ldr	r3, [pc, #96]	; (80059f4 <xTaskPriorityInherit+0xa4>)
 8005992:	b948      	cbnz	r0, 80059a8 <xTaskPriorityInherit+0x58>
						taskRESET_READY_PRIORITY( pxMutexHolderTCB->uxPriority );
 8005994:	6ae0      	ldr	r0, [r4, #44]	; 0x2c
 8005996:	4346      	muls	r6, r0
 8005998:	59aa      	ldr	r2, [r5, r6]
 800599a:	b92a      	cbnz	r2, 80059a8 <xTaskPriorityInherit+0x58>
 800599c:	681a      	ldr	r2, [r3, #0]
 800599e:	2101      	movs	r1, #1
 80059a0:	4081      	lsls	r1, r0
 80059a2:	ea22 0201 	bic.w	r2, r2, r1
 80059a6:	601a      	str	r2, [r3, #0]
					pxMutexHolderTCB->uxPriority = pxCurrentTCB->uxPriority;
 80059a8:	683a      	ldr	r2, [r7, #0]
					prvAddTaskToReadyList( pxMutexHolderTCB );
 80059aa:	6819      	ldr	r1, [r3, #0]
					pxMutexHolderTCB->uxPriority = pxCurrentTCB->uxPriority;
 80059ac:	6ad2      	ldr	r2, [r2, #44]	; 0x2c
 80059ae:	62e2      	str	r2, [r4, #44]	; 0x2c
					prvAddTaskToReadyList( pxMutexHolderTCB );
 80059b0:	2401      	movs	r4, #1
 80059b2:	fa04 f002 	lsl.w	r0, r4, r2
 80059b6:	4308      	orrs	r0, r1
 80059b8:	6018      	str	r0, [r3, #0]
 80059ba:	2014      	movs	r0, #20
 80059bc:	4641      	mov	r1, r8
 80059be:	fb00 5002 	mla	r0, r0, r2, r5
 80059c2:	f7fe fedb 	bl	800477c <vListInsertEnd>
	BaseType_t xReturn = pdFALSE;
 80059c6:	4620      	mov	r0, r4
	}
 80059c8:	e8bd 81f0 	ldmia.w	sp!, {r4, r5, r6, r7, r8, pc}
					pxMutexHolderTCB->uxPriority = pxCurrentTCB->uxPriority;
 80059cc:	683b      	ldr	r3, [r7, #0]
 80059ce:	6adb      	ldr	r3, [r3, #44]	; 0x2c
 80059d0:	62c3      	str	r3, [r0, #44]	; 0x2c
				xReturn = pdTRUE;
 80059d2:	2001      	movs	r0, #1
 80059d4:	e8bd 81f0 	ldmia.w	sp!, {r4, r5, r6, r7, r8, pc}
				if( pxMutexHolderTCB->uxBasePriority < pxCurrentTCB->uxPriority )
 80059d8:	6813      	ldr	r3, [r2, #0]
 80059da:	6d40      	ldr	r0, [r0, #84]	; 0x54
 80059dc:	6adc      	ldr	r4, [r3, #44]	; 0x2c
 80059de:	42a0      	cmp	r0, r4
 80059e0:	bf2c      	ite	cs
 80059e2:	2000      	movcs	r0, #0
 80059e4:	2001      	movcc	r0, #1
 80059e6:	e8bd 81f0 	ldmia.w	sp!, {r4, r5, r6, r7, r8, pc}
 80059ea:	bf00      	nop
 80059ec:	20003070 	.word	0x20003070
 80059f0:	2000307c 	.word	0x2000307c
 80059f4:	2000311c 	.word	0x2000311c

080059f8 <xTaskPriorityDisinherit>:
	{
 80059f8:	b5f8      	push	{r3, r4, r5, r6, r7, lr}
		if( pxMutexHolder != NULL )
 80059fa:	4604      	mov	r4, r0
 80059fc:	b908      	cbnz	r0, 8005a02 <xTaskPriorityDisinherit+0xa>
	BaseType_t xReturn = pdFALSE;
 80059fe:	2000      	movs	r0, #0
 8005a00:	bdf8      	pop	{r3, r4, r5, r6, r7, pc}
			configASSERT( pxTCB == pxCurrentTCB );
 8005a02:	4b22      	ldr	r3, [pc, #136]	; (8005a8c <xTaskPriorityDisinherit+0x94>)
 8005a04:	681b      	ldr	r3, [r3, #0]
 8005a06:	4298      	cmp	r0, r3
 8005a08:	d008      	beq.n	8005a1c <xTaskPriorityDisinherit+0x24>
 8005a0a:	f04f 0350 	mov.w	r3, #80	; 0x50
 8005a0e:	f383 8811 	msr	BASEPRI, r3
 8005a12:	f3bf 8f6f 	isb	sy
 8005a16:	f3bf 8f4f 	dsb	sy
 8005a1a:	e7fe      	b.n	8005a1a <xTaskPriorityDisinherit+0x22>
			configASSERT( pxTCB->uxMutexesHeld );
 8005a1c:	6d83      	ldr	r3, [r0, #88]	; 0x58
 8005a1e:	b943      	cbnz	r3, 8005a32 <xTaskPriorityDisinherit+0x3a>
 8005a20:	f04f 0350 	mov.w	r3, #80	; 0x50
 8005a24:	f383 8811 	msr	BASEPRI, r3
 8005a28:	f3bf 8f6f 	isb	sy
 8005a2c:	f3bf 8f4f 	dsb	sy
 8005a30:	e7fe      	b.n	8005a30 <xTaskPriorityDisinherit+0x38>
			if( pxTCB->uxPriority != pxTCB->uxBasePriority )
 8005a32:	6ac1      	ldr	r1, [r0, #44]	; 0x2c
 8005a34:	6d42      	ldr	r2, [r0, #84]	; 0x54
			( pxTCB->uxMutexesHeld )--;
 8005a36:	3b01      	subs	r3, #1
			if( pxTCB->uxPriority != pxTCB->uxBasePriority )
 8005a38:	4291      	cmp	r1, r2
			( pxTCB->uxMutexesHeld )--;
 8005a3a:	6583      	str	r3, [r0, #88]	; 0x58
			if( pxTCB->uxPriority != pxTCB->uxBasePriority )
 8005a3c:	d0df      	beq.n	80059fe <xTaskPriorityDisinherit+0x6>
				if( pxTCB->uxMutexesHeld == ( UBaseType_t ) 0 )
 8005a3e:	2b00      	cmp	r3, #0
 8005a40:	d1dd      	bne.n	80059fe <xTaskPriorityDisinherit+0x6>
					if( uxListRemove( &( pxTCB->xStateListItem ) ) == ( UBaseType_t ) 0 )
 8005a42:	1d05      	adds	r5, r0, #4
 8005a44:	4628      	mov	r0, r5
 8005a46:	f7fe febc 	bl	80047c2 <uxListRemove>
 8005a4a:	4e11      	ldr	r6, [pc, #68]	; (8005a90 <xTaskPriorityDisinherit+0x98>)
 8005a4c:	4a11      	ldr	r2, [pc, #68]	; (8005a94 <xTaskPriorityDisinherit+0x9c>)
 8005a4e:	b950      	cbnz	r0, 8005a66 <xTaskPriorityDisinherit+0x6e>
						taskRESET_READY_PRIORITY( pxTCB->uxPriority );
 8005a50:	6ae7      	ldr	r7, [r4, #44]	; 0x2c
 8005a52:	2114      	movs	r1, #20
 8005a54:	4379      	muls	r1, r7
 8005a56:	5873      	ldr	r3, [r6, r1]
 8005a58:	b92b      	cbnz	r3, 8005a66 <xTaskPriorityDisinherit+0x6e>
 8005a5a:	6813      	ldr	r3, [r2, #0]
 8005a5c:	2001      	movs	r0, #1
 8005a5e:	40b8      	lsls	r0, r7
 8005a60:	ea23 0300 	bic.w	r3, r3, r0
 8005a64:	6013      	str	r3, [r2, #0]
					pxTCB->uxPriority = pxTCB->uxBasePriority;
 8005a66:	6d63      	ldr	r3, [r4, #84]	; 0x54
 8005a68:	62e3      	str	r3, [r4, #44]	; 0x2c
					listSET_LIST_ITEM_VALUE( &( pxTCB->xEventListItem ), ( TickType_t ) configMAX_PRIORITIES - ( TickType_t ) pxTCB->uxPriority ); /*lint !e961 MISRA exception as the casts are only redundant for some ports. */
 8005a6a:	f1c3 0107 	rsb	r1, r3, #7
 8005a6e:	61a1      	str	r1, [r4, #24]
					prvAddTaskToReadyList( pxTCB );
 8005a70:	6811      	ldr	r1, [r2, #0]
 8005a72:	2401      	movs	r4, #1
 8005a74:	fa04 f003 	lsl.w	r0, r4, r3
 8005a78:	4308      	orrs	r0, r1
 8005a7a:	6010      	str	r0, [r2, #0]
 8005a7c:	2014      	movs	r0, #20
 8005a7e:	fb00 6003 	mla	r0, r0, r3, r6
 8005a82:	4629      	mov	r1, r5
 8005a84:	f7fe fe7a 	bl	800477c <vListInsertEnd>
					xReturn = pdTRUE;
 8005a88:	4620      	mov	r0, r4
	}
 8005a8a:	bdf8      	pop	{r3, r4, r5, r6, r7, pc}
 8005a8c:	20003070 	.word	0x20003070
 8005a90:	2000307c 	.word	0x2000307c
 8005a94:	2000311c 	.word	0x2000311c

08005a98 <vTaskPriorityDisinheritAfterTimeout>:
	{
 8005a98:	b5f8      	push	{r3, r4, r5, r6, r7, lr}
		if( pxMutexHolder != NULL )
 8005a9a:	4604      	mov	r4, r0
 8005a9c:	2800      	cmp	r0, #0
 8005a9e:	d04d      	beq.n	8005b3c <vTaskPriorityDisinheritAfterTimeout+0xa4>
			configASSERT( pxTCB->uxMutexesHeld );
 8005aa0:	6d82      	ldr	r2, [r0, #88]	; 0x58
 8005aa2:	b942      	cbnz	r2, 8005ab6 <vTaskPriorityDisinheritAfterTimeout+0x1e>
 8005aa4:	f04f 0350 	mov.w	r3, #80	; 0x50
 8005aa8:	f383 8811 	msr	BASEPRI, r3
 8005aac:	f3bf 8f6f 	isb	sy
 8005ab0:	f3bf 8f4f 	dsb	sy
 8005ab4:	e7fe      	b.n	8005ab4 <vTaskPriorityDisinheritAfterTimeout+0x1c>
 8005ab6:	6d43      	ldr	r3, [r0, #84]	; 0x54
 8005ab8:	4299      	cmp	r1, r3
 8005aba:	bf38      	it	cc
 8005abc:	4619      	movcc	r1, r3
			if( pxTCB->uxPriority != uxPriorityToUse )
 8005abe:	6ac3      	ldr	r3, [r0, #44]	; 0x2c
 8005ac0:	428b      	cmp	r3, r1
 8005ac2:	d03b      	beq.n	8005b3c <vTaskPriorityDisinheritAfterTimeout+0xa4>
				if( pxTCB->uxMutexesHeld == uxOnlyOneMutexHeld )
 8005ac4:	2a01      	cmp	r2, #1
 8005ac6:	d139      	bne.n	8005b3c <vTaskPriorityDisinheritAfterTimeout+0xa4>
					configASSERT( pxTCB != pxCurrentTCB );
 8005ac8:	4a1d      	ldr	r2, [pc, #116]	; (8005b40 <vTaskPriorityDisinheritAfterTimeout+0xa8>)
 8005aca:	6812      	ldr	r2, [r2, #0]
 8005acc:	4290      	cmp	r0, r2
 8005ace:	d108      	bne.n	8005ae2 <vTaskPriorityDisinheritAfterTimeout+0x4a>
 8005ad0:	f04f 0350 	mov.w	r3, #80	; 0x50
 8005ad4:	f383 8811 	msr	BASEPRI, r3
 8005ad8:	f3bf 8f6f 	isb	sy
 8005adc:	f3bf 8f4f 	dsb	sy
 8005ae0:	e7fe      	b.n	8005ae0 <vTaskPriorityDisinheritAfterTimeout+0x48>
					if( ( listGET_LIST_ITEM_VALUE( &( pxTCB->xEventListItem ) ) & taskEVENT_LIST_ITEM_VALUE_IN_USE ) == 0UL )
 8005ae2:	6982      	ldr	r2, [r0, #24]
					if( listIS_CONTAINED_WITHIN( &( pxReadyTasksLists[ uxPriorityUsedOnEntry ] ), &( pxTCB->xStateListItem ) ) != pdFALSE )
 8005ae4:	4d17      	ldr	r5, [pc, #92]	; (8005b44 <vTaskPriorityDisinheritAfterTimeout+0xac>)
					pxTCB->uxPriority = uxPriorityToUse;
 8005ae6:	62c1      	str	r1, [r0, #44]	; 0x2c
					if( ( listGET_LIST_ITEM_VALUE( &( pxTCB->xEventListItem ) ) & taskEVENT_LIST_ITEM_VALUE_IN_USE ) == 0UL )
 8005ae8:	2a00      	cmp	r2, #0
					if( listIS_CONTAINED_WITHIN( &( pxReadyTasksLists[ uxPriorityUsedOnEntry ] ), &( pxTCB->xStateListItem ) ) != pdFALSE )
 8005aea:	f04f 0614 	mov.w	r6, #20
 8005aee:	6942      	ldr	r2, [r0, #20]
						listSET_LIST_ITEM_VALUE( &( pxTCB->xEventListItem ), ( TickType_t ) configMAX_PRIORITIES - ( TickType_t ) uxPriorityToUse ); /*lint !e961 MISRA exception as the casts are only redundant for some ports. */
 8005af0:	bfa8      	it	ge
 8005af2:	f1c1 0107 	rsbge	r1, r1, #7
					if( listIS_CONTAINED_WITHIN( &( pxReadyTasksLists[ uxPriorityUsedOnEntry ] ), &( pxTCB->xStateListItem ) ) != pdFALSE )
 8005af6:	fb06 5303 	mla	r3, r6, r3, r5
						listSET_LIST_ITEM_VALUE( &( pxTCB->xEventListItem ), ( TickType_t ) configMAX_PRIORITIES - ( TickType_t ) uxPriorityToUse ); /*lint !e961 MISRA exception as the casts are only redundant for some ports. */
 8005afa:	bfa8      	it	ge
 8005afc:	6181      	strge	r1, [r0, #24]
					if( listIS_CONTAINED_WITHIN( &( pxReadyTasksLists[ uxPriorityUsedOnEntry ] ), &( pxTCB->xStateListItem ) ) != pdFALSE )
 8005afe:	429a      	cmp	r2, r3
 8005b00:	d11c      	bne.n	8005b3c <vTaskPriorityDisinheritAfterTimeout+0xa4>
						if( uxListRemove( &( pxTCB->xStateListItem ) ) == ( UBaseType_t ) 0 )
 8005b02:	1d07      	adds	r7, r0, #4
 8005b04:	4638      	mov	r0, r7
 8005b06:	f7fe fe5c 	bl	80047c2 <uxListRemove>
 8005b0a:	6ae2      	ldr	r2, [r4, #44]	; 0x2c
 8005b0c:	4c0e      	ldr	r4, [pc, #56]	; (8005b48 <vTaskPriorityDisinheritAfterTimeout+0xb0>)
 8005b0e:	b940      	cbnz	r0, 8005b22 <vTaskPriorityDisinheritAfterTimeout+0x8a>
							taskRESET_READY_PRIORITY( pxTCB->uxPriority );
 8005b10:	4356      	muls	r6, r2
 8005b12:	59ab      	ldr	r3, [r5, r6]
 8005b14:	b92b      	cbnz	r3, 8005b22 <vTaskPriorityDisinheritAfterTimeout+0x8a>
 8005b16:	6823      	ldr	r3, [r4, #0]
 8005b18:	2101      	movs	r1, #1
 8005b1a:	4091      	lsls	r1, r2
 8005b1c:	ea23 0301 	bic.w	r3, r3, r1
 8005b20:	6023      	str	r3, [r4, #0]
						prvAddTaskToReadyList( pxTCB );
 8005b22:	6821      	ldr	r1, [r4, #0]
 8005b24:	2301      	movs	r3, #1
 8005b26:	4093      	lsls	r3, r2
 8005b28:	430b      	orrs	r3, r1
 8005b2a:	2014      	movs	r0, #20
 8005b2c:	6023      	str	r3, [r4, #0]
 8005b2e:	4639      	mov	r1, r7
 8005b30:	fb00 5002 	mla	r0, r0, r2, r5
	}
 8005b34:	e8bd 40f8 	ldmia.w	sp!, {r3, r4, r5, r6, r7, lr}
						prvAddTaskToReadyList( pxTCB );
 8005b38:	f7fe be20 	b.w	800477c <vListInsertEnd>
 8005b3c:	bdf8      	pop	{r3, r4, r5, r6, r7, pc}
 8005b3e:	bf00      	nop
 8005b40:	20003070 	.word	0x20003070
 8005b44:	2000307c 	.word	0x2000307c
 8005b48:	2000311c 	.word	0x2000311c

08005b4c <pvTaskIncrementMutexHeldCount>:
		if( pxCurrentTCB != NULL )
 8005b4c:	4b04      	ldr	r3, [pc, #16]	; (8005b60 <pvTaskIncrementMutexHeldCount+0x14>)
 8005b4e:	681a      	ldr	r2, [r3, #0]
 8005b50:	b11a      	cbz	r2, 8005b5a <pvTaskIncrementMutexHeldCount+0xe>
			( pxCurrentTCB->uxMutexesHeld )++;
 8005b52:	6819      	ldr	r1, [r3, #0]
 8005b54:	6d8a      	ldr	r2, [r1, #88]	; 0x58
 8005b56:	3201      	adds	r2, #1
 8005b58:	658a      	str	r2, [r1, #88]	; 0x58
		return pxCurrentTCB;
 8005b5a:	6818      	ldr	r0, [r3, #0]
	}
 8005b5c:	4770      	bx	lr
 8005b5e:	bf00      	nop
 8005b60:	20003070 	.word	0x20003070

08005b64 <xTaskNotifyWait>:
	{
 8005b64:	e92d 41f0 	stmdb	sp!, {r4, r5, r6, r7, r8, lr}
			if( pxCurrentTCB->ucNotifyState != taskNOTIFICATION_RECEIVED )
 8005b68:	4c1f      	ldr	r4, [pc, #124]	; (8005be8 <xTaskNotifyWait+0x84>)
	{
 8005b6a:	461e      	mov	r6, r3
 8005b6c:	4680      	mov	r8, r0
 8005b6e:	460f      	mov	r7, r1
 8005b70:	4615      	mov	r5, r2
		taskENTER_CRITICAL();
 8005b72:	f7fe fe9f 	bl	80048b4 <vPortEnterCritical>
			if( pxCurrentTCB->ucNotifyState != taskNOTIFICATION_RECEIVED )
 8005b76:	6823      	ldr	r3, [r4, #0]
 8005b78:	f893 3060 	ldrb.w	r3, [r3, #96]	; 0x60
 8005b7c:	2b02      	cmp	r3, #2
 8005b7e:	d014      	beq.n	8005baa <xTaskNotifyWait+0x46>
				pxCurrentTCB->ulNotifiedValue &= ~ulBitsToClearOnEntry;
 8005b80:	6823      	ldr	r3, [r4, #0]
 8005b82:	6dda      	ldr	r2, [r3, #92]	; 0x5c
 8005b84:	ea22 0208 	bic.w	r2, r2, r8
 8005b88:	65da      	str	r2, [r3, #92]	; 0x5c
				pxCurrentTCB->ucNotifyState = taskWAITING_NOTIFICATION;
 8005b8a:	6823      	ldr	r3, [r4, #0]
 8005b8c:	2101      	movs	r1, #1
 8005b8e:	f883 1060 	strb.w	r1, [r3, #96]	; 0x60
				if( xTicksToWait > ( TickType_t ) 0 )
 8005b92:	b156      	cbz	r6, 8005baa <xTaskNotifyWait+0x46>
					prvAddCurrentTaskToDelayedList( xTicksToWait, pdTRUE );
 8005b94:	4630      	mov	r0, r6
 8005b96:	f7ff fbf1 	bl	800537c <prvAddCurrentTaskToDelayedList>
					portYIELD_WITHIN_API();
 8005b9a:	4b14      	ldr	r3, [pc, #80]	; (8005bec <xTaskNotifyWait+0x88>)
 8005b9c:	f04f 5280 	mov.w	r2, #268435456	; 0x10000000
 8005ba0:	601a      	str	r2, [r3, #0]
 8005ba2:	f3bf 8f4f 	dsb	sy
 8005ba6:	f3bf 8f6f 	isb	sy
		taskEXIT_CRITICAL();
 8005baa:	f7fe fea5 	bl	80048f8 <vPortExitCritical>
		taskENTER_CRITICAL();
 8005bae:	f7fe fe81 	bl	80048b4 <vPortEnterCritical>
			if( pulNotificationValue != NULL )
 8005bb2:	b115      	cbz	r5, 8005bba <xTaskNotifyWait+0x56>
				*pulNotificationValue = pxCurrentTCB->ulNotifiedValue;
 8005bb4:	6823      	ldr	r3, [r4, #0]
 8005bb6:	6ddb      	ldr	r3, [r3, #92]	; 0x5c
 8005bb8:	602b      	str	r3, [r5, #0]
			if( pxCurrentTCB->ucNotifyState != taskNOTIFICATION_RECEIVED )
 8005bba:	6823      	ldr	r3, [r4, #0]
 8005bbc:	f893 3060 	ldrb.w	r3, [r3, #96]	; 0x60
 8005bc0:	2b02      	cmp	r3, #2
				pxCurrentTCB->ulNotifiedValue &= ~ulBitsToClearOnExit;
 8005bc2:	bf01      	itttt	eq
 8005bc4:	6823      	ldreq	r3, [r4, #0]
 8005bc6:	6dd9      	ldreq	r1, [r3, #92]	; 0x5c
 8005bc8:	43b9      	biceq	r1, r7
 8005bca:	65d9      	streq	r1, [r3, #92]	; 0x5c
			pxCurrentTCB->ucNotifyState = taskNOT_WAITING_NOTIFICATION;
 8005bcc:	6823      	ldr	r3, [r4, #0]
 8005bce:	f04f 0200 	mov.w	r2, #0
				xReturn = pdTRUE;
 8005bd2:	bf0c      	ite	eq
 8005bd4:	2501      	moveq	r5, #1
				xReturn = pdFALSE;
 8005bd6:	2500      	movne	r5, #0
			pxCurrentTCB->ucNotifyState = taskNOT_WAITING_NOTIFICATION;
 8005bd8:	f883 2060 	strb.w	r2, [r3, #96]	; 0x60
		taskEXIT_CRITICAL();
 8005bdc:	f7fe fe8c 	bl	80048f8 <vPortExitCritical>
	}
 8005be0:	4628      	mov	r0, r5
 8005be2:	e8bd 81f0 	ldmia.w	sp!, {r4, r5, r6, r7, r8, pc}
 8005be6:	bf00      	nop
 8005be8:	20003070 	.word	0x20003070
 8005bec:	e000ed04 	.word	0xe000ed04

08005bf0 <xTaskGenericNotify>:
	{
 8005bf0:	b5f8      	push	{r3, r4, r5, r6, r7, lr}
 8005bf2:	460e      	mov	r6, r1
 8005bf4:	4617      	mov	r7, r2
 8005bf6:	461d      	mov	r5, r3
		configASSERT( xTaskToNotify );
 8005bf8:	4604      	mov	r4, r0
 8005bfa:	b940      	cbnz	r0, 8005c0e <xTaskGenericNotify+0x1e>
 8005bfc:	f04f 0350 	mov.w	r3, #80	; 0x50
 8005c00:	f383 8811 	msr	BASEPRI, r3
 8005c04:	f3bf 8f6f 	isb	sy
 8005c08:	f3bf 8f4f 	dsb	sy
 8005c0c:	e7fe      	b.n	8005c0c <xTaskGenericNotify+0x1c>
		taskENTER_CRITICAL();
 8005c0e:	f7fe fe51 	bl	80048b4 <vPortEnterCritical>
			if( pulPreviousNotificationValue != NULL )
 8005c12:	b10d      	cbz	r5, 8005c18 <xTaskGenericNotify+0x28>
				*pulPreviousNotificationValue = pxTCB->ulNotifiedValue;
 8005c14:	6de3      	ldr	r3, [r4, #92]	; 0x5c
 8005c16:	602b      	str	r3, [r5, #0]
			ucOriginalNotifyState = pxTCB->ucNotifyState;
 8005c18:	f894 5060 	ldrb.w	r5, [r4, #96]	; 0x60
			pxTCB->ucNotifyState = taskNOTIFICATION_RECEIVED;
 8005c1c:	2302      	movs	r3, #2
			ucOriginalNotifyState = pxTCB->ucNotifyState;
 8005c1e:	b2ed      	uxtb	r5, r5
			pxTCB->ucNotifyState = taskNOTIFICATION_RECEIVED;
 8005c20:	f884 3060 	strb.w	r3, [r4, #96]	; 0x60
			switch( eAction )
 8005c24:	2f04      	cmp	r7, #4
 8005c26:	d816      	bhi.n	8005c56 <xTaskGenericNotify+0x66>
 8005c28:	e8df f007 	tbb	[pc, r7]
 8005c2c:	0507030a 	.word	0x0507030a
 8005c30:	11          	.byte	0x11
 8005c31:	00          	.byte	0x00
					pxTCB->ulNotifiedValue |= ulValue;
 8005c32:	6de1      	ldr	r1, [r4, #92]	; 0x5c
 8005c34:	430e      	orrs	r6, r1
						pxTCB->ulNotifiedValue = ulValue;
 8005c36:	65e6      	str	r6, [r4, #92]	; 0x5c
 8005c38:	e002      	b.n	8005c40 <xTaskGenericNotify+0x50>
					( pxTCB->ulNotifiedValue )++;
 8005c3a:	6de3      	ldr	r3, [r4, #92]	; 0x5c
 8005c3c:	3301      	adds	r3, #1
 8005c3e:	65e3      	str	r3, [r4, #92]	; 0x5c
			if( ucOriginalNotifyState == taskWAITING_NOTIFICATION )
 8005c40:	2d01      	cmp	r5, #1
 8005c42:	d014      	beq.n	8005c6e <xTaskGenericNotify+0x7e>
	{
 8005c44:	2501      	movs	r5, #1
		taskEXIT_CRITICAL();
 8005c46:	f7fe fe57 	bl	80048f8 <vPortExitCritical>
	}
 8005c4a:	4628      	mov	r0, r5
 8005c4c:	bdf8      	pop	{r3, r4, r5, r6, r7, pc}
					if( ucOriginalNotifyState != taskNOTIFICATION_RECEIVED )
 8005c4e:	2d02      	cmp	r5, #2
 8005c50:	d1f1      	bne.n	8005c36 <xTaskGenericNotify+0x46>
						xReturn = pdFAIL;
 8005c52:	2500      	movs	r5, #0
 8005c54:	e7f7      	b.n	8005c46 <xTaskGenericNotify+0x56>
					configASSERT( pxTCB->ulNotifiedValue == ~0UL );
 8005c56:	6de3      	ldr	r3, [r4, #92]	; 0x5c
 8005c58:	3301      	adds	r3, #1
 8005c5a:	d0f1      	beq.n	8005c40 <xTaskGenericNotify+0x50>
 8005c5c:	f04f 0350 	mov.w	r3, #80	; 0x50
 8005c60:	f383 8811 	msr	BASEPRI, r3
 8005c64:	f3bf 8f6f 	isb	sy
 8005c68:	f3bf 8f4f 	dsb	sy
 8005c6c:	e7fe      	b.n	8005c6c <xTaskGenericNotify+0x7c>
				( void ) uxListRemove( &( pxTCB->xStateListItem ) );
 8005c6e:	1d26      	adds	r6, r4, #4
 8005c70:	4630      	mov	r0, r6
 8005c72:	f7fe fda6 	bl	80047c2 <uxListRemove>
				prvAddTaskToReadyList( pxTCB );
 8005c76:	4914      	ldr	r1, [pc, #80]	; (8005cc8 <xTaskGenericNotify+0xd8>)
 8005c78:	6ae2      	ldr	r2, [r4, #44]	; 0x2c
 8005c7a:	6808      	ldr	r0, [r1, #0]
 8005c7c:	fa05 f302 	lsl.w	r3, r5, r2
 8005c80:	4303      	orrs	r3, r0
 8005c82:	600b      	str	r3, [r1, #0]
 8005c84:	4b11      	ldr	r3, [pc, #68]	; (8005ccc <xTaskGenericNotify+0xdc>)
 8005c86:	2014      	movs	r0, #20
 8005c88:	fb00 3002 	mla	r0, r0, r2, r3
 8005c8c:	4631      	mov	r1, r6
 8005c8e:	f7fe fd75 	bl	800477c <vListInsertEnd>
				configASSERT( listLIST_ITEM_CONTAINER( &( pxTCB->xEventListItem ) ) == NULL );
 8005c92:	6aa3      	ldr	r3, [r4, #40]	; 0x28
 8005c94:	b143      	cbz	r3, 8005ca8 <xTaskGenericNotify+0xb8>
 8005c96:	f04f 0350 	mov.w	r3, #80	; 0x50
 8005c9a:	f383 8811 	msr	BASEPRI, r3
 8005c9e:	f3bf 8f6f 	isb	sy
 8005ca2:	f3bf 8f4f 	dsb	sy
 8005ca6:	e7fe      	b.n	8005ca6 <xTaskGenericNotify+0xb6>
				if( pxTCB->uxPriority > pxCurrentTCB->uxPriority )
 8005ca8:	4b09      	ldr	r3, [pc, #36]	; (8005cd0 <xTaskGenericNotify+0xe0>)
 8005caa:	6ae2      	ldr	r2, [r4, #44]	; 0x2c
 8005cac:	681b      	ldr	r3, [r3, #0]
 8005cae:	6adb      	ldr	r3, [r3, #44]	; 0x2c
 8005cb0:	429a      	cmp	r2, r3
 8005cb2:	d9c7      	bls.n	8005c44 <xTaskGenericNotify+0x54>
					taskYIELD_IF_USING_PREEMPTION();
 8005cb4:	4b07      	ldr	r3, [pc, #28]	; (8005cd4 <xTaskGenericNotify+0xe4>)
 8005cb6:	f04f 5280 	mov.w	r2, #268435456	; 0x10000000
 8005cba:	601a      	str	r2, [r3, #0]
 8005cbc:	f3bf 8f4f 	dsb	sy
 8005cc0:	f3bf 8f6f 	isb	sy
 8005cc4:	e7bf      	b.n	8005c46 <xTaskGenericNotify+0x56>
 8005cc6:	bf00      	nop
 8005cc8:	2000311c 	.word	0x2000311c
 8005ccc:	2000307c 	.word	0x2000307c
 8005cd0:	20003070 	.word	0x20003070
 8005cd4:	e000ed04 	.word	0xe000ed04

08005cd8 <MX_BlueNRG_MS_Init>:
  PRINT_CSV("%02d:%02d:%02d.%03d", ms/(60*60*1000)%24, ms/(60*1000)%60, (ms/1000)%60, ms%1000);
}
#endif

void MX_BlueNRG_MS_Init(void)
{
 8005cd8:	b500      	push	{lr}
 * @param  None
 * @retval None
 */
static void User_Init(void)
{
  BSP_PB_Init(BUTTON_KEY, BUTTON_MODE_EXTI);
 8005cda:	2101      	movs	r1, #1
{
 8005cdc:	b089      	sub	sp, #36	; 0x24
  BSP_PB_Init(BUTTON_KEY, BUTTON_MODE_EXTI);
 8005cde:	2000      	movs	r0, #0
 8005ce0:	f001 fc84 	bl	80075ec <BSP_PB_Init>
  BSP_LED_Init(LED2);
 8005ce4:	2000      	movs	r0, #0
 8005ce6:	f001 fc4b 	bl	8007580 <BSP_LED_Init>
    
  BSP_COM_Init(COM1); 
 8005cea:	2000      	movs	r0, #0
 8005cec:	f001 fcf4 	bl	80076d8 <BSP_COM_Init>
  user_button_init_state = BSP_PB_GetState(BUTTON_KEY);
 8005cf0:	2000      	movs	r0, #0
 8005cf2:	f001 fcc7 	bl	8007684 <BSP_PB_GetState>
 8005cf6:	4b39      	ldr	r3, [pc, #228]	; (8005ddc <MX_BlueNRG_MS_Init+0x104>)
 8005cf8:	b2c0      	uxtb	r0, r0
 8005cfa:	7018      	strb	r0, [r3, #0]
  hci_init(user_notify, NULL);
 8005cfc:	2100      	movs	r1, #0
 8005cfe:	4838      	ldr	r0, [pc, #224]	; (8005de0 <MX_BlueNRG_MS_Init+0x108>)
 8005d00:	f7fe fa6c 	bl	80041dc <hci_init>
  getBlueNRGVersion(&hwVersion, &fwVersion);
 8005d04:	f10d 011e 	add.w	r1, sp, #30
 8005d08:	f10d 0017 	add.w	r0, sp, #23
 8005d0c:	f7fe f9d4 	bl	80040b8 <getBlueNRGVersion>
  printf("CLIENT: Started initializing the BLE Stack\r\n\r\n");
 8005d10:	4834      	ldr	r0, [pc, #208]	; (8005de4 <MX_BlueNRG_MS_Init+0x10c>)
 8005d12:	f002 fc3d 	bl	8008590 <puts>
  printf("HWver %d, FWver %d\r\n\r\n", hwVersion, fwVersion);
 8005d16:	f8bd 201e 	ldrh.w	r2, [sp, #30]
 8005d1a:	f89d 1017 	ldrb.w	r1, [sp, #23]
 8005d1e:	4832      	ldr	r0, [pc, #200]	; (8005de8 <MX_BlueNRG_MS_Init+0x110>)
 8005d20:	f002 fbaa 	bl	8008478 <printf>
  if (hwVersion > 0x30) { /* Yes, X-NUCLEO-IDB05A1 expansion board is used */
 8005d24:	f89d 3017 	ldrb.w	r3, [sp, #23]
 8005d28:	2b30      	cmp	r3, #48	; 0x30
    bnrg_expansion_board = IDB05A1;
 8005d2a:	bf82      	ittt	hi
 8005d2c:	4b2f      	ldrhi	r3, [pc, #188]	; (8005dec <MX_BlueNRG_MS_Init+0x114>)
 8005d2e:	2201      	movhi	r2, #1
 8005d30:	701a      	strbhi	r2, [r3, #0]
  hci_reset();
 8005d32:	f7fe f9e2 	bl	80040fa <hci_reset>
  const uint8_t stackMode[] = {0x03};
 8005d36:	aa08      	add	r2, sp, #32
 8005d38:	2303      	movs	r3, #3
  ret = aci_hal_write_config_data(CONFIG_DATA_MODE_OFFSET,
 8005d3a:	2101      	movs	r1, #1
  const uint8_t stackMode[] = {0x03};
 8005d3c:	f802 3d0c 	strb.w	r3, [r2, #-12]!
  ret = aci_hal_write_config_data(CONFIG_DATA_MODE_OFFSET,
 8005d40:	202d      	movs	r0, #45	; 0x2d
 8005d42:	f7fe f961 	bl	8004008 <aci_hal_write_config_data>
  if (ret != BLE_STATUS_SUCCESS) {
 8005d46:	4601      	mov	r1, r0
 8005d48:	b110      	cbz	r0, 8005d50 <MX_BlueNRG_MS_Init+0x78>
    printf("Setting stack mode failed 0x%02x.\n", ret);
 8005d4a:	4829      	ldr	r0, [pc, #164]	; (8005df0 <MX_BlueNRG_MS_Init+0x118>)
 8005d4c:	f002 fb94 	bl	8008478 <printf>
  BLUENRG_memcpy(bdaddr, CLIENT_BDADDR, sizeof(CLIENT_BDADDR));
 8005d50:	4a28      	ldr	r2, [pc, #160]	; (8005df4 <MX_BlueNRG_MS_Init+0x11c>)
 8005d52:	23bb      	movs	r3, #187	; 0xbb
 8005d54:	7013      	strb	r3, [r2, #0]
 8005d56:	23e1      	movs	r3, #225	; 0xe1
 8005d58:	70d3      	strb	r3, [r2, #3]
 8005d5a:	2380      	movs	r3, #128	; 0x80
 8005d5c:	2000      	movs	r0, #0
 8005d5e:	7113      	strb	r3, [r2, #4]
 8005d60:	2302      	movs	r3, #2
  ret = aci_hal_write_config_data(CONFIG_DATA_PUBADDR_OFFSET,
 8005d62:	2106      	movs	r1, #6
  BLUENRG_memcpy(bdaddr, CLIENT_BDADDR, sizeof(CLIENT_BDADDR));
 8005d64:	7050      	strb	r0, [r2, #1]
 8005d66:	7090      	strb	r0, [r2, #2]
 8005d68:	7153      	strb	r3, [r2, #5]
  ret = aci_hal_write_config_data(CONFIG_DATA_PUBADDR_OFFSET,
 8005d6a:	f7fe f94d 	bl	8004008 <aci_hal_write_config_data>
  if (ret != BLE_STATUS_SUCCESS) {
 8005d6e:	4601      	mov	r1, r0
 8005d70:	b110      	cbz	r0, 8005d78 <MX_BlueNRG_MS_Init+0xa0>
    printf("Setting BD_ADDR failed 0x%02x.\n", ret);
 8005d72:	4821      	ldr	r0, [pc, #132]	; (8005df8 <MX_BlueNRG_MS_Init+0x120>)
 8005d74:	f002 fb80 	bl	8008478 <printf>
  ret = aci_hal_set_tx_power_level(1,4);
 8005d78:	2104      	movs	r1, #4
 8005d7a:	2001      	movs	r0, #1
 8005d7c:	f7fe f976 	bl	800406c <aci_hal_set_tx_power_level>
  if (ret != BLE_STATUS_SUCCESS) {
 8005d80:	4601      	mov	r1, r0
 8005d82:	b110      	cbz	r0, 8005d8a <MX_BlueNRG_MS_Init+0xb2>
    printf("Setting power level failed 0x%02x.\n", ret);
 8005d84:	481d      	ldr	r0, [pc, #116]	; (8005dfc <MX_BlueNRG_MS_Init+0x124>)
 8005d86:	f002 fb77 	bl	8008478 <printf>
  ret = aci_gatt_init();    
 8005d8a:	f7fe f87f 	bl	8003e8c <aci_gatt_init>
  if (ret != BLE_STATUS_SUCCESS) {
 8005d8e:	b110      	cbz	r0, 8005d96 <MX_BlueNRG_MS_Init+0xbe>
    printf("GATT_Init failed.\n");
 8005d90:	481b      	ldr	r0, [pc, #108]	; (8005e00 <MX_BlueNRG_MS_Init+0x128>)
 8005d92:	f002 fbfd 	bl	8008590 <puts>
  ret = aci_gap_init_IDB05A1(GAP_CENTRAL_ROLE_IDB05A1, 0x00, 0x07, &service_handle, &dev_name_char_handle, &appearance_char_handle);
 8005d96:	ab07      	add	r3, sp, #28
 8005d98:	9301      	str	r3, [sp, #4]
 8005d9a:	f10d 031a 	add.w	r3, sp, #26
 8005d9e:	9300      	str	r3, [sp, #0]
 8005da0:	2207      	movs	r2, #7
 8005da2:	ab06      	add	r3, sp, #24
 8005da4:	2100      	movs	r1, #0
 8005da6:	2004      	movs	r0, #4
 8005da8:	f7fd ff7b 	bl	8003ca2 <aci_gap_init_IDB05A1>
  if (ret != BLE_STATUS_SUCCESS) {
 8005dac:	b110      	cbz	r0, 8005db4 <MX_BlueNRG_MS_Init+0xdc>
    printf("GAP_Init failed.\n");
 8005dae:	4815      	ldr	r0, [pc, #84]	; (8005e04 <MX_BlueNRG_MS_Init+0x12c>)
 8005db0:	f002 fbee 	bl	8008590 <puts>
  ret = aci_gap_set_auth_requirement(MITM_PROTECTION_REQUIRED,
 8005db4:	4b14      	ldr	r3, [pc, #80]	; (8005e08 <MX_BlueNRG_MS_Init+0x130>)
 8005db6:	9302      	str	r3, [sp, #8]
 8005db8:	2200      	movs	r2, #0
 8005dba:	2310      	movs	r3, #16
 8005dbc:	2001      	movs	r0, #1
 8005dbe:	9300      	str	r3, [sp, #0]
 8005dc0:	9003      	str	r0, [sp, #12]
 8005dc2:	9201      	str	r2, [sp, #4]
 8005dc4:	2307      	movs	r3, #7
 8005dc6:	4611      	mov	r1, r2
 8005dc8:	f7fd ffa9 	bl	8003d1e <aci_gap_set_auth_requirement>
  if (ret == BLE_STATUS_SUCCESS) {
 8005dcc:	b910      	cbnz	r0, 8005dd4 <MX_BlueNRG_MS_Init+0xfc>
    printf("BLE Stack Initialized.\r\n\r\n");
 8005dce:	480f      	ldr	r0, [pc, #60]	; (8005e0c <MX_BlueNRG_MS_Init+0x134>)
 8005dd0:	f002 fbde 	bl	8008590 <puts>
}
 8005dd4:	b009      	add	sp, #36	; 0x24
 8005dd6:	f85d fb04 	ldr.w	pc, [sp], #4
 8005dda:	bf00      	nop
 8005ddc:	2000000c 	.word	0x2000000c
 8005de0:	08007275 	.word	0x08007275
 8005de4:	0800b8fc 	.word	0x0800b8fc
 8005de8:	0800b92a 	.word	0x0800b92a
 8005dec:	20003199 	.word	0x20003199
 8005df0:	0800b941 	.word	0x0800b941
 8005df4:	20004300 	.word	0x20004300
 8005df8:	0800b964 	.word	0x0800b964
 8005dfc:	0800b984 	.word	0x0800b984
 8005e00:	0800b9a8 	.word	0x0800b9a8
 8005e04:	0800b9ba 	.word	0x0800b9ba
 8005e08:	0001e240 	.word	0x0001e240
 8005e0c:	0800b9cb 	.word	0x0800b9cb

08005e10 <MX_BlueNRG_MS_Process>:
{
 8005e10:	b5f8      	push	{r3, r4, r5, r6, r7, lr}
 * @retval None
 */
static void User_Process(void)
{
	/* Wyszukiwanie serverow przez klienta */
	if(!discovery_started){
 8005e12:	4c37      	ldr	r4, [pc, #220]	; (8005ef0 <MX_BlueNRG_MS_Process+0xe0>)
 8005e14:	7823      	ldrb	r3, [r4, #0]
 8005e16:	f003 02ff 	and.w	r2, r3, #255	; 0xff
 8005e1a:	b94b      	cbnz	r3, 8005e30 <MX_BlueNRG_MS_Process+0x20>
		tBleStatus ret = aci_gap_start_general_discovery_proc(0x10, 0x10, PUBLIC_ADDR, 0x01); //filter duplicates
 8005e1c:	2110      	movs	r1, #16
 8005e1e:	2301      	movs	r3, #1
 8005e20:	4608      	mov	r0, r1
 8005e22:	f7fd ffbc 	bl	8003d9e <aci_gap_start_general_discovery_proc>
		//The two devices are discovered through the EVT_LE_ADVERTISING_REPORT events (sample_service.c).
		if (ret != BLE_STATUS_SUCCESS) {
 8005e26:	2800      	cmp	r0, #0
 8005e28:	d057      	beq.n	8005eda <MX_BlueNRG_MS_Process+0xca>
			printf("Error starting device discovery process!\r\n\r\n");
 8005e2a:	4832      	ldr	r0, [pc, #200]	; (8005ef4 <MX_BlueNRG_MS_Process+0xe4>)
		}
		else{
			discovery_started = TRUE;
			printf("Device discovery process started\r\n\r\n");
 8005e2c:	f002 fbb0 	bl	8008590 <puts>
		}
	}

	if(set_connectable && discovery_finished)
 8005e30:	4f31      	ldr	r7, [pc, #196]	; (8005ef8 <MX_BlueNRG_MS_Process+0xe8>)
 8005e32:	783b      	ldrb	r3, [r7, #0]
 8005e34:	b153      	cbz	r3, 8005e4c <MX_BlueNRG_MS_Process+0x3c>
 8005e36:	4e31      	ldr	r6, [pc, #196]	; (8005efc <MX_BlueNRG_MS_Process+0xec>)
 8005e38:	7833      	ldrb	r3, [r6, #0]
 8005e3a:	b13b      	cbz	r3, 8005e4c <MX_BlueNRG_MS_Process+0x3c>
	{
		/* Establish connection with first remote device */
		if(foundDevicesCount > 0){
 8005e3c:	4b30      	ldr	r3, [pc, #192]	; (8005f00 <MX_BlueNRG_MS_Process+0xf0>)
 8005e3e:	781d      	ldrb	r5, [r3, #0]
 8005e40:	2d00      	cmp	r5, #0
 8005e42:	d04e      	beq.n	8005ee2 <MX_BlueNRG_MS_Process+0xd2>
			Make_Connection(); /* Stworzenie (nie nawiazanie) polaczenia (master) lub ustawienie wykrywalnosci (slave) */
 8005e44:	f000 ffcc 	bl	8006de0 <Make_Connection>
			set_connectable = false;
 8005e48:	2300      	movs	r3, #0
 8005e4a:	703b      	strb	r3, [r7, #0]
			discovery_finished = false;
		}
	}

    /* Start TX handle Characteristic dynamic discovery if not yet done */
    if (all_servers_connected && !start_read_tx_char_handle){
 8005e4c:	4c2d      	ldr	r4, [pc, #180]	; (8005f04 <MX_BlueNRG_MS_Process+0xf4>)
 8005e4e:	7823      	ldrb	r3, [r4, #0]
 8005e50:	b123      	cbz	r3, 8005e5c <MX_BlueNRG_MS_Process+0x4c>
 8005e52:	4b2d      	ldr	r3, [pc, #180]	; (8005f08 <MX_BlueNRG_MS_Process+0xf8>)
 8005e54:	781b      	ldrb	r3, [r3, #0]
 8005e56:	b90b      	cbnz	r3, 8005e5c <MX_BlueNRG_MS_Process+0x4c>
      startReadTXCharHandle();
 8005e58:	f000 fffa 	bl	8006e50 <startReadTXCharHandle>
    }
    /* Start RX handle Characteristic dynamic discovery if not yet done */
    if (all_servers_connected && all_tx_char_handles_read && !start_read_rx_char_handle){
 8005e5c:	7823      	ldrb	r3, [r4, #0]
 8005e5e:	b13b      	cbz	r3, 8005e70 <MX_BlueNRG_MS_Process+0x60>
 8005e60:	4b2a      	ldr	r3, [pc, #168]	; (8005f0c <MX_BlueNRG_MS_Process+0xfc>)
 8005e62:	781b      	ldrb	r3, [r3, #0]
 8005e64:	b123      	cbz	r3, 8005e70 <MX_BlueNRG_MS_Process+0x60>
 8005e66:	4b2a      	ldr	r3, [pc, #168]	; (8005f10 <MX_BlueNRG_MS_Process+0x100>)
 8005e68:	781b      	ldrb	r3, [r3, #0]
 8005e6a:	b90b      	cbnz	r3, 8005e70 <MX_BlueNRG_MS_Process+0x60>
      startReadRXCharHandle();
 8005e6c:	f001 f820 	bl	8006eb0 <startReadRXCharHandle>
    }
    /* Enable notifications to start data exchange */
    if (all_servers_connected && all_tx_char_handles_read && all_rx_char_handles_read && !start_notifications_enable)
 8005e70:	7823      	ldrb	r3, [r4, #0]
 8005e72:	b173      	cbz	r3, 8005e92 <MX_BlueNRG_MS_Process+0x82>
 8005e74:	4b25      	ldr	r3, [pc, #148]	; (8005f0c <MX_BlueNRG_MS_Process+0xfc>)
 8005e76:	781b      	ldrb	r3, [r3, #0]
 8005e78:	b15b      	cbz	r3, 8005e92 <MX_BlueNRG_MS_Process+0x82>
 8005e7a:	4b26      	ldr	r3, [pc, #152]	; (8005f14 <MX_BlueNRG_MS_Process+0x104>)
 8005e7c:	781b      	ldrb	r3, [r3, #0]
 8005e7e:	b143      	cbz	r3, 8005e92 <MX_BlueNRG_MS_Process+0x82>
 8005e80:	4b25      	ldr	r3, [pc, #148]	; (8005f18 <MX_BlueNRG_MS_Process+0x108>)
 8005e82:	781b      	ldrb	r3, [r3, #0]
 8005e84:	f003 00ff 	and.w	r0, r3, #255	; 0xff
 8005e88:	b91b      	cbnz	r3, 8005e92 <MX_BlueNRG_MS_Process+0x82>
    {
      BSP_LED_Off(LED2); /* end of the connection and chars discovery phase */
 8005e8a:	f001 fba6 	bl	80075da <BSP_LED_Off>
      enableNotification(); /* Wlacz wymiane danych */
 8005e8e:	f001 f873 	bl	8006f78 <enableNotification>
    }

    /* Klient wysyla dane konfiguracji serwerowi */
    if(client_ready)
 8005e92:	4e22      	ldr	r6, [pc, #136]	; (8005f1c <MX_BlueNRG_MS_Process+0x10c>)
 8005e94:	7832      	ldrb	r2, [r6, #0]
 8005e96:	b16a      	cbz	r2, 8005eb4 <MX_BlueNRG_MS_Process+0xa4>
    {
//		static uint8_t whichServerReceivesConfiguration = 0;
    	if(newConfig == true){
 8005e98:	4b21      	ldr	r3, [pc, #132]	; (8005f20 <MX_BlueNRG_MS_Process+0x110>)
 8005e9a:	781a      	ldrb	r2, [r3, #0]
 8005e9c:	b152      	cbz	r2, 8005eb4 <MX_BlueNRG_MS_Process+0xa4>
		  newConfig = false;
		  sendData(whichServerReceivesConfiguration, sentConfigurationMsg, sizeof(sentConfigurationMsg));
 8005e9e:	4d21      	ldr	r5, [pc, #132]	; (8005f24 <MX_BlueNRG_MS_Process+0x114>)
 8005ea0:	4921      	ldr	r1, [pc, #132]	; (8005f28 <MX_BlueNRG_MS_Process+0x118>)
 8005ea2:	7828      	ldrb	r0, [r5, #0]
		  newConfig = false;
 8005ea4:	2200      	movs	r2, #0
 8005ea6:	701a      	strb	r2, [r3, #0]
		  sendData(whichServerReceivesConfiguration, sentConfigurationMsg, sizeof(sentConfigurationMsg));
 8005ea8:	2214      	movs	r2, #20
 8005eaa:	f001 f849 	bl	8006f40 <sendData>
		  whichServerReceivesConfiguration++; //TODO prymitywnie, obu serverom po jednym sensorze
 8005eae:	782b      	ldrb	r3, [r5, #0]
 8005eb0:	3301      	adds	r3, #1
 8005eb2:	702b      	strb	r3, [r5, #0]
    	 * 4. funkcja od odczytywania z wielu sensorow da znac (?) gdy bedzie miec juz wszystkie dane
    	 * 5. slave wysle odpowiednia liczbe bajtow danych (obliczona wczesniej na podst. konfiguracji) masterowi
    	 * */
    }

    if (all_servers_connected && all_tx_char_handles_read && all_rx_char_handles_read && all_notifications_enabled && !client_ready)
 8005eb4:	7823      	ldrb	r3, [r4, #0]
 8005eb6:	b163      	cbz	r3, 8005ed2 <MX_BlueNRG_MS_Process+0xc2>
 8005eb8:	4b14      	ldr	r3, [pc, #80]	; (8005f0c <MX_BlueNRG_MS_Process+0xfc>)
 8005eba:	781b      	ldrb	r3, [r3, #0]
 8005ebc:	b14b      	cbz	r3, 8005ed2 <MX_BlueNRG_MS_Process+0xc2>
 8005ebe:	4b15      	ldr	r3, [pc, #84]	; (8005f14 <MX_BlueNRG_MS_Process+0x104>)
 8005ec0:	781b      	ldrb	r3, [r3, #0]
 8005ec2:	b133      	cbz	r3, 8005ed2 <MX_BlueNRG_MS_Process+0xc2>
 8005ec4:	4b19      	ldr	r3, [pc, #100]	; (8005f2c <MX_BlueNRG_MS_Process+0x11c>)
 8005ec6:	781b      	ldrb	r3, [r3, #0]
 8005ec8:	b11b      	cbz	r3, 8005ed2 <MX_BlueNRG_MS_Process+0xc2>
 8005eca:	7833      	ldrb	r3, [r6, #0]
 8005ecc:	b90b      	cbnz	r3, 8005ed2 <MX_BlueNRG_MS_Process+0xc2>
    {
    	client_ready = true;
 8005ece:	2301      	movs	r3, #1
 8005ed0:	7033      	strb	r3, [r6, #0]
}
 8005ed2:	e8bd 40f8 	ldmia.w	sp!, {r3, r4, r5, r6, r7, lr}
  hci_user_evt_proc();
 8005ed6:	f7fe ba79 	b.w	80043cc <hci_user_evt_proc>
			discovery_started = TRUE;
 8005eda:	2301      	movs	r3, #1
 8005edc:	7023      	strb	r3, [r4, #0]
			printf("Device discovery process started\r\n\r\n");
 8005ede:	4814      	ldr	r0, [pc, #80]	; (8005f30 <MX_BlueNRG_MS_Process+0x120>)
 8005ee0:	e7a4      	b.n	8005e2c <MX_BlueNRG_MS_Process+0x1c>
			printf("No connectable devices found!\r\n\r\n");
 8005ee2:	4814      	ldr	r0, [pc, #80]	; (8005f34 <MX_BlueNRG_MS_Process+0x124>)
 8005ee4:	f002 fb54 	bl	8008590 <puts>
			discovery_started = false;
 8005ee8:	7025      	strb	r5, [r4, #0]
			discovery_finished = false;
 8005eea:	7035      	strb	r5, [r6, #0]
 8005eec:	e7ae      	b.n	8005e4c <MX_BlueNRG_MS_Process+0x3c>
 8005eee:	bf00      	nop
 8005ef0:	200042a6 	.word	0x200042a6
 8005ef4:	0800b9e5 	.word	0x0800b9e5
 8005ef8:	2000000d 	.word	0x2000000d
 8005efc:	200042a5 	.word	0x200042a5
 8005f00:	200042a7 	.word	0x200042a7
 8005f04:	200042a1 	.word	0x200042a1
 8005f08:	200042ac 	.word	0x200042ac
 8005f0c:	200042a2 	.word	0x200042a2
 8005f10:	200042ab 	.word	0x200042ab
 8005f14:	200042a0 	.word	0x200042a0
 8005f18:	200042aa 	.word	0x200042aa
 8005f1c:	200042a3 	.word	0x200042a3
 8005f20:	20000dce 	.word	0x20000dce
 8005f24:	2000074e 	.word	0x2000074e
 8005f28:	200007b4 	.word	0x200007b4
 8005f2c:	2000429f 	.word	0x2000429f
 8005f30:	0800ba11 	.word	0x0800ba11
 8005f34:	0800ba35 	.word	0x0800ba35

08005f38 <BSP_PB_Callback>:
  * @retval None.
  */
void BSP_PB_Callback(Button_TypeDef Button)
{
  /* Set the User Button flag */
  user_button_pressed = 1;
 8005f38:	4b01      	ldr	r3, [pc, #4]	; (8005f40 <BSP_PB_Callback+0x8>)
 8005f3a:	2201      	movs	r2, #1
 8005f3c:	701a      	strb	r2, [r3, #0]
 8005f3e:	4770      	bx	lr
 8005f40:	2000319a 	.word	0x2000319a

08005f44 <vApplicationGetIdleTaskMemory>:
static StaticTask_t xIdleTaskTCBBuffer;
static StackType_t xIdleStack[configMINIMAL_STACK_SIZE];
  
void vApplicationGetIdleTaskMemory( StaticTask_t **ppxIdleTaskTCBBuffer, StackType_t **ppxIdleTaskStackBuffer, uint32_t *pulIdleTaskStackSize )
{
  *ppxIdleTaskTCBBuffer = &xIdleTaskTCBBuffer;
 8005f44:	4b03      	ldr	r3, [pc, #12]	; (8005f54 <vApplicationGetIdleTaskMemory+0x10>)
 8005f46:	6003      	str	r3, [r0, #0]
  *ppxIdleTaskStackBuffer = &xIdleStack[0];
 8005f48:	4b03      	ldr	r3, [pc, #12]	; (8005f58 <vApplicationGetIdleTaskMemory+0x14>)
 8005f4a:	600b      	str	r3, [r1, #0]
  *pulIdleTaskStackSize = configMINIMAL_STACK_SIZE;
 8005f4c:	f44f 737a 	mov.w	r3, #1000	; 0x3e8
 8005f50:	6013      	str	r3, [r2, #0]
 8005f52:	4770      	bx	lr
 8005f54:	2000413c 	.word	0x2000413c
 8005f58:	2000319c 	.word	0x2000319c

08005f5c <HCI_TL_SPI_Init>:
 */
int32_t HCI_TL_SPI_Init(void* pConf)
{
  GPIO_InitTypeDef GPIO_InitStruct;
  
  __HAL_RCC_GPIOA_CLK_ENABLE();
 8005f5c:	4b17      	ldr	r3, [pc, #92]	; (8005fbc <HCI_TL_SPI_Init+0x60>)
{
 8005f5e:	b530      	push	{r4, r5, lr}
  __HAL_RCC_GPIOA_CLK_ENABLE();
 8005f60:	6cda      	ldr	r2, [r3, #76]	; 0x4c
 8005f62:	f042 0201 	orr.w	r2, r2, #1
 8005f66:	64da      	str	r2, [r3, #76]	; 0x4c
 8005f68:	6cdb      	ldr	r3, [r3, #76]	; 0x4c
{
 8005f6a:	b087      	sub	sp, #28
  __HAL_RCC_GPIOA_CLK_ENABLE();
 8005f6c:	f003 0301 	and.w	r3, r3, #1
 8005f70:	9300      	str	r3, [sp, #0]
  
  /*Configure EXTI Line */
  GPIO_InitStruct.Pin = HCI_TL_SPI_EXTI_PIN;
  GPIO_InitStruct.Mode = GPIO_MODE_IT_RISING;
  GPIO_InitStruct.Pull = GPIO_NOPULL;
 8005f72:	2400      	movs	r4, #0
  GPIO_InitStruct.Pin = HCI_TL_SPI_EXTI_PIN;
 8005f74:	2501      	movs	r5, #1
  __HAL_RCC_GPIOA_CLK_ENABLE();
 8005f76:	9b00      	ldr	r3, [sp, #0]
  GPIO_InitStruct.Mode = GPIO_MODE_IT_RISING;
 8005f78:	4b11      	ldr	r3, [pc, #68]	; (8005fc0 <HCI_TL_SPI_Init+0x64>)
 8005f7a:	9302      	str	r3, [sp, #8]
  HAL_GPIO_Init(HCI_TL_SPI_EXTI_PORT, &GPIO_InitStruct);
 8005f7c:	a901      	add	r1, sp, #4
 8005f7e:	f04f 4090 	mov.w	r0, #1207959552	; 0x48000000
  GPIO_InitStruct.Pin = HCI_TL_SPI_EXTI_PIN;
 8005f82:	9501      	str	r5, [sp, #4]
  GPIO_InitStruct.Pull = GPIO_NOPULL;
 8005f84:	9403      	str	r4, [sp, #12]
  HAL_GPIO_Init(HCI_TL_SPI_EXTI_PORT, &GPIO_InitStruct);
 8005f86:	f7fb ffd3 	bl	8001f30 <HAL_GPIO_Init>
   
  /*Configure CS & RESET Line */
  GPIO_InitStruct.Pin =  HCI_TL_RST_PIN ;
 8005f8a:	f44f 7380 	mov.w	r3, #256	; 0x100
  GPIO_InitStruct.Mode = GPIO_MODE_OUTPUT_PP;
  GPIO_InitStruct.Pull = GPIO_NOPULL;
  GPIO_InitStruct.Speed = GPIO_SPEED_FREQ_LOW;
  HAL_GPIO_Init(HCI_TL_RST_PORT, &GPIO_InitStruct);
 8005f8e:	a901      	add	r1, sp, #4
 8005f90:	f04f 4090 	mov.w	r0, #1207959552	; 0x48000000
  GPIO_InitStruct.Pin =  HCI_TL_RST_PIN ;
 8005f94:	9301      	str	r3, [sp, #4]
  GPIO_InitStruct.Mode = GPIO_MODE_OUTPUT_PP;
 8005f96:	9502      	str	r5, [sp, #8]
  GPIO_InitStruct.Pull = GPIO_NOPULL;
 8005f98:	9403      	str	r4, [sp, #12]
  GPIO_InitStruct.Speed = GPIO_SPEED_FREQ_LOW;
 8005f9a:	9404      	str	r4, [sp, #16]
  HAL_GPIO_Init(HCI_TL_RST_PORT, &GPIO_InitStruct);
 8005f9c:	f7fb ffc8 	bl	8001f30 <HAL_GPIO_Init>
  
  GPIO_InitStruct.Pin = HCI_TL_SPI_CS_PIN ;
 8005fa0:	2302      	movs	r3, #2
  GPIO_InitStruct.Mode = GPIO_MODE_OUTPUT_PP;
  GPIO_InitStruct.Pull = GPIO_NOPULL;
  GPIO_InitStruct.Speed = GPIO_SPEED_FREQ_LOW;
  HAL_GPIO_Init(HCI_TL_SPI_CS_PORT, &GPIO_InitStruct); 
 8005fa2:	a901      	add	r1, sp, #4
 8005fa4:	f04f 4090 	mov.w	r0, #1207959552	; 0x48000000
  GPIO_InitStruct.Pin = HCI_TL_SPI_CS_PIN ;
 8005fa8:	9301      	str	r3, [sp, #4]
  GPIO_InitStruct.Mode = GPIO_MODE_OUTPUT_PP;
 8005faa:	9502      	str	r5, [sp, #8]
  GPIO_InitStruct.Pull = GPIO_NOPULL;
 8005fac:	9403      	str	r4, [sp, #12]
  GPIO_InitStruct.Speed = GPIO_SPEED_FREQ_LOW;
 8005fae:	9404      	str	r4, [sp, #16]
  HAL_GPIO_Init(HCI_TL_SPI_CS_PORT, &GPIO_InitStruct); 
 8005fb0:	f7fb ffbe 	bl	8001f30 <HAL_GPIO_Init>
    
  return BSP_SPI1_Init();
 8005fb4:	f001 fc1e 	bl	80077f4 <BSP_SPI1_Init>
}
 8005fb8:	b007      	add	sp, #28
 8005fba:	bd30      	pop	{r4, r5, pc}
 8005fbc:	40021000 	.word	0x40021000
 8005fc0:	10110000 	.word	0x10110000

08005fc4 <HCI_TL_SPI_DeInit>:
 *
 * @param  None
 * @retval int32_t 0
 */
int32_t HCI_TL_SPI_DeInit(void)
{
 8005fc4:	b508      	push	{r3, lr}
  HAL_GPIO_DeInit(HCI_TL_SPI_EXTI_PORT, HCI_TL_SPI_EXTI_PIN); 
 8005fc6:	2101      	movs	r1, #1
 8005fc8:	f04f 4090 	mov.w	r0, #1207959552	; 0x48000000
 8005fcc:	f7fc f88c 	bl	80020e8 <HAL_GPIO_DeInit>
  HAL_GPIO_DeInit(HCI_TL_SPI_CS_PORT, HCI_TL_SPI_CS_PIN); 
 8005fd0:	2102      	movs	r1, #2
 8005fd2:	f04f 4090 	mov.w	r0, #1207959552	; 0x48000000
 8005fd6:	f7fc f887 	bl	80020e8 <HAL_GPIO_DeInit>
  HAL_GPIO_DeInit(HCI_TL_RST_PORT, HCI_TL_RST_PIN);   
 8005fda:	f44f 7180 	mov.w	r1, #256	; 0x100
 8005fde:	f04f 4090 	mov.w	r0, #1207959552	; 0x48000000
 8005fe2:	f7fc f881 	bl	80020e8 <HAL_GPIO_DeInit>
  return 0;
}
 8005fe6:	2000      	movs	r0, #0
 8005fe8:	bd08      	pop	{r3, pc}

08005fea <HCI_TL_SPI_Reset>:
 *
 * @param  None
 * @retval int32_t 0
 */
int32_t HCI_TL_SPI_Reset(void)
{
 8005fea:	b508      	push	{r3, lr}
  HAL_GPIO_WritePin(HCI_TL_RST_PORT, HCI_TL_RST_PIN, GPIO_PIN_RESET);
 8005fec:	2200      	movs	r2, #0
 8005fee:	f44f 7180 	mov.w	r1, #256	; 0x100
 8005ff2:	f04f 4090 	mov.w	r0, #1207959552	; 0x48000000
 8005ff6:	f7fc f907 	bl	8002208 <HAL_GPIO_WritePin>
  HAL_Delay(5);
 8005ffa:	2005      	movs	r0, #5
 8005ffc:	f7fb ff0c 	bl	8001e18 <HAL_Delay>
  HAL_GPIO_WritePin(HCI_TL_RST_PORT, HCI_TL_RST_PIN, GPIO_PIN_SET);
 8006000:	2201      	movs	r2, #1
 8006002:	f44f 7180 	mov.w	r1, #256	; 0x100
 8006006:	f04f 4090 	mov.w	r0, #1207959552	; 0x48000000
 800600a:	f7fc f8fd 	bl	8002208 <HAL_GPIO_WritePin>
  HAL_Delay(5);    
 800600e:	2005      	movs	r0, #5
 8006010:	f7fb ff02 	bl	8001e18 <HAL_Delay>
  return 0;
}  
 8006014:	2000      	movs	r0, #0
 8006016:	bd08      	pop	{r3, pc}

08006018 <HCI_TL_SPI_Receive>:
 * @param  buffer : Buffer where data from SPI are stored
 * @param  size   : Buffer size
 * @retval int32_t: Number of read bytes
 */
int32_t HCI_TL_SPI_Receive(uint8_t* buffer, uint16_t size)
{
 8006018:	b5f0      	push	{r4, r5, r6, r7, lr}
 800601a:	b087      	sub	sp, #28
  uint16_t byte_count;
  uint8_t len = 0;
  uint8_t char_ff = 0xff;
  volatile uint8_t read_char;

  uint8_t header_master[HEADER_SIZE] = {0x0b, 0x00, 0x00, 0x00, 0x00};
 800601c:	2400      	movs	r4, #0
  uint8_t char_ff = 0xff;
 800601e:	23ff      	movs	r3, #255	; 0xff
 8006020:	f88d 3006 	strb.w	r3, [sp, #6]
  uint8_t header_slave[HEADER_SIZE];

  /* CS reset */
  HAL_GPIO_WritePin(HCI_TL_SPI_CS_PORT, HCI_TL_SPI_CS_PIN, GPIO_PIN_RESET);
 8006024:	4622      	mov	r2, r4
  uint8_t header_master[HEADER_SIZE] = {0x0b, 0x00, 0x00, 0x00, 0x00};
 8006026:	230b      	movs	r3, #11
{
 8006028:	4607      	mov	r7, r0
 800602a:	460e      	mov	r6, r1
  HAL_GPIO_WritePin(HCI_TL_SPI_CS_PORT, HCI_TL_SPI_CS_PIN, GPIO_PIN_RESET);
 800602c:	f04f 4090 	mov.w	r0, #1207959552	; 0x48000000
 8006030:	2102      	movs	r1, #2
  uint8_t header_master[HEADER_SIZE] = {0x0b, 0x00, 0x00, 0x00, 0x00};
 8006032:	f88d 3008 	strb.w	r3, [sp, #8]
 8006036:	f88d 4009 	strb.w	r4, [sp, #9]
 800603a:	f88d 400a 	strb.w	r4, [sp, #10]
 800603e:	f88d 400b 	strb.w	r4, [sp, #11]
 8006042:	f88d 400c 	strb.w	r4, [sp, #12]
  HAL_GPIO_WritePin(HCI_TL_SPI_CS_PORT, HCI_TL_SPI_CS_PIN, GPIO_PIN_RESET);
 8006046:	f7fc f8df 	bl	8002208 <HAL_GPIO_WritePin>

  /* Read the header */  
  BSP_SPI1_SendRecv(header_master, header_slave, HEADER_SIZE);
 800604a:	2205      	movs	r2, #5
 800604c:	a904      	add	r1, sp, #16
 800604e:	a802      	add	r0, sp, #8
 8006050:	f001 fb98 	bl	8007784 <BSP_SPI1_SendRecv>
  	
  if(header_slave[0] == 0x02) 
 8006054:	f89d 3010 	ldrb.w	r3, [sp, #16]
 8006058:	2b02      	cmp	r3, #2
 800605a:	d122      	bne.n	80060a2 <HCI_TL_SPI_Receive+0x8a>
  {
    /* device is ready */
    byte_count = (header_slave[4] << 8)| header_slave[3];
 800605c:	f89d 5014 	ldrb.w	r5, [sp, #20]
 8006060:	f89d 3013 	ldrb.w	r3, [sp, #19]
  
    if(byte_count > 0) {
 8006064:	ea53 2505 	orrs.w	r5, r3, r5, lsl #8
 8006068:	d007      	beq.n	800607a <HCI_TL_SPI_Receive+0x62>
 800606a:	42ae      	cmp	r6, r5
 800606c:	bf28      	it	cs
 800606e:	462e      	movcs	r6, r5
 8006070:	b2e5      	uxtb	r5, r4

      if (byte_count > size){
        byte_count = size;
      }        
  
      for(len = 0; len < byte_count; len++)
 8006072:	42b5      	cmp	r5, r6
 8006074:	f104 0401 	add.w	r4, r4, #1
 8006078:	d308      	bcc.n	800608c <HCI_TL_SPI_Receive+0x74>
        buffer[len] = read_char;
      }      
    }    
  }
  /* Release CS line */
  HAL_GPIO_WritePin(HCI_TL_SPI_CS_PORT, HCI_TL_SPI_CS_PIN, GPIO_PIN_SET);
 800607a:	2201      	movs	r2, #1
 800607c:	2102      	movs	r1, #2
 800607e:	f04f 4090 	mov.w	r0, #1207959552	; 0x48000000
 8006082:	f7fc f8c1 	bl	8002208 <HAL_GPIO_WritePin>
    PRINT_CSV("\n");
  }
#endif
  
  return len;  
}
 8006086:	4628      	mov	r0, r5
 8006088:	b007      	add	sp, #28
 800608a:	bdf0      	pop	{r4, r5, r6, r7, pc}
        BSP_SPI1_SendRecv(&char_ff, (uint8_t*)&read_char, 1);  
 800608c:	2201      	movs	r2, #1
 800608e:	f10d 0107 	add.w	r1, sp, #7
 8006092:	f10d 0006 	add.w	r0, sp, #6
 8006096:	f001 fb75 	bl	8007784 <BSP_SPI1_SendRecv>
        buffer[len] = read_char;
 800609a:	f89d 3007 	ldrb.w	r3, [sp, #7]
 800609e:	557b      	strb	r3, [r7, r5]
 80060a0:	e7e6      	b.n	8006070 <HCI_TL_SPI_Receive+0x58>
  uint8_t len = 0;
 80060a2:	4625      	mov	r5, r4
 80060a4:	e7e9      	b.n	800607a <HCI_TL_SPI_Receive+0x62>
	...

080060a8 <HCI_TL_SPI_Send>:
 * @param  buffer : data buffer to be written
 * @param  size   : size of first data buffer to be written
 * @retval int32_t: Number of read bytes
 */
int32_t HCI_TL_SPI_Send(uint8_t* buffer, uint16_t size)
{  
 80060a8:	e92d 41ff 	stmdb	sp!, {r0, r1, r2, r3, r4, r5, r6, r7, r8, lr}
  int32_t result;  
  
  uint8_t header_master[HEADER_SIZE] = {0x0a, 0x00, 0x00, 0x00, 0x00};
 80060ac:	230a      	movs	r3, #10
 80060ae:	f88d 3000 	strb.w	r3, [sp]
 80060b2:	2300      	movs	r3, #0
{  
 80060b4:	4607      	mov	r7, r0
 80060b6:	460d      	mov	r5, r1
  uint8_t header_master[HEADER_SIZE] = {0x0a, 0x00, 0x00, 0x00, 0x00};
 80060b8:	f88d 3001 	strb.w	r3, [sp, #1]
 80060bc:	f88d 3002 	strb.w	r3, [sp, #2]
 80060c0:	f88d 3003 	strb.w	r3, [sp, #3]
 80060c4:	f88d 3004 	strb.w	r3, [sp, #4]
  uint8_t header_slave[HEADER_SIZE];
  
  static uint8_t read_char_buf[MAX_BUFFER_SIZE];
  uint32_t tickstart = HAL_GetTick();
 80060c8:	f7fb fea0 	bl	8001e0c <HAL_GetTick>
    if(header_slave[0] == 0x02) 
    {
      /* SPI is ready */
      if(header_slave[1] >= size) 
      {
        BSP_SPI1_SendRecv(buffer, read_char_buf, size);
 80060cc:	f8df 8068 	ldr.w	r8, [pc, #104]	; 8006138 <HCI_TL_SPI_Send+0x90>
  uint32_t tickstart = HAL_GetTick();
 80060d0:	4606      	mov	r6, r0
    HAL_GPIO_WritePin(HCI_TL_SPI_CS_PORT, HCI_TL_SPI_CS_PIN, GPIO_PIN_RESET);
 80060d2:	2200      	movs	r2, #0
 80060d4:	2102      	movs	r1, #2
 80060d6:	f04f 4090 	mov.w	r0, #1207959552	; 0x48000000
 80060da:	f7fc f895 	bl	8002208 <HAL_GPIO_WritePin>
    BSP_SPI1_SendRecv(header_master, header_slave, HEADER_SIZE);
 80060de:	2205      	movs	r2, #5
 80060e0:	a902      	add	r1, sp, #8
 80060e2:	4668      	mov	r0, sp
 80060e4:	f001 fb4e 	bl	8007784 <BSP_SPI1_SendRecv>
    if(header_slave[0] == 0x02) 
 80060e8:	f89d 3008 	ldrb.w	r3, [sp, #8]
 80060ec:	2b02      	cmp	r3, #2
 80060ee:	d11a      	bne.n	8006126 <HCI_TL_SPI_Send+0x7e>
      if(header_slave[1] >= size) 
 80060f0:	f89d 3009 	ldrb.w	r3, [sp, #9]
 80060f4:	42ab      	cmp	r3, r5
 80060f6:	d319      	bcc.n	800612c <HCI_TL_SPI_Send+0x84>
        BSP_SPI1_SendRecv(buffer, read_char_buf, size);
 80060f8:	462a      	mov	r2, r5
 80060fa:	4641      	mov	r1, r8
 80060fc:	4638      	mov	r0, r7
 80060fe:	f001 fb41 	bl	8007784 <BSP_SPI1_SendRecv>
    result = 0;
 8006102:	2400      	movs	r4, #0
      /* SPI is not ready */
      result = -1;
    }
    
    /* Release CS line */
    HAL_GPIO_WritePin(HCI_TL_SPI_CS_PORT, HCI_TL_SPI_CS_PIN, GPIO_PIN_SET);
 8006104:	2201      	movs	r2, #1
 8006106:	2102      	movs	r1, #2
 8006108:	f04f 4090 	mov.w	r0, #1207959552	; 0x48000000
 800610c:	f7fc f87c 	bl	8002208 <HAL_GPIO_WritePin>
    
    if((HAL_GetTick() - tickstart) > TIMEOUT_DURATION)
 8006110:	f7fb fe7c 	bl	8001e0c <HAL_GetTick>
 8006114:	1b80      	subs	r0, r0, r6
 8006116:	280f      	cmp	r0, #15
 8006118:	d80b      	bhi.n	8006132 <HCI_TL_SPI_Send+0x8a>
    {
      result = -3;
      break;
    }
  } while(result < 0);
 800611a:	2c00      	cmp	r4, #0
 800611c:	d1d9      	bne.n	80060d2 <HCI_TL_SPI_Send+0x2a>
  
  return result;
}
 800611e:	4620      	mov	r0, r4
 8006120:	b004      	add	sp, #16
 8006122:	e8bd 81f0 	ldmia.w	sp!, {r4, r5, r6, r7, r8, pc}
      result = -1;
 8006126:	f04f 34ff 	mov.w	r4, #4294967295
 800612a:	e7eb      	b.n	8006104 <HCI_TL_SPI_Send+0x5c>
        result = -2;
 800612c:	f06f 0401 	mvn.w	r4, #1
 8006130:	e7e8      	b.n	8006104 <HCI_TL_SPI_Send+0x5c>
      result = -3;
 8006132:	f06f 0402 	mvn.w	r4, #2
  return result;
 8006136:	e7f2      	b.n	800611e <HCI_TL_SPI_Send+0x76>
 8006138:	200041a0 	.word	0x200041a0

0800613c <hci_tl_lowlevel_isr>:
  *
  * @param  None
  * @retval None
  */
void hci_tl_lowlevel_isr(void)
{
 800613c:	b508      	push	{r3, lr}
  return (HAL_GPIO_ReadPin(HCI_TL_SPI_EXTI_PORT, HCI_TL_SPI_EXTI_PIN) == GPIO_PIN_SET);
 800613e:	2101      	movs	r1, #1
 8006140:	f04f 4090 	mov.w	r0, #1207959552	; 0x48000000
 8006144:	f7fc f85a 	bl	80021fc <HAL_GPIO_ReadPin>
  /* Call hci_notify_asynch_evt() */
  while(IsDataAvailable())
 8006148:	2801      	cmp	r0, #1
 800614a:	d104      	bne.n	8006156 <hci_tl_lowlevel_isr+0x1a>
  {        
    if (hci_notify_asynch_evt(NULL))
 800614c:	2000      	movs	r0, #0
 800614e:	f7fe f95d 	bl	800440c <hci_notify_asynch_evt>
 8006152:	2800      	cmp	r0, #0
 8006154:	d0f3      	beq.n	800613e <hci_tl_lowlevel_isr+0x2>
 8006156:	bd08      	pop	{r3, pc}

08006158 <hci_tl_lowlevel_init>:
{
 8006158:	b510      	push	{r4, lr}
 800615a:	b088      	sub	sp, #32
  fops.Init    = HCI_TL_SPI_Init;
 800615c:	4b11      	ldr	r3, [pc, #68]	; (80061a4 <hci_tl_lowlevel_init+0x4c>)
 800615e:	9301      	str	r3, [sp, #4]
  fops.DeInit  = HCI_TL_SPI_DeInit;
 8006160:	4b11      	ldr	r3, [pc, #68]	; (80061a8 <hci_tl_lowlevel_init+0x50>)
 8006162:	9302      	str	r3, [sp, #8]
  fops.Send    = HCI_TL_SPI_Send;
 8006164:	4b11      	ldr	r3, [pc, #68]	; (80061ac <hci_tl_lowlevel_init+0x54>)
 8006166:	9305      	str	r3, [sp, #20]
  fops.Receive = HCI_TL_SPI_Receive;
 8006168:	4b11      	ldr	r3, [pc, #68]	; (80061b0 <hci_tl_lowlevel_init+0x58>)
 800616a:	9304      	str	r3, [sp, #16]
  HAL_EXTI_GetHandle(&hexti0, EXTI_LINE_0);
 800616c:	4c11      	ldr	r4, [pc, #68]	; (80061b4 <hci_tl_lowlevel_init+0x5c>)
  fops.Reset   = HCI_TL_SPI_Reset;
 800616e:	4b12      	ldr	r3, [pc, #72]	; (80061b8 <hci_tl_lowlevel_init+0x60>)
 8006170:	9303      	str	r3, [sp, #12]
  hci_register_io_bus (&fops);
 8006172:	a801      	add	r0, sp, #4
  fops.GetTick = BSP_GetTick;
 8006174:	4b11      	ldr	r3, [pc, #68]	; (80061bc <hci_tl_lowlevel_init+0x64>)
 8006176:	9307      	str	r3, [sp, #28]
  hci_register_io_bus (&fops);
 8006178:	f7fe f85a 	bl	8004230 <hci_register_io_bus>
  HAL_EXTI_GetHandle(&hexti0, EXTI_LINE_0);
 800617c:	f04f 51b0 	mov.w	r1, #369098752	; 0x16000000
 8006180:	4620      	mov	r0, r4
 8006182:	f7fb feb7 	bl	8001ef4 <HAL_EXTI_GetHandle>
  HAL_EXTI_RegisterCallback(&hexti0, HAL_EXTI_COMMON_CB_ID, hci_tl_lowlevel_isr);
 8006186:	4a0e      	ldr	r2, [pc, #56]	; (80061c0 <hci_tl_lowlevel_init+0x68>)
 8006188:	2100      	movs	r1, #0
 800618a:	4620      	mov	r0, r4
 800618c:	f7fb feac 	bl	8001ee8 <HAL_EXTI_RegisterCallback>
  HAL_NVIC_SetPriority(EXTI0_IRQn, 0, 0);
 8006190:	2200      	movs	r2, #0
 8006192:	4611      	mov	r1, r2
 8006194:	2006      	movs	r0, #6
 8006196:	f7fb fe65 	bl	8001e64 <HAL_NVIC_SetPriority>
  HAL_NVIC_EnableIRQ(EXTI0_IRQn);
 800619a:	2006      	movs	r0, #6
 800619c:	f7fb fe96 	bl	8001ecc <HAL_NVIC_EnableIRQ>
}
 80061a0:	b008      	add	sp, #32
 80061a2:	bd10      	pop	{r4, pc}
 80061a4:	08005f5d 	.word	0x08005f5d
 80061a8:	08005fc5 	.word	0x08005fc5
 80061ac:	080060a9 	.word	0x080060a9
 80061b0:	08006019 	.word	0x08006019
 80061b4:	20004308 	.word	0x20004308
 80061b8:	08005feb 	.word	0x08005feb
 80061bc:	080077ad 	.word	0x080077ad
 80061c0:	0800613d 	.word	0x0800613d

080061c4 <main>:
/**
  * @brief  The application entry point.
  * @retval int
  */
int main(void)
{
 80061c4:	b5b0      	push	{r4, r5, r7, lr}
 80061c6:	b09c      	sub	sp, #112	; 0x70
 80061c8:	af00      	add	r7, sp, #0
  

  /* MCU Configuration--------------------------------------------------------*/

  /* Reset of all peripherals, Initializes the Flash interface and the Systick. */
  HAL_Init();
 80061ca:	f7fb fdfd 	bl	8001dc8 <HAL_Init>
  /* USER CODE BEGIN Init */

  /* USER CODE END Init */

  /* Configure the system clock */
  SystemClock_Config();
 80061ce:	f000 f87d 	bl	80062cc <_Z18SystemClock_Configv>
  /* USER CODE BEGIN SysInit */

  /* USER CODE END SysInit */

  /* Initialize all configured peripherals */
  MX_GPIO_Init();
 80061d2:	f000 f93b 	bl	800644c <_ZL12MX_GPIO_Initv>
  MX_USART3_UART_Init();
 80061d6:	f000 f905 	bl	80063e4 <_ZL19MX_USART3_UART_Initv>
  MX_BlueNRG_MS_Init();
 80061da:	f7ff fd7d 	bl	8005cd8 <MX_BlueNRG_MS_Init>
  /* USER CODE BEGIN 2 */
  /* USER CODE END 2 */

  /* USER CODE BEGIN RTOS_MUTEX */
  /* add mutexes, ... */
  uartMutexHandle = xSemaphoreCreateMutex();
 80061de:	2001      	movs	r0, #1
 80061e0:	f7fe fe36 	bl	8004e50 <xQueueCreateMutex>
 80061e4:	4602      	mov	r2, r0
 80061e6:	4b2e      	ldr	r3, [pc, #184]	; (80062a0 <main+0xdc>)
 80061e8:	601a      	str	r2, [r3, #0]
  newDataMutexHandle = xSemaphoreCreateMutex();
 80061ea:	2001      	movs	r0, #1
 80061ec:	f7fe fe30 	bl	8004e50 <xQueueCreateMutex>
 80061f0:	4602      	mov	r2, r0
 80061f2:	4b2c      	ldr	r3, [pc, #176]	; (80062a4 <main+0xe0>)
 80061f4:	601a      	str	r2, [r3, #0]
  /* start timers, add new ones, ... */
  /* USER CODE END RTOS_TIMERS */

  /* USER CODE BEGIN RTOS_QUEUES */
  /* add queues, ... */
  msgQueueHandle = xQueueCreate(MAX_MSGS, sizeof(uartData));
 80061f6:	2200      	movs	r2, #0
 80061f8:	2146      	movs	r1, #70	; 0x46
 80061fa:	2005      	movs	r0, #5
 80061fc:	f7fe fd44 	bl	8004c88 <xQueueGenericCreate>
 8006200:	4602      	mov	r2, r0
 8006202:	4b29      	ldr	r3, [pc, #164]	; (80062a8 <main+0xe4>)
 8006204:	601a      	str	r2, [r3, #0]
  /* USER CODE END RTOS_QUEUES */

  /* Create the thread(s) */
  /* definition and creation of defaultTask */
  osThreadDef(defaultTask, StartDefaultTask, osPriorityNormal, 0, 128);
 8006206:	4b29      	ldr	r3, [pc, #164]	; (80062ac <main+0xe8>)
 8006208:	f107 0454 	add.w	r4, r7, #84	; 0x54
 800620c:	461d      	mov	r5, r3
 800620e:	cd0f      	ldmia	r5!, {r0, r1, r2, r3}
 8006210:	c40f      	stmia	r4!, {r0, r1, r2, r3}
 8006212:	e895 0007 	ldmia.w	r5, {r0, r1, r2}
 8006216:	e884 0007 	stmia.w	r4, {r0, r1, r2}
  defaultTaskHandle = osThreadCreate(osThread(defaultTask), NULL);
 800621a:	f107 0354 	add.w	r3, r7, #84	; 0x54
 800621e:	2100      	movs	r1, #0
 8006220:	4618      	mov	r0, r3
 8006222:	f7fe f98a 	bl	800453a <osThreadCreate>
 8006226:	4602      	mov	r2, r0
 8006228:	4b21      	ldr	r3, [pc, #132]	; (80062b0 <main+0xec>)
 800622a:	601a      	str	r2, [r3, #0]

  /* USER CODE BEGIN RTOS_THREADS */
  /* add threads, ... */
  osThreadDef(askForDataTask, AskForDataTaskThread, osPriorityNormal, 0, 128);
 800622c:	4b21      	ldr	r3, [pc, #132]	; (80062b4 <main+0xf0>)
 800622e:	f107 0438 	add.w	r4, r7, #56	; 0x38
 8006232:	461d      	mov	r5, r3
 8006234:	cd0f      	ldmia	r5!, {r0, r1, r2, r3}
 8006236:	c40f      	stmia	r4!, {r0, r1, r2, r3}
 8006238:	e895 0007 	ldmia.w	r5, {r0, r1, r2}
 800623c:	e884 0007 	stmia.w	r4, {r0, r1, r2}
  askForDataTaskHandle = osThreadCreate(osThread(askForDataTask), NULL);
 8006240:	f107 0338 	add.w	r3, r7, #56	; 0x38
 8006244:	2100      	movs	r1, #0
 8006246:	4618      	mov	r0, r3
 8006248:	f7fe f977 	bl	800453a <osThreadCreate>
 800624c:	4602      	mov	r2, r0
 800624e:	4b1a      	ldr	r3, [pc, #104]	; (80062b8 <main+0xf4>)
 8006250:	601a      	str	r2, [r3, #0]

  osThreadDef(presentationTask, PresentationTaskThread, osPriorityNormal, 0, 512);
 8006252:	4b1a      	ldr	r3, [pc, #104]	; (80062bc <main+0xf8>)
 8006254:	f107 041c 	add.w	r4, r7, #28
 8006258:	461d      	mov	r5, r3
 800625a:	cd0f      	ldmia	r5!, {r0, r1, r2, r3}
 800625c:	c40f      	stmia	r4!, {r0, r1, r2, r3}
 800625e:	e895 0007 	ldmia.w	r5, {r0, r1, r2}
 8006262:	e884 0007 	stmia.w	r4, {r0, r1, r2}
  presentationTaskHandle = osThreadCreate(osThread(presentationTask), NULL);
 8006266:	f107 031c 	add.w	r3, r7, #28
 800626a:	2100      	movs	r1, #0
 800626c:	4618      	mov	r0, r3
 800626e:	f7fe f964 	bl	800453a <osThreadCreate>
 8006272:	4602      	mov	r2, r0
 8006274:	4b12      	ldr	r3, [pc, #72]	; (80062c0 <main+0xfc>)
 8006276:	601a      	str	r2, [r3, #0]

  osThreadDef(communicationTask, CommunicationTaskThread, osPriorityLow, 0, 128);
 8006278:	4b12      	ldr	r3, [pc, #72]	; (80062c4 <main+0x100>)
 800627a:	463c      	mov	r4, r7
 800627c:	461d      	mov	r5, r3
 800627e:	cd0f      	ldmia	r5!, {r0, r1, r2, r3}
 8006280:	c40f      	stmia	r4!, {r0, r1, r2, r3}
 8006282:	e895 0007 	ldmia.w	r5, {r0, r1, r2}
 8006286:	e884 0007 	stmia.w	r4, {r0, r1, r2}
  communicationTaskHandle = osThreadCreate(osThread(communicationTask), NULL);
 800628a:	463b      	mov	r3, r7
 800628c:	2100      	movs	r1, #0
 800628e:	4618      	mov	r0, r3
 8006290:	f7fe f953 	bl	800453a <osThreadCreate>
 8006294:	4602      	mov	r2, r0
 8006296:	4b0c      	ldr	r3, [pc, #48]	; (80062c8 <main+0x104>)
 8006298:	601a      	str	r2, [r3, #0]
  /* USER CODE END RTOS_THREADS */

  /* Start scheduler */
  osKernelStart();
 800629a:	f7fe f949 	bl	8004530 <osKernelStart>
 
  /* We should never get here as control is now taken by the scheduler */

  /* Infinite loop */
  /* USER CODE BEGIN WHILE */
  while (1)
 800629e:	e7fe      	b.n	800629e <main+0xda>
 80062a0:	2000073c 	.word	0x2000073c
 80062a4:	20000740 	.word	0x20000740
 80062a8:	20000744 	.word	0x20000744
 80062ac:	0800b73c 	.word	0x0800b73c
 80062b0:	2000072c 	.word	0x2000072c
 80062b4:	0800b768 	.word	0x0800b768
 80062b8:	20000730 	.word	0x20000730
 80062bc:	0800b798 	.word	0x0800b798
 80062c0:	20000734 	.word	0x20000734
 80062c4:	0800b7c8 	.word	0x0800b7c8
 80062c8:	20000738 	.word	0x20000738

080062cc <_Z18SystemClock_Configv>:
/**
  * @brief System Clock Configuration
  * @retval None
  */
void SystemClock_Config(void)
{
 80062cc:	b580      	push	{r7, lr}
 80062ce:	b0b8      	sub	sp, #224	; 0xe0
 80062d0:	af00      	add	r7, sp, #0
  RCC_OscInitTypeDef RCC_OscInitStruct = {0};
 80062d2:	f107 039c 	add.w	r3, r7, #156	; 0x9c
 80062d6:	2244      	movs	r2, #68	; 0x44
 80062d8:	2100      	movs	r1, #0
 80062da:	4618      	mov	r0, r3
 80062dc:	f002 f8b7 	bl	800844e <memset>
  RCC_ClkInitTypeDef RCC_ClkInitStruct = {0};
 80062e0:	f107 0388 	add.w	r3, r7, #136	; 0x88
 80062e4:	2200      	movs	r2, #0
 80062e6:	601a      	str	r2, [r3, #0]
 80062e8:	605a      	str	r2, [r3, #4]
 80062ea:	609a      	str	r2, [r3, #8]
 80062ec:	60da      	str	r2, [r3, #12]
 80062ee:	611a      	str	r2, [r3, #16]
  RCC_PeriphCLKInitTypeDef PeriphClkInit = {0};
 80062f0:	463b      	mov	r3, r7
 80062f2:	2288      	movs	r2, #136	; 0x88
 80062f4:	2100      	movs	r1, #0
 80062f6:	4618      	mov	r0, r3
 80062f8:	f002 f8a9 	bl	800844e <memset>

  /** Initializes the CPU, AHB and APB busses clocks 
  */
  RCC_OscInitStruct.OscillatorType = RCC_OSCILLATORTYPE_HSI;
 80062fc:	2302      	movs	r3, #2
 80062fe:	f8c7 309c 	str.w	r3, [r7, #156]	; 0x9c
  RCC_OscInitStruct.HSIState = RCC_HSI_ON;
 8006302:	f44f 7380 	mov.w	r3, #256	; 0x100
 8006306:	f8c7 30a8 	str.w	r3, [r7, #168]	; 0xa8
  RCC_OscInitStruct.HSICalibrationValue = RCC_HSICALIBRATION_DEFAULT;
 800630a:	2310      	movs	r3, #16
 800630c:	f8c7 30ac 	str.w	r3, [r7, #172]	; 0xac
  RCC_OscInitStruct.PLL.PLLState = RCC_PLL_ON;
 8006310:	2302      	movs	r3, #2
 8006312:	f8c7 30c4 	str.w	r3, [r7, #196]	; 0xc4
  RCC_OscInitStruct.PLL.PLLSource = RCC_PLLSOURCE_HSI;
 8006316:	2302      	movs	r3, #2
 8006318:	f8c7 30c8 	str.w	r3, [r7, #200]	; 0xc8
  RCC_OscInitStruct.PLL.PLLM = 1;
 800631c:	2301      	movs	r3, #1
 800631e:	f8c7 30cc 	str.w	r3, [r7, #204]	; 0xcc
  RCC_OscInitStruct.PLL.PLLN = 10;
 8006322:	230a      	movs	r3, #10
 8006324:	f8c7 30d0 	str.w	r3, [r7, #208]	; 0xd0
  RCC_OscInitStruct.PLL.PLLP = RCC_PLLP_DIV7;
 8006328:	2307      	movs	r3, #7
 800632a:	f8c7 30d4 	str.w	r3, [r7, #212]	; 0xd4
  RCC_OscInitStruct.PLL.PLLQ = RCC_PLLQ_DIV2;
 800632e:	2302      	movs	r3, #2
 8006330:	f8c7 30d8 	str.w	r3, [r7, #216]	; 0xd8
  RCC_OscInitStruct.PLL.PLLR = RCC_PLLR_DIV2;
 8006334:	2302      	movs	r3, #2
 8006336:	f8c7 30dc 	str.w	r3, [r7, #220]	; 0xdc
  if (HAL_RCC_OscConfig(&RCC_OscInitStruct) != HAL_OK)
 800633a:	f107 039c 	add.w	r3, r7, #156	; 0x9c
 800633e:	4618      	mov	r0, r3
 8006340:	f7fc f836 	bl	80023b0 <HAL_RCC_OscConfig>
 8006344:	4603      	mov	r3, r0
 8006346:	2b00      	cmp	r3, #0
 8006348:	bf14      	ite	ne
 800634a:	2301      	movne	r3, #1
 800634c:	2300      	moveq	r3, #0
 800634e:	b2db      	uxtb	r3, r3
 8006350:	2b00      	cmp	r3, #0
 8006352:	d001      	beq.n	8006358 <_Z18SystemClock_Configv+0x8c>
  {
    Error_Handler();
 8006354:	f000 fd3c 	bl	8006dd0 <Error_Handler>
  }
  /** Initializes the CPU, AHB and APB busses clocks 
  */
  RCC_ClkInitStruct.ClockType = RCC_CLOCKTYPE_HCLK|RCC_CLOCKTYPE_SYSCLK
 8006358:	230f      	movs	r3, #15
 800635a:	f8c7 3088 	str.w	r3, [r7, #136]	; 0x88
                              |RCC_CLOCKTYPE_PCLK1|RCC_CLOCKTYPE_PCLK2;
  RCC_ClkInitStruct.SYSCLKSource = RCC_SYSCLKSOURCE_PLLCLK;
 800635e:	2303      	movs	r3, #3
 8006360:	f8c7 308c 	str.w	r3, [r7, #140]	; 0x8c
  RCC_ClkInitStruct.AHBCLKDivider = RCC_SYSCLK_DIV1;
 8006364:	2300      	movs	r3, #0
 8006366:	f8c7 3090 	str.w	r3, [r7, #144]	; 0x90
  RCC_ClkInitStruct.APB1CLKDivider = RCC_HCLK_DIV1;
 800636a:	2300      	movs	r3, #0
 800636c:	f8c7 3094 	str.w	r3, [r7, #148]	; 0x94
  RCC_ClkInitStruct.APB2CLKDivider = RCC_HCLK_DIV1;
 8006370:	2300      	movs	r3, #0
 8006372:	f8c7 3098 	str.w	r3, [r7, #152]	; 0x98

  if (HAL_RCC_ClockConfig(&RCC_ClkInitStruct, FLASH_LATENCY_4) != HAL_OK)
 8006376:	f107 0388 	add.w	r3, r7, #136	; 0x88
 800637a:	2104      	movs	r1, #4
 800637c:	4618      	mov	r0, r3
 800637e:	f7fc fa9d 	bl	80028bc <HAL_RCC_ClockConfig>
 8006382:	4603      	mov	r3, r0
 8006384:	2b00      	cmp	r3, #0
 8006386:	bf14      	ite	ne
 8006388:	2301      	movne	r3, #1
 800638a:	2300      	moveq	r3, #0
 800638c:	b2db      	uxtb	r3, r3
 800638e:	2b00      	cmp	r3, #0
 8006390:	d001      	beq.n	8006396 <_Z18SystemClock_Configv+0xca>
  {
    Error_Handler();
 8006392:	f000 fd1d 	bl	8006dd0 <Error_Handler>
  }
  PeriphClkInit.PeriphClockSelection = RCC_PERIPHCLK_USART2|RCC_PERIPHCLK_USART3;
 8006396:	2306      	movs	r3, #6
 8006398:	603b      	str	r3, [r7, #0]
  PeriphClkInit.Usart2ClockSelection = RCC_USART2CLKSOURCE_PCLK1;
 800639a:	2300      	movs	r3, #0
 800639c:	63fb      	str	r3, [r7, #60]	; 0x3c
  PeriphClkInit.Usart3ClockSelection = RCC_USART3CLKSOURCE_PCLK1;
 800639e:	2300      	movs	r3, #0
 80063a0:	643b      	str	r3, [r7, #64]	; 0x40
  if (HAL_RCCEx_PeriphCLKConfig(&PeriphClkInit) != HAL_OK)
 80063a2:	463b      	mov	r3, r7
 80063a4:	4618      	mov	r0, r3
 80063a6:	f7fc fc6d 	bl	8002c84 <HAL_RCCEx_PeriphCLKConfig>
 80063aa:	4603      	mov	r3, r0
 80063ac:	2b00      	cmp	r3, #0
 80063ae:	bf14      	ite	ne
 80063b0:	2301      	movne	r3, #1
 80063b2:	2300      	moveq	r3, #0
 80063b4:	b2db      	uxtb	r3, r3
 80063b6:	2b00      	cmp	r3, #0
 80063b8:	d001      	beq.n	80063be <_Z18SystemClock_Configv+0xf2>
  {
    Error_Handler();
 80063ba:	f000 fd09 	bl	8006dd0 <Error_Handler>
  }
  /** Configure the main internal regulator output voltage 
  */
  if (HAL_PWREx_ControlVoltageScaling(PWR_REGULATOR_VOLTAGE_SCALE1) != HAL_OK)
 80063be:	f44f 7000 	mov.w	r0, #512	; 0x200
 80063c2:	f7fb ff2f 	bl	8002224 <HAL_PWREx_ControlVoltageScaling>
 80063c6:	4603      	mov	r3, r0
 80063c8:	2b00      	cmp	r3, #0
 80063ca:	bf14      	ite	ne
 80063cc:	2301      	movne	r3, #1
 80063ce:	2300      	moveq	r3, #0
 80063d0:	b2db      	uxtb	r3, r3
 80063d2:	2b00      	cmp	r3, #0
 80063d4:	d001      	beq.n	80063da <_Z18SystemClock_Configv+0x10e>
  {
    Error_Handler();
 80063d6:	f000 fcfb 	bl	8006dd0 <Error_Handler>
  }
}
 80063da:	bf00      	nop
 80063dc:	37e0      	adds	r7, #224	; 0xe0
 80063de:	46bd      	mov	sp, r7
 80063e0:	bd80      	pop	{r7, pc}
	...

080063e4 <_ZL19MX_USART3_UART_Initv>:
  * @brief USART3 Initialization Function
  * @param None
  * @retval None
  */
static void MX_USART3_UART_Init(void)
{
 80063e4:	b580      	push	{r7, lr}
 80063e6:	af00      	add	r7, sp, #0
  /* USER CODE END USART3_Init 0 */

  /* USER CODE BEGIN USART3_Init 1 */

  /* USER CODE END USART3_Init 1 */
  huart3.Instance = USART3;
 80063e8:	4b16      	ldr	r3, [pc, #88]	; (8006444 <_ZL19MX_USART3_UART_Initv+0x60>)
 80063ea:	4a17      	ldr	r2, [pc, #92]	; (8006448 <_ZL19MX_USART3_UART_Initv+0x64>)
 80063ec:	601a      	str	r2, [r3, #0]

  //dla RPi
  huart3.Init.BaudRate = 115200;
 80063ee:	4b15      	ldr	r3, [pc, #84]	; (8006444 <_ZL19MX_USART3_UART_Initv+0x60>)
 80063f0:	f44f 32e1 	mov.w	r2, #115200	; 0x1c200
 80063f4:	605a      	str	r2, [r3, #4]
//  huart3.Init.BaudRate = 9600;
  huart3.Init.WordLength = UART_WORDLENGTH_8B;
 80063f6:	4b13      	ldr	r3, [pc, #76]	; (8006444 <_ZL19MX_USART3_UART_Initv+0x60>)
 80063f8:	2200      	movs	r2, #0
 80063fa:	609a      	str	r2, [r3, #8]
  huart3.Init.StopBits = UART_STOPBITS_1;
 80063fc:	4b11      	ldr	r3, [pc, #68]	; (8006444 <_ZL19MX_USART3_UART_Initv+0x60>)
 80063fe:	2200      	movs	r2, #0
 8006400:	60da      	str	r2, [r3, #12]
  huart3.Init.Parity = UART_PARITY_NONE;
 8006402:	4b10      	ldr	r3, [pc, #64]	; (8006444 <_ZL19MX_USART3_UART_Initv+0x60>)
 8006404:	2200      	movs	r2, #0
 8006406:	611a      	str	r2, [r3, #16]
  huart3.Init.Mode = UART_MODE_TX_RX;
 8006408:	4b0e      	ldr	r3, [pc, #56]	; (8006444 <_ZL19MX_USART3_UART_Initv+0x60>)
 800640a:	220c      	movs	r2, #12
 800640c:	615a      	str	r2, [r3, #20]
  huart3.Init.HwFlowCtl = UART_HWCONTROL_NONE;
 800640e:	4b0d      	ldr	r3, [pc, #52]	; (8006444 <_ZL19MX_USART3_UART_Initv+0x60>)
 8006410:	2200      	movs	r2, #0
 8006412:	619a      	str	r2, [r3, #24]
  huart3.Init.OverSampling = UART_OVERSAMPLING_16;
 8006414:	4b0b      	ldr	r3, [pc, #44]	; (8006444 <_ZL19MX_USART3_UART_Initv+0x60>)
 8006416:	2200      	movs	r2, #0
 8006418:	61da      	str	r2, [r3, #28]
  huart3.Init.OneBitSampling = UART_ONE_BIT_SAMPLE_DISABLE;
 800641a:	4b0a      	ldr	r3, [pc, #40]	; (8006444 <_ZL19MX_USART3_UART_Initv+0x60>)
 800641c:	2200      	movs	r2, #0
 800641e:	621a      	str	r2, [r3, #32]
  huart3.AdvancedInit.AdvFeatureInit = UART_ADVFEATURE_NO_INIT;
 8006420:	4b08      	ldr	r3, [pc, #32]	; (8006444 <_ZL19MX_USART3_UART_Initv+0x60>)
 8006422:	2200      	movs	r2, #0
 8006424:	625a      	str	r2, [r3, #36]	; 0x24
  if (HAL_UART_Init(&huart3) != HAL_OK)
 8006426:	4807      	ldr	r0, [pc, #28]	; (8006444 <_ZL19MX_USART3_UART_Initv+0x60>)
 8006428:	f7fd fc0d 	bl	8003c46 <HAL_UART_Init>
 800642c:	4603      	mov	r3, r0
 800642e:	2b00      	cmp	r3, #0
 8006430:	bf14      	ite	ne
 8006432:	2301      	movne	r3, #1
 8006434:	2300      	moveq	r3, #0
 8006436:	b2db      	uxtb	r3, r3
 8006438:	2b00      	cmp	r3, #0
 800643a:	d001      	beq.n	8006440 <_ZL19MX_USART3_UART_Initv+0x5c>
  {
    Error_Handler();
 800643c:	f000 fcc8 	bl	8006dd0 <Error_Handler>
  }
  /* USER CODE BEGIN USART3_Init 2 */

  /* USER CODE END USART3_Init 2 */

}
 8006440:	bf00      	nop
 8006442:	bd80      	pop	{r7, pc}
 8006444:	200006ac 	.word	0x200006ac
 8006448:	40004800 	.word	0x40004800

0800644c <_ZL12MX_GPIO_Initv>:
  * @brief GPIO Initialization Function
  * @param None
  * @retval None
  */
static void MX_GPIO_Init(void)
{
 800644c:	b580      	push	{r7, lr}
 800644e:	b08a      	sub	sp, #40	; 0x28
 8006450:	af00      	add	r7, sp, #0
  GPIO_InitTypeDef GPIO_InitStruct = {0};
 8006452:	f107 0314 	add.w	r3, r7, #20
 8006456:	2200      	movs	r2, #0
 8006458:	601a      	str	r2, [r3, #0]
 800645a:	605a      	str	r2, [r3, #4]
 800645c:	609a      	str	r2, [r3, #8]
 800645e:	60da      	str	r2, [r3, #12]
 8006460:	611a      	str	r2, [r3, #16]

  /* GPIO Ports Clock Enable */
  __HAL_RCC_GPIOC_CLK_ENABLE();
 8006462:	4a3a      	ldr	r2, [pc, #232]	; (800654c <_ZL12MX_GPIO_Initv+0x100>)
 8006464:	4b39      	ldr	r3, [pc, #228]	; (800654c <_ZL12MX_GPIO_Initv+0x100>)
 8006466:	6cdb      	ldr	r3, [r3, #76]	; 0x4c
 8006468:	f043 0304 	orr.w	r3, r3, #4
 800646c:	64d3      	str	r3, [r2, #76]	; 0x4c
 800646e:	4b37      	ldr	r3, [pc, #220]	; (800654c <_ZL12MX_GPIO_Initv+0x100>)
 8006470:	6cdb      	ldr	r3, [r3, #76]	; 0x4c
 8006472:	f003 0304 	and.w	r3, r3, #4
 8006476:	613b      	str	r3, [r7, #16]
 8006478:	693b      	ldr	r3, [r7, #16]
  __HAL_RCC_GPIOH_CLK_ENABLE();
 800647a:	4a34      	ldr	r2, [pc, #208]	; (800654c <_ZL12MX_GPIO_Initv+0x100>)
 800647c:	4b33      	ldr	r3, [pc, #204]	; (800654c <_ZL12MX_GPIO_Initv+0x100>)
 800647e:	6cdb      	ldr	r3, [r3, #76]	; 0x4c
 8006480:	f043 0380 	orr.w	r3, r3, #128	; 0x80
 8006484:	64d3      	str	r3, [r2, #76]	; 0x4c
 8006486:	4b31      	ldr	r3, [pc, #196]	; (800654c <_ZL12MX_GPIO_Initv+0x100>)
 8006488:	6cdb      	ldr	r3, [r3, #76]	; 0x4c
 800648a:	f003 0380 	and.w	r3, r3, #128	; 0x80
 800648e:	60fb      	str	r3, [r7, #12]
 8006490:	68fb      	ldr	r3, [r7, #12]
  __HAL_RCC_GPIOA_CLK_ENABLE();
 8006492:	4a2e      	ldr	r2, [pc, #184]	; (800654c <_ZL12MX_GPIO_Initv+0x100>)
 8006494:	4b2d      	ldr	r3, [pc, #180]	; (800654c <_ZL12MX_GPIO_Initv+0x100>)
 8006496:	6cdb      	ldr	r3, [r3, #76]	; 0x4c
 8006498:	f043 0301 	orr.w	r3, r3, #1
 800649c:	64d3      	str	r3, [r2, #76]	; 0x4c
 800649e:	4b2b      	ldr	r3, [pc, #172]	; (800654c <_ZL12MX_GPIO_Initv+0x100>)
 80064a0:	6cdb      	ldr	r3, [r3, #76]	; 0x4c
 80064a2:	f003 0301 	and.w	r3, r3, #1
 80064a6:	60bb      	str	r3, [r7, #8]
 80064a8:	68bb      	ldr	r3, [r7, #8]
  __HAL_RCC_GPIOB_CLK_ENABLE();
 80064aa:	4a28      	ldr	r2, [pc, #160]	; (800654c <_ZL12MX_GPIO_Initv+0x100>)
 80064ac:	4b27      	ldr	r3, [pc, #156]	; (800654c <_ZL12MX_GPIO_Initv+0x100>)
 80064ae:	6cdb      	ldr	r3, [r3, #76]	; 0x4c
 80064b0:	f043 0302 	orr.w	r3, r3, #2
 80064b4:	64d3      	str	r3, [r2, #76]	; 0x4c
 80064b6:	4b25      	ldr	r3, [pc, #148]	; (800654c <_ZL12MX_GPIO_Initv+0x100>)
 80064b8:	6cdb      	ldr	r3, [r3, #76]	; 0x4c
 80064ba:	f003 0302 	and.w	r3, r3, #2
 80064be:	607b      	str	r3, [r7, #4]
 80064c0:	687b      	ldr	r3, [r7, #4]

  /*Configure GPIO pin Output Level */
  HAL_GPIO_WritePin(GPIOA, GPIO_PIN_1|LD2_Pin|GPIO_PIN_8, GPIO_PIN_RESET);
 80064c2:	2200      	movs	r2, #0
 80064c4:	f44f 7191 	mov.w	r1, #290	; 0x122
 80064c8:	f04f 4090 	mov.w	r0, #1207959552	; 0x48000000
 80064cc:	f7fb fe9c 	bl	8002208 <HAL_GPIO_WritePin>

  /*Configure GPIO pin : B1_Pin */
  GPIO_InitStruct.Pin = B1_Pin;
 80064d0:	f44f 5300 	mov.w	r3, #8192	; 0x2000
 80064d4:	617b      	str	r3, [r7, #20]
  GPIO_InitStruct.Mode = GPIO_MODE_IT_FALLING;
 80064d6:	4b1e      	ldr	r3, [pc, #120]	; (8006550 <_ZL12MX_GPIO_Initv+0x104>)
 80064d8:	61bb      	str	r3, [r7, #24]
  GPIO_InitStruct.Pull = GPIO_NOPULL;
 80064da:	2300      	movs	r3, #0
 80064dc:	61fb      	str	r3, [r7, #28]
  HAL_GPIO_Init(B1_GPIO_Port, &GPIO_InitStruct);
 80064de:	f107 0314 	add.w	r3, r7, #20
 80064e2:	4619      	mov	r1, r3
 80064e4:	481b      	ldr	r0, [pc, #108]	; (8006554 <_ZL12MX_GPIO_Initv+0x108>)
 80064e6:	f7fb fd23 	bl	8001f30 <HAL_GPIO_Init>

  /*Configure GPIO pin : PA0 */
  GPIO_InitStruct.Pin = GPIO_PIN_0;
 80064ea:	2301      	movs	r3, #1
 80064ec:	617b      	str	r3, [r7, #20]
  GPIO_InitStruct.Mode = GPIO_MODE_IT_RISING;
 80064ee:	4b1a      	ldr	r3, [pc, #104]	; (8006558 <_ZL12MX_GPIO_Initv+0x10c>)
 80064f0:	61bb      	str	r3, [r7, #24]
  GPIO_InitStruct.Pull = GPIO_NOPULL;
 80064f2:	2300      	movs	r3, #0
 80064f4:	61fb      	str	r3, [r7, #28]
  HAL_GPIO_Init(GPIOA, &GPIO_InitStruct);
 80064f6:	f107 0314 	add.w	r3, r7, #20
 80064fa:	4619      	mov	r1, r3
 80064fc:	f04f 4090 	mov.w	r0, #1207959552	; 0x48000000
 8006500:	f7fb fd16 	bl	8001f30 <HAL_GPIO_Init>

  /*Configure GPIO pins : PA1 LD2_Pin PA8 */
  GPIO_InitStruct.Pin = GPIO_PIN_1|LD2_Pin|GPIO_PIN_8;
 8006504:	f44f 7391 	mov.w	r3, #290	; 0x122
 8006508:	617b      	str	r3, [r7, #20]
  GPIO_InitStruct.Mode = GPIO_MODE_OUTPUT_PP;
 800650a:	2301      	movs	r3, #1
 800650c:	61bb      	str	r3, [r7, #24]
  GPIO_InitStruct.Pull = GPIO_NOPULL;
 800650e:	2300      	movs	r3, #0
 8006510:	61fb      	str	r3, [r7, #28]
  GPIO_InitStruct.Speed = GPIO_SPEED_FREQ_LOW;
 8006512:	2300      	movs	r3, #0
 8006514:	623b      	str	r3, [r7, #32]
  HAL_GPIO_Init(GPIOA, &GPIO_InitStruct);
 8006516:	f107 0314 	add.w	r3, r7, #20
 800651a:	4619      	mov	r1, r3
 800651c:	f04f 4090 	mov.w	r0, #1207959552	; 0x48000000
 8006520:	f7fb fd06 	bl	8001f30 <HAL_GPIO_Init>

  /* EXTI interrupt init*/
  HAL_NVIC_SetPriority(EXTI0_IRQn, 0, 0);
 8006524:	2200      	movs	r2, #0
 8006526:	2100      	movs	r1, #0
 8006528:	2006      	movs	r0, #6
 800652a:	f7fb fc9b 	bl	8001e64 <HAL_NVIC_SetPriority>
  HAL_NVIC_EnableIRQ(EXTI0_IRQn);
 800652e:	2006      	movs	r0, #6
 8006530:	f7fb fccc 	bl	8001ecc <HAL_NVIC_EnableIRQ>

  HAL_NVIC_SetPriority(EXTI15_10_IRQn, 5, 0);
 8006534:	2200      	movs	r2, #0
 8006536:	2105      	movs	r1, #5
 8006538:	2028      	movs	r0, #40	; 0x28
 800653a:	f7fb fc93 	bl	8001e64 <HAL_NVIC_SetPriority>
  HAL_NVIC_EnableIRQ(EXTI15_10_IRQn);
 800653e:	2028      	movs	r0, #40	; 0x28
 8006540:	f7fb fcc4 	bl	8001ecc <HAL_NVIC_EnableIRQ>

}
 8006544:	bf00      	nop
 8006546:	3728      	adds	r7, #40	; 0x28
 8006548:	46bd      	mov	sp, r7
 800654a:	bd80      	pop	{r7, pc}
 800654c:	40021000 	.word	0x40021000
 8006550:	10210000 	.word	0x10210000
 8006554:	48000800 	.word	0x48000800
 8006558:	10110000 	.word	0x10110000

0800655c <_Z16StartDefaultTaskPKv>:
  * @param  argument: Not used 
  * @retval None
  */
/* USER CODE END Header_StartDefaultTask */
void StartDefaultTask(void const * argument)
{
 800655c:	b580      	push	{r7, lr}
 800655e:	b082      	sub	sp, #8
 8006560:	af00      	add	r7, sp, #0
 8006562:	6078      	str	r0, [r7, #4]
  /* USER CODE BEGIN 5 */
  /* Infinite loop */
  for(;;)
  {
	  if(client_ready){
 8006564:	4b07      	ldr	r3, [pc, #28]	; (8006584 <_Z16StartDefaultTaskPKv+0x28>)
 8006566:	781b      	ldrb	r3, [r3, #0]
 8006568:	b2db      	uxtb	r3, r3
 800656a:	2b00      	cmp	r3, #0
 800656c:	d007      	beq.n	800657e <_Z16StartDefaultTaskPKv+0x22>
		  //Wyslij sygnal do taska odczytu ze powinien teraz sie uruchomic
		  xTaskNotify(askForDataTaskHandle, 0x01, eSetBits);
 800656e:	4b06      	ldr	r3, [pc, #24]	; (8006588 <_Z16StartDefaultTaskPKv+0x2c>)
 8006570:	6818      	ldr	r0, [r3, #0]
 8006572:	2300      	movs	r3, #0
 8006574:	2201      	movs	r2, #1
 8006576:	2101      	movs	r1, #1
 8006578:	f7ff fb3a 	bl	8005bf0 <xTaskGenericNotify>
 800657c:	e7f2      	b.n	8006564 <_Z16StartDefaultTaskPKv+0x8>
	  }
	  else {
	  	  MX_BlueNRG_MS_Process();
 800657e:	f7ff fc47 	bl	8005e10 <MX_BlueNRG_MS_Process>
	  if(client_ready){
 8006582:	e7ef      	b.n	8006564 <_Z16StartDefaultTaskPKv+0x8>
 8006584:	200042a3 	.word	0x200042a3
 8006588:	20000730 	.word	0x20000730

0800658c <_Z20AskForDataTaskThreadPKv>:
  /* USER CODE END 5 */ 
}

/* USER CODE BEGIN 6 */
void AskForDataTaskThread(void const * argument)
{
 800658c:	b580      	push	{r7, lr}
 800658e:	b084      	sub	sp, #16
 8006590:	af00      	add	r7, sp, #0
 8006592:	6078      	str	r0, [r7, #4]
	/* Podejscie: trzy taski - supervisor -> odczyt -> prezentacja: task odczytu danych */
	uint32_t notifValue;
	/* Infinite loop */
	for(;;)
	{
		xTaskNotifyWait(pdFALSE, 0xFF, &notifValue, portMAX_DELAY);
 8006594:	f107 020c 	add.w	r2, r7, #12
 8006598:	f04f 33ff 	mov.w	r3, #4294967295
 800659c:	21ff      	movs	r1, #255	; 0xff
 800659e:	2000      	movs	r0, #0
 80065a0:	f7ff fae0 	bl	8005b64 <xTaskNotifyWait>
		if((notifValue&0x01) != 0x00) //Sprawdza czy notifValue zawiera wartosc ktora wyslal task supervisora
 80065a4:	68fb      	ldr	r3, [r7, #12]
 80065a6:	f003 0301 	and.w	r3, r3, #1
 80065aa:	2b00      	cmp	r3, #0
 80065ac:	d0f2      	beq.n	8006594 <_Z20AskForDataTaskThreadPKv+0x8>
		{
		  //prymitywne wyslanie danych konfiguracji (docelowo bedzie do tego interfejs)
		  //chyba juz tu powinno byc wskazane do ktorego servera ma trafic konf.
		  //!zwrocic uwage na delay glownego taska i wartosc countera!
		  if(counter == UINT16_MAX/16){
 80065ae:	4b1e      	ldr	r3, [pc, #120]	; (8006628 <_Z20AskForDataTaskThreadPKv+0x9c>)
 80065b0:	881b      	ldrh	r3, [r3, #0]
 80065b2:	f640 72ff 	movw	r2, #4095	; 0xfff
 80065b6:	4293      	cmp	r3, r2
 80065b8:	d104      	bne.n	80065c4 <_Z20AskForDataTaskThreadPKv+0x38>
			  prepareNewConfig(DHT22, 4, (uint8_t *)"Pokoj");
 80065ba:	4a1c      	ldr	r2, [pc, #112]	; (800662c <_Z20AskForDataTaskThreadPKv+0xa0>)
 80065bc:	2104      	movs	r1, #4
 80065be:	2000      	movs	r0, #0
 80065c0:	f000 f888 	bl	80066d4 <_Z16prepareNewConfightPh>
		  }
		  if(counter == UINT16_MAX/8){
 80065c4:	4b18      	ldr	r3, [pc, #96]	; (8006628 <_Z20AskForDataTaskThreadPKv+0x9c>)
 80065c6:	881b      	ldrh	r3, [r3, #0]
 80065c8:	f641 72ff 	movw	r2, #8191	; 0x1fff
 80065cc:	4293      	cmp	r3, r2
 80065ce:	d104      	bne.n	80065da <_Z20AskForDataTaskThreadPKv+0x4e>
			  prepareNewConfig(DHT22, 5, (uint8_t *)"Kuchnia");
 80065d0:	4a17      	ldr	r2, [pc, #92]	; (8006630 <_Z20AskForDataTaskThreadPKv+0xa4>)
 80065d2:	2105      	movs	r1, #5
 80065d4:	2000      	movs	r0, #0
 80065d6:	f000 f87d 	bl	80066d4 <_Z16prepareNewConfightPh>
		  }
		  //uwazac zeby tylko raz wysylac pozadana konfiguracje - a nie w petli co przepelnienie wartosci countera!
		  if(counter <= UINT16_MAX/8){
 80065da:	4b13      	ldr	r3, [pc, #76]	; (8006628 <_Z20AskForDataTaskThreadPKv+0x9c>)
 80065dc:	881b      	ldrh	r3, [r3, #0]
 80065de:	f5b3 5f00 	cmp.w	r3, #8192	; 0x2000
 80065e2:	da05      	bge.n	80065f0 <_Z20AskForDataTaskThreadPKv+0x64>
			  counter++;
 80065e4:	4b10      	ldr	r3, [pc, #64]	; (8006628 <_Z20AskForDataTaskThreadPKv+0x9c>)
 80065e6:	881b      	ldrh	r3, [r3, #0]
 80065e8:	3301      	adds	r3, #1
 80065ea:	b29a      	uxth	r2, r3
 80065ec:	4b0e      	ldr	r3, [pc, #56]	; (8006628 <_Z20AskForDataTaskThreadPKv+0x9c>)
 80065ee:	801a      	strh	r2, [r3, #0]
		  }

	      MX_BlueNRG_MS_Process();
 80065f0:	f7ff fc0e 	bl	8005e10 <MX_BlueNRG_MS_Process>

	      //!
	      xSemaphoreTake(newDataMutexHandle, DELAY_TIME);
 80065f4:	4b0f      	ldr	r3, [pc, #60]	; (8006634 <_Z20AskForDataTaskThreadPKv+0xa8>)
 80065f6:	681b      	ldr	r3, [r3, #0]
 80065f8:	f640 31b8 	movw	r1, #3000	; 0xbb8
 80065fc:	4618      	mov	r0, r3
 80065fe:	f7fe fcd7 	bl	8004fb0 <xQueueSemaphoreTake>
	      if(newData){ //uruchom task prezentacji tylko wtedy, gdy przyjda nowe dane
 8006602:	4b0d      	ldr	r3, [pc, #52]	; (8006638 <_Z20AskForDataTaskThreadPKv+0xac>)
 8006604:	781b      	ldrb	r3, [r3, #0]
 8006606:	2b00      	cmp	r3, #0
 8006608:	d006      	beq.n	8006618 <_Z20AskForDataTaskThreadPKv+0x8c>
	       	  //Wyslij sygnal do taska od prezentacji ze powinien teraz sie uruchomic
	    	  xTaskNotify(presentationTaskHandle, 0x02, eSetBits);
 800660a:	4b0c      	ldr	r3, [pc, #48]	; (800663c <_Z20AskForDataTaskThreadPKv+0xb0>)
 800660c:	6818      	ldr	r0, [r3, #0]
 800660e:	2300      	movs	r3, #0
 8006610:	2201      	movs	r2, #1
 8006612:	2102      	movs	r1, #2
 8006614:	f7ff faec 	bl	8005bf0 <xTaskGenericNotify>
	      }
	      xSemaphoreGive(newDataMutexHandle);
 8006618:	4b06      	ldr	r3, [pc, #24]	; (8006634 <_Z20AskForDataTaskThreadPKv+0xa8>)
 800661a:	6818      	ldr	r0, [r3, #0]
 800661c:	2300      	movs	r3, #0
 800661e:	2200      	movs	r2, #0
 8006620:	2100      	movs	r1, #0
 8006622:	f7fe fb55 	bl	8004cd0 <xQueueGenericSend>
		xTaskNotifyWait(pdFALSE, 0xFF, &notifValue, portMAX_DELAY);
 8006626:	e7b5      	b.n	8006594 <_Z20AskForDataTaskThreadPKv+0x8>
 8006628:	20000748 	.word	0x20000748
 800662c:	0800b7e4 	.word	0x0800b7e4
 8006630:	0800b7ec 	.word	0x0800b7ec
 8006634:	20000740 	.word	0x20000740
 8006638:	2000074a 	.word	0x2000074a
 800663c:	20000734 	.word	0x20000734

08006640 <_Z22PresentationTaskThreadPKv>:
		}
	}
}

void PresentationTaskThread(void const * argument)
{
 8006640:	b580      	push	{r7, lr}
 8006642:	b084      	sub	sp, #16
 8006644:	af00      	add	r7, sp, #0
 8006646:	6078      	str	r0, [r7, #4]
	uint32_t notifValue;
	/* Infinite loop */
	for(;;)
	{
		//Czekaj na sygnal od taska odczytu
		xTaskNotifyWait(pdFALSE, 0xFF, &notifValue, portMAX_DELAY);
 8006648:	f107 020c 	add.w	r2, r7, #12
 800664c:	f04f 33ff 	mov.w	r3, #4294967295
 8006650:	21ff      	movs	r1, #255	; 0xff
 8006652:	2000      	movs	r0, #0
 8006654:	f7ff fa86 	bl	8005b64 <xTaskNotifyWait>
		if((notifValue&0x02) != 0x00) //Sprawdza czy notifValue zawiera wartosc ktora wyslal task odczytu
 8006658:	68fb      	ldr	r3, [r7, #12]
 800665a:	f003 0302 	and.w	r3, r3, #2
 800665e:	2b00      	cmp	r3, #0
 8006660:	d0f2      	beq.n	8006648 <_Z22PresentationTaskThreadPKv+0x8>
		{
			xSemaphoreTake(newDataMutexHandle, DELAY_TIME);
 8006662:	4b08      	ldr	r3, [pc, #32]	; (8006684 <_Z22PresentationTaskThreadPKv+0x44>)
 8006664:	681b      	ldr	r3, [r3, #0]
 8006666:	f640 31b8 	movw	r1, #3000	; 0xbb8
 800666a:	4618      	mov	r0, r3
 800666c:	f7fe fca0 	bl	8004fb0 <xQueueSemaphoreTake>
			printConnectedDevicesTree();
 8006670:	f000 f8f8 	bl	8006864 <_Z25printConnectedDevicesTreev>
			xSemaphoreGive(newDataMutexHandle);
 8006674:	4b03      	ldr	r3, [pc, #12]	; (8006684 <_Z22PresentationTaskThreadPKv+0x44>)
 8006676:	6818      	ldr	r0, [r3, #0]
 8006678:	2300      	movs	r3, #0
 800667a:	2200      	movs	r2, #0
 800667c:	2100      	movs	r1, #0
 800667e:	f7fe fb27 	bl	8004cd0 <xQueueGenericSend>
		xTaskNotifyWait(pdFALSE, 0xFF, &notifValue, portMAX_DELAY);
 8006682:	e7e1      	b.n	8006648 <_Z22PresentationTaskThreadPKv+0x8>
 8006684:	20000740 	.word	0x20000740

08006688 <_Z23CommunicationTaskThreadPKv>:
	}
}

//
void CommunicationTaskThread(void const * argument)
{
 8006688:	b580      	push	{r7, lr}
 800668a:	b090      	sub	sp, #64	; 0x40
 800668c:	af00      	add	r7, sp, #0
 800668e:	6078      	str	r0, [r7, #4]
	char receivedData[50];
	/* Infinite loop */
	for(;;)
	{
		xQueueReceive(msgQueueHandle, receivedData, DELAY_TIME); //delayTime?
 8006690:	4b0e      	ldr	r3, [pc, #56]	; (80066cc <_Z23CommunicationTaskThreadPKv+0x44>)
 8006692:	681b      	ldr	r3, [r3, #0]
 8006694:	f107 010c 	add.w	r1, r7, #12
 8006698:	f640 32b8 	movw	r2, #3000	; 0xbb8
 800669c:	4618      	mov	r0, r3
 800669e:	f7fe fbe3 	bl	8004e68 <xQueueReceive>
		xSemaphoreTake(uartMutexHandle, DELAY_TIME); //delayTime?
 80066a2:	4b0b      	ldr	r3, [pc, #44]	; (80066d0 <_Z23CommunicationTaskThreadPKv+0x48>)
 80066a4:	681b      	ldr	r3, [r3, #0]
 80066a6:	f640 31b8 	movw	r1, #3000	; 0xbb8
 80066aa:	4618      	mov	r0, r3
 80066ac:	f7fe fc80 	bl	8004fb0 <xQueueSemaphoreTake>
		printf(receivedData);
 80066b0:	f107 030c 	add.w	r3, r7, #12
 80066b4:	4618      	mov	r0, r3
 80066b6:	f001 fedf 	bl	8008478 <printf>
		xSemaphoreGive(uartMutexHandle);
 80066ba:	4b05      	ldr	r3, [pc, #20]	; (80066d0 <_Z23CommunicationTaskThreadPKv+0x48>)
 80066bc:	6818      	ldr	r0, [r3, #0]
 80066be:	2300      	movs	r3, #0
 80066c0:	2200      	movs	r2, #0
 80066c2:	2100      	movs	r1, #0
 80066c4:	f7fe fb04 	bl	8004cd0 <xQueueGenericSend>
		xQueueReceive(msgQueueHandle, receivedData, DELAY_TIME); //delayTime?
 80066c8:	e7e2      	b.n	8006690 <_Z23CommunicationTaskThreadPKv+0x8>
 80066ca:	bf00      	nop
 80066cc:	20000744 	.word	0x20000744
 80066d0:	2000073c 	.word	0x2000073c

080066d4 <_Z16prepareNewConfightPh>:
	for(uint32_t tmp = 0; tmp < loopCounter; tmp++) {asm("nop");}
	//previously there was tmp < 800 giving 3200 processor cycles, each lasting 12.5 ns = 40 us delay
	//UINT_MAX	Maximum value for a variable of type unsigned int	4,294,967,295 (0xffffffff)
}

void prepareNewConfig(uint8_t sensorType, uint16_t interval, uint8_t *name){
 80066d4:	b580      	push	{r7, lr}
 80066d6:	b084      	sub	sp, #16
 80066d8:	af00      	add	r7, sp, #0
 80066da:	4603      	mov	r3, r0
 80066dc:	603a      	str	r2, [r7, #0]
 80066de:	71fb      	strb	r3, [r7, #7]
 80066e0:	460b      	mov	r3, r1
 80066e2:	80bb      	strh	r3, [r7, #4]
	/* Format wiadomosci: <typ_sensora:1B> <interwal:2B> <nazwa:max.14B> */
	int i=0;
 80066e4:	2300      	movs	r3, #0
 80066e6:	60fb      	str	r3, [r7, #12]
	memset(sentConfigurationMsg, 0x0, sizeof(sentConfigurationMsg));
 80066e8:	2214      	movs	r2, #20
 80066ea:	2100      	movs	r1, #0
 80066ec:	4847      	ldr	r0, [pc, #284]	; (800680c <_Z16prepareNewConfightPh+0x138>)
 80066ee:	f001 feae 	bl	800844e <memset>
	sentConfigurationMsg[0] = sensorType;
 80066f2:	4a46      	ldr	r2, [pc, #280]	; (800680c <_Z16prepareNewConfightPh+0x138>)
 80066f4:	79fb      	ldrb	r3, [r7, #7]
 80066f6:	7013      	strb	r3, [r2, #0]
	sentConfigurationMsg[1] = interval/256;
 80066f8:	88bb      	ldrh	r3, [r7, #4]
 80066fa:	0a1b      	lsrs	r3, r3, #8
 80066fc:	b29b      	uxth	r3, r3
 80066fe:	b2da      	uxtb	r2, r3
 8006700:	4b42      	ldr	r3, [pc, #264]	; (800680c <_Z16prepareNewConfightPh+0x138>)
 8006702:	705a      	strb	r2, [r3, #1]
	sentConfigurationMsg[2] = interval%256;
 8006704:	88bb      	ldrh	r3, [r7, #4]
 8006706:	b2da      	uxtb	r2, r3
 8006708:	4b40      	ldr	r3, [pc, #256]	; (800680c <_Z16prepareNewConfightPh+0x138>)
 800670a:	709a      	strb	r2, [r3, #2]
	for(i=3; name[i-3] != '\0' && i<MSG_LEN; i++){
 800670c:	2303      	movs	r3, #3
 800670e:	60fb      	str	r3, [r7, #12]
 8006710:	68fb      	ldr	r3, [r7, #12]
 8006712:	3b03      	subs	r3, #3
 8006714:	683a      	ldr	r2, [r7, #0]
 8006716:	4413      	add	r3, r2
 8006718:	781b      	ldrb	r3, [r3, #0]
 800671a:	2b00      	cmp	r3, #0
 800671c:	d010      	beq.n	8006740 <_Z16prepareNewConfightPh+0x6c>
 800671e:	68fb      	ldr	r3, [r7, #12]
 8006720:	2b13      	cmp	r3, #19
 8006722:	dc0d      	bgt.n	8006740 <_Z16prepareNewConfightPh+0x6c>
		sentConfigurationMsg[i] = name[i-3];
 8006724:	68fb      	ldr	r3, [r7, #12]
 8006726:	3b03      	subs	r3, #3
 8006728:	683a      	ldr	r2, [r7, #0]
 800672a:	4413      	add	r3, r2
 800672c:	7819      	ldrb	r1, [r3, #0]
 800672e:	4a37      	ldr	r2, [pc, #220]	; (800680c <_Z16prepareNewConfightPh+0x138>)
 8006730:	68fb      	ldr	r3, [r7, #12]
 8006732:	4413      	add	r3, r2
 8006734:	460a      	mov	r2, r1
 8006736:	701a      	strb	r2, [r3, #0]
	for(i=3; name[i-3] != '\0' && i<MSG_LEN; i++){
 8006738:	68fb      	ldr	r3, [r7, #12]
 800673a:	3301      	adds	r3, #1
 800673c:	60fb      	str	r3, [r7, #12]
 800673e:	e7e7      	b.n	8006710 <_Z16prepareNewConfightPh+0x3c>
	}
	if(i < MSG_LEN){
 8006740:	68fb      	ldr	r3, [r7, #12]
 8006742:	2b13      	cmp	r3, #19
 8006744:	dc04      	bgt.n	8006750 <_Z16prepareNewConfightPh+0x7c>
		sentConfigurationMsg[i] = '\0';
 8006746:	4a31      	ldr	r2, [pc, #196]	; (800680c <_Z16prepareNewConfightPh+0x138>)
 8006748:	68fb      	ldr	r3, [r7, #12]
 800674a:	4413      	add	r3, r2
 800674c:	2200      	movs	r2, #0
 800674e:	701a      	strb	r2, [r3, #0]
	}
	newConfig = true;
 8006750:	4b2f      	ldr	r3, [pc, #188]	; (8006810 <_Z16prepareNewConfightPh+0x13c>)
 8006752:	2201      	movs	r2, #1
 8006754:	701a      	strb	r2, [r3, #0]
	//wpisywanie do foundDevices informacji o nowo wyslanym czujniku TODO wysylka do konkretnego servera
    uint8_t connSensorsCnt = foundDevices[whichServerReceivesConfiguration].connSensorsCount;
 8006756:	4b2f      	ldr	r3, [pc, #188]	; (8006814 <_Z16prepareNewConfightPh+0x140>)
 8006758:	781b      	ldrb	r3, [r3, #0]
 800675a:	4619      	mov	r1, r3
 800675c:	4a2e      	ldr	r2, [pc, #184]	; (8006818 <_Z16prepareNewConfightPh+0x144>)
 800675e:	23b8      	movs	r3, #184	; 0xb8
 8006760:	fb03 f301 	mul.w	r3, r3, r1
 8006764:	4413      	add	r3, r2
 8006766:	3316      	adds	r3, #22
 8006768:	781b      	ldrb	r3, [r3, #0]
 800676a:	72fb      	strb	r3, [r7, #11]
	memcpy(foundDevices[whichServerReceivesConfiguration].connSensors[connSensorsCnt].sensorName, name, i-3);
 800676c:	4b29      	ldr	r3, [pc, #164]	; (8006814 <_Z16prepareNewConfightPh+0x140>)
 800676e:	781b      	ldrb	r3, [r3, #0]
 8006770:	4619      	mov	r1, r3
 8006772:	7afa      	ldrb	r2, [r7, #11]
 8006774:	4613      	mov	r3, r2
 8006776:	009b      	lsls	r3, r3, #2
 8006778:	4413      	add	r3, r2
 800677a:	009b      	lsls	r3, r3, #2
 800677c:	22b8      	movs	r2, #184	; 0xb8
 800677e:	fb02 f201 	mul.w	r2, r2, r1
 8006782:	4413      	add	r3, r2
 8006784:	3318      	adds	r3, #24
 8006786:	4a24      	ldr	r2, [pc, #144]	; (8006818 <_Z16prepareNewConfightPh+0x144>)
 8006788:	1898      	adds	r0, r3, r2
 800678a:	68fb      	ldr	r3, [r7, #12]
 800678c:	3b03      	subs	r3, #3
 800678e:	461a      	mov	r2, r3
 8006790:	6839      	ldr	r1, [r7, #0]
 8006792:	f001 fe51 	bl	8008438 <memcpy>
	foundDevices[whichServerReceivesConfiguration].connSensors[connSensorsCnt].lastTempValue = 0.0F;
 8006796:	4b1f      	ldr	r3, [pc, #124]	; (8006814 <_Z16prepareNewConfightPh+0x140>)
 8006798:	781b      	ldrb	r3, [r3, #0]
 800679a:	4618      	mov	r0, r3
 800679c:	7afa      	ldrb	r2, [r7, #11]
 800679e:	491e      	ldr	r1, [pc, #120]	; (8006818 <_Z16prepareNewConfightPh+0x144>)
 80067a0:	4613      	mov	r3, r2
 80067a2:	009b      	lsls	r3, r3, #2
 80067a4:	4413      	add	r3, r2
 80067a6:	009b      	lsls	r3, r3, #2
 80067a8:	22b8      	movs	r2, #184	; 0xb8
 80067aa:	fb02 f200 	mul.w	r2, r2, r0
 80067ae:	4413      	add	r3, r2
 80067b0:	440b      	add	r3, r1
 80067b2:	3324      	adds	r3, #36	; 0x24
 80067b4:	f04f 0200 	mov.w	r2, #0
 80067b8:	601a      	str	r2, [r3, #0]
	foundDevices[whichServerReceivesConfiguration].connSensors[connSensorsCnt].lastHumidValue = 0.0F;
 80067ba:	4b16      	ldr	r3, [pc, #88]	; (8006814 <_Z16prepareNewConfightPh+0x140>)
 80067bc:	781b      	ldrb	r3, [r3, #0]
 80067be:	4618      	mov	r0, r3
 80067c0:	7afa      	ldrb	r2, [r7, #11]
 80067c2:	4915      	ldr	r1, [pc, #84]	; (8006818 <_Z16prepareNewConfightPh+0x144>)
 80067c4:	4613      	mov	r3, r2
 80067c6:	009b      	lsls	r3, r3, #2
 80067c8:	4413      	add	r3, r2
 80067ca:	009b      	lsls	r3, r3, #2
 80067cc:	22b8      	movs	r2, #184	; 0xb8
 80067ce:	fb02 f200 	mul.w	r2, r2, r0
 80067d2:	4413      	add	r3, r2
 80067d4:	440b      	add	r3, r1
 80067d6:	3328      	adds	r3, #40	; 0x28
 80067d8:	f04f 0200 	mov.w	r2, #0
 80067dc:	601a      	str	r2, [r3, #0]
	foundDevices[whichServerReceivesConfiguration].connSensorsCount++;
 80067de:	4b0d      	ldr	r3, [pc, #52]	; (8006814 <_Z16prepareNewConfightPh+0x140>)
 80067e0:	781b      	ldrb	r3, [r3, #0]
 80067e2:	490d      	ldr	r1, [pc, #52]	; (8006818 <_Z16prepareNewConfightPh+0x144>)
 80067e4:	22b8      	movs	r2, #184	; 0xb8
 80067e6:	fb02 f203 	mul.w	r2, r2, r3
 80067ea:	440a      	add	r2, r1
 80067ec:	3216      	adds	r2, #22
 80067ee:	7812      	ldrb	r2, [r2, #0]
 80067f0:	3201      	adds	r2, #1
 80067f2:	b2d0      	uxtb	r0, r2
 80067f4:	4a08      	ldr	r2, [pc, #32]	; (8006818 <_Z16prepareNewConfightPh+0x144>)
 80067f6:	21b8      	movs	r1, #184	; 0xb8
 80067f8:	fb01 f303 	mul.w	r3, r1, r3
 80067fc:	4413      	add	r3, r2
 80067fe:	3316      	adds	r3, #22
 8006800:	4602      	mov	r2, r0
 8006802:	701a      	strb	r2, [r3, #0]
}
 8006804:	bf00      	nop
 8006806:	3710      	adds	r7, #16
 8006808:	46bd      	mov	sp, r7
 800680a:	bd80      	pop	{r7, pc}
 800680c:	200007b4 	.word	0x200007b4
 8006810:	20000dce 	.word	0x20000dce
 8006814:	2000074e 	.word	0x2000074e
 8006818:	200007c8 	.word	0x200007c8

0800681c <_Z31checkIfTempSensorReadoutCorrectmh>:

bool checkIfTempSensorReadoutCorrect(uint32_t dataBits, uint8_t checksumBits){
 800681c:	b480      	push	{r7}
 800681e:	b085      	sub	sp, #20
 8006820:	af00      	add	r7, sp, #0
 8006822:	6078      	str	r0, [r7, #4]
 8006824:	460b      	mov	r3, r1
 8006826:	70fb      	strb	r3, [r7, #3]
	uint8_t value = ((dataBits >> 24) & 0xFF) + ((dataBits >> 16) & 0xFF) + ((dataBits >> 8) & 0xFF) + (dataBits & 0xFF);
 8006828:	687b      	ldr	r3, [r7, #4]
 800682a:	0e1b      	lsrs	r3, r3, #24
 800682c:	b2da      	uxtb	r2, r3
 800682e:	687b      	ldr	r3, [r7, #4]
 8006830:	0c1b      	lsrs	r3, r3, #16
 8006832:	b2db      	uxtb	r3, r3
 8006834:	4413      	add	r3, r2
 8006836:	b2da      	uxtb	r2, r3
 8006838:	687b      	ldr	r3, [r7, #4]
 800683a:	0a1b      	lsrs	r3, r3, #8
 800683c:	b2db      	uxtb	r3, r3
 800683e:	4413      	add	r3, r2
 8006840:	b2da      	uxtb	r2, r3
 8006842:	687b      	ldr	r3, [r7, #4]
 8006844:	b2db      	uxtb	r3, r3
 8006846:	4413      	add	r3, r2
 8006848:	73fb      	strb	r3, [r7, #15]
	if(value == checksumBits)
 800684a:	7bfa      	ldrb	r2, [r7, #15]
 800684c:	78fb      	ldrb	r3, [r7, #3]
 800684e:	429a      	cmp	r2, r3
 8006850:	d101      	bne.n	8006856 <_Z31checkIfTempSensorReadoutCorrectmh+0x3a>
		return true;
 8006852:	2301      	movs	r3, #1
 8006854:	e000      	b.n	8006858 <_Z31checkIfTempSensorReadoutCorrectmh+0x3c>
	return false;
 8006856:	2300      	movs	r3, #0
}
 8006858:	4618      	mov	r0, r3
 800685a:	3714      	adds	r7, #20
 800685c:	46bd      	mov	sp, r7
 800685e:	f85d 7b04 	ldr.w	r7, [sp], #4
 8006862:	4770      	bx	lr

08006864 <_Z25printConnectedDevicesTreev>:

void printConnectedDevicesTree(void){
 8006864:	b590      	push	{r4, r7, lr}
 8006866:	b095      	sub	sp, #84	; 0x54
 8006868:	af00      	add	r7, sp, #0
	//Format jednej wiadomosci w dataBLE: nazwa_czujnika '\0' dane handle_do_pol
	char sensorName[MAX_NAME_LEN]; char deviceName[MAX_NAME_LEN]; int i;
	memset(sensorName, 0x00, sizeof(sensorName));
 800686a:	f107 0314 	add.w	r3, r7, #20
 800686e:	220c      	movs	r2, #12
 8006870:	2100      	movs	r1, #0
 8006872:	4618      	mov	r0, r3
 8006874:	f001 fdeb 	bl	800844e <memset>
	memset(deviceName, 0x00, sizeof(deviceName));
 8006878:	f107 0308 	add.w	r3, r7, #8
 800687c:	220c      	movs	r2, #12
 800687e:	2100      	movs	r1, #0
 8006880:	4618      	mov	r0, r3
 8006882:	f001 fde4 	bl	800844e <memset>

	while(newData){
 8006886:	4bba      	ldr	r3, [pc, #744]	; (8006b70 <_Z25printConnectedDevicesTreev+0x30c>)
 8006888:	781b      	ldrb	r3, [r3, #0]
 800688a:	2b00      	cmp	r3, #0
 800688c:	f000 8178 	beq.w	8006b80 <_Z25printConnectedDevicesTreev+0x31c>
		newData--;
 8006890:	4bb7      	ldr	r3, [pc, #732]	; (8006b70 <_Z25printConnectedDevicesTreev+0x30c>)
 8006892:	781b      	ldrb	r3, [r3, #0]
 8006894:	3b01      	subs	r3, #1
 8006896:	b2da      	uxtb	r2, r3
 8006898:	4bb5      	ldr	r3, [pc, #724]	; (8006b70 <_Z25printConnectedDevicesTreev+0x30c>)
 800689a:	701a      	strb	r2, [r3, #0]
		for(i=0; dataBLE[newData][i] != '\0' && i<MAX_NAME_LEN; i++){ sensorName[i] = dataBLE[newData][i]; }
 800689c:	2300      	movs	r3, #0
 800689e:	64fb      	str	r3, [r7, #76]	; 0x4c
 80068a0:	4bb3      	ldr	r3, [pc, #716]	; (8006b70 <_Z25printConnectedDevicesTreev+0x30c>)
 80068a2:	781b      	ldrb	r3, [r3, #0]
 80068a4:	4619      	mov	r1, r3
 80068a6:	4ab3      	ldr	r2, [pc, #716]	; (8006b74 <_Z25printConnectedDevicesTreev+0x310>)
 80068a8:	460b      	mov	r3, r1
 80068aa:	009b      	lsls	r3, r3, #2
 80068ac:	440b      	add	r3, r1
 80068ae:	009b      	lsls	r3, r3, #2
 80068b0:	441a      	add	r2, r3
 80068b2:	6cfb      	ldr	r3, [r7, #76]	; 0x4c
 80068b4:	4413      	add	r3, r2
 80068b6:	781b      	ldrb	r3, [r3, #0]
 80068b8:	2b00      	cmp	r3, #0
 80068ba:	d018      	beq.n	80068ee <_Z25printConnectedDevicesTreev+0x8a>
 80068bc:	6cfb      	ldr	r3, [r7, #76]	; 0x4c
 80068be:	2b0b      	cmp	r3, #11
 80068c0:	dc15      	bgt.n	80068ee <_Z25printConnectedDevicesTreev+0x8a>
 80068c2:	4bab      	ldr	r3, [pc, #684]	; (8006b70 <_Z25printConnectedDevicesTreev+0x30c>)
 80068c4:	781b      	ldrb	r3, [r3, #0]
 80068c6:	4619      	mov	r1, r3
 80068c8:	4aaa      	ldr	r2, [pc, #680]	; (8006b74 <_Z25printConnectedDevicesTreev+0x310>)
 80068ca:	460b      	mov	r3, r1
 80068cc:	009b      	lsls	r3, r3, #2
 80068ce:	440b      	add	r3, r1
 80068d0:	009b      	lsls	r3, r3, #2
 80068d2:	441a      	add	r2, r3
 80068d4:	6cfb      	ldr	r3, [r7, #76]	; 0x4c
 80068d6:	4413      	add	r3, r2
 80068d8:	7819      	ldrb	r1, [r3, #0]
 80068da:	f107 0214 	add.w	r2, r7, #20
 80068de:	6cfb      	ldr	r3, [r7, #76]	; 0x4c
 80068e0:	4413      	add	r3, r2
 80068e2:	460a      	mov	r2, r1
 80068e4:	701a      	strb	r2, [r3, #0]
 80068e6:	6cfb      	ldr	r3, [r7, #76]	; 0x4c
 80068e8:	3301      	adds	r3, #1
 80068ea:	64fb      	str	r3, [r7, #76]	; 0x4c
 80068ec:	e7d8      	b.n	80068a0 <_Z25printConnectedDevicesTreev+0x3c>
		uint32_t dataBits = (dataBLE[newData][i+1] << 24) + (dataBLE[newData][i+2] << 16)
 80068ee:	4ba0      	ldr	r3, [pc, #640]	; (8006b70 <_Z25printConnectedDevicesTreev+0x30c>)
 80068f0:	781b      	ldrb	r3, [r3, #0]
 80068f2:	4618      	mov	r0, r3
 80068f4:	6cfb      	ldr	r3, [r7, #76]	; 0x4c
 80068f6:	1c5a      	adds	r2, r3, #1
 80068f8:	499e      	ldr	r1, [pc, #632]	; (8006b74 <_Z25printConnectedDevicesTreev+0x310>)
 80068fa:	4603      	mov	r3, r0
 80068fc:	009b      	lsls	r3, r3, #2
 80068fe:	4403      	add	r3, r0
 8006900:	009b      	lsls	r3, r3, #2
 8006902:	440b      	add	r3, r1
 8006904:	4413      	add	r3, r2
 8006906:	781b      	ldrb	r3, [r3, #0]
 8006908:	061a      	lsls	r2, r3, #24
 800690a:	4b99      	ldr	r3, [pc, #612]	; (8006b70 <_Z25printConnectedDevicesTreev+0x30c>)
 800690c:	781b      	ldrb	r3, [r3, #0]
 800690e:	461c      	mov	r4, r3
 8006910:	6cfb      	ldr	r3, [r7, #76]	; 0x4c
 8006912:	1c99      	adds	r1, r3, #2
 8006914:	4897      	ldr	r0, [pc, #604]	; (8006b74 <_Z25printConnectedDevicesTreev+0x310>)
 8006916:	4623      	mov	r3, r4
 8006918:	009b      	lsls	r3, r3, #2
 800691a:	4423      	add	r3, r4
 800691c:	009b      	lsls	r3, r3, #2
 800691e:	4403      	add	r3, r0
 8006920:	440b      	add	r3, r1
 8006922:	781b      	ldrb	r3, [r3, #0]
 8006924:	041b      	lsls	r3, r3, #16
 8006926:	441a      	add	r2, r3
						  + (dataBLE[newData][i+3] << 8)  + (dataBLE[newData][i+4]);
 8006928:	4b91      	ldr	r3, [pc, #580]	; (8006b70 <_Z25printConnectedDevicesTreev+0x30c>)
 800692a:	781b      	ldrb	r3, [r3, #0]
 800692c:	461c      	mov	r4, r3
 800692e:	6cfb      	ldr	r3, [r7, #76]	; 0x4c
 8006930:	1cd9      	adds	r1, r3, #3
 8006932:	4890      	ldr	r0, [pc, #576]	; (8006b74 <_Z25printConnectedDevicesTreev+0x310>)
 8006934:	4623      	mov	r3, r4
 8006936:	009b      	lsls	r3, r3, #2
 8006938:	4423      	add	r3, r4
 800693a:	009b      	lsls	r3, r3, #2
 800693c:	4403      	add	r3, r0
 800693e:	440b      	add	r3, r1
 8006940:	781b      	ldrb	r3, [r3, #0]
 8006942:	021b      	lsls	r3, r3, #8
 8006944:	441a      	add	r2, r3
 8006946:	4b8a      	ldr	r3, [pc, #552]	; (8006b70 <_Z25printConnectedDevicesTreev+0x30c>)
 8006948:	781b      	ldrb	r3, [r3, #0]
 800694a:	461c      	mov	r4, r3
 800694c:	6cfb      	ldr	r3, [r7, #76]	; 0x4c
 800694e:	1d19      	adds	r1, r3, #4
 8006950:	4888      	ldr	r0, [pc, #544]	; (8006b74 <_Z25printConnectedDevicesTreev+0x310>)
 8006952:	4623      	mov	r3, r4
 8006954:	009b      	lsls	r3, r3, #2
 8006956:	4423      	add	r3, r4
 8006958:	009b      	lsls	r3, r3, #2
 800695a:	4403      	add	r3, r0
 800695c:	440b      	add	r3, r1
 800695e:	781b      	ldrb	r3, [r3, #0]
 8006960:	4413      	add	r3, r2
 8006962:	62fb      	str	r3, [r7, #44]	; 0x2c
		uint8_t checksumBits = dataBLE[newData][i+5];
 8006964:	4b82      	ldr	r3, [pc, #520]	; (8006b70 <_Z25printConnectedDevicesTreev+0x30c>)
 8006966:	781b      	ldrb	r3, [r3, #0]
 8006968:	4618      	mov	r0, r3
 800696a:	6cfb      	ldr	r3, [r7, #76]	; 0x4c
 800696c:	1d5a      	adds	r2, r3, #5
 800696e:	4981      	ldr	r1, [pc, #516]	; (8006b74 <_Z25printConnectedDevicesTreev+0x310>)
 8006970:	4603      	mov	r3, r0
 8006972:	009b      	lsls	r3, r3, #2
 8006974:	4403      	add	r3, r0
 8006976:	009b      	lsls	r3, r3, #2
 8006978:	440b      	add	r3, r1
 800697a:	4413      	add	r3, r2
 800697c:	781b      	ldrb	r3, [r3, #0]
 800697e:	f887 302b 	strb.w	r3, [r7, #43]	; 0x2b
		if(checkIfTempSensorReadoutCorrect(dataBits, checksumBits)){
 8006982:	f897 302b 	ldrb.w	r3, [r7, #43]	; 0x2b
 8006986:	4619      	mov	r1, r3
 8006988:	6af8      	ldr	r0, [r7, #44]	; 0x2c
 800698a:	f7ff ff47 	bl	800681c <_Z31checkIfTempSensorReadoutCorrectmh>
 800698e:	4603      	mov	r3, r0
 8006990:	2b00      	cmp	r3, #0
 8006992:	f43f af78 	beq.w	8006886 <_Z25printConnectedDevicesTreev+0x22>
			//znajdz (przez connHandle - 2 ost. bajty w dataBLE[]) odp. urzadzenie, znajdz odp. czujnik
			//i zaktualizuj odczytane wartosci, wypisz cale drzewo klienta (wszystkie polaczone urz. i ich wszystkie sensory)
			uint16_t connHandle = (dataBLE[newData][i+6] << 8) | dataBLE[newData][i+7];
 8006996:	4b76      	ldr	r3, [pc, #472]	; (8006b70 <_Z25printConnectedDevicesTreev+0x30c>)
 8006998:	781b      	ldrb	r3, [r3, #0]
 800699a:	4618      	mov	r0, r3
 800699c:	6cfb      	ldr	r3, [r7, #76]	; 0x4c
 800699e:	1d9a      	adds	r2, r3, #6
 80069a0:	4974      	ldr	r1, [pc, #464]	; (8006b74 <_Z25printConnectedDevicesTreev+0x310>)
 80069a2:	4603      	mov	r3, r0
 80069a4:	009b      	lsls	r3, r3, #2
 80069a6:	4403      	add	r3, r0
 80069a8:	009b      	lsls	r3, r3, #2
 80069aa:	440b      	add	r3, r1
 80069ac:	4413      	add	r3, r2
 80069ae:	781b      	ldrb	r3, [r3, #0]
 80069b0:	021b      	lsls	r3, r3, #8
 80069b2:	b21a      	sxth	r2, r3
 80069b4:	4b6e      	ldr	r3, [pc, #440]	; (8006b70 <_Z25printConnectedDevicesTreev+0x30c>)
 80069b6:	781b      	ldrb	r3, [r3, #0]
 80069b8:	461c      	mov	r4, r3
 80069ba:	6cfb      	ldr	r3, [r7, #76]	; 0x4c
 80069bc:	1dd9      	adds	r1, r3, #7
 80069be:	486d      	ldr	r0, [pc, #436]	; (8006b74 <_Z25printConnectedDevicesTreev+0x310>)
 80069c0:	4623      	mov	r3, r4
 80069c2:	009b      	lsls	r3, r3, #2
 80069c4:	4423      	add	r3, r4
 80069c6:	009b      	lsls	r3, r3, #2
 80069c8:	4403      	add	r3, r0
 80069ca:	440b      	add	r3, r1
 80069cc:	781b      	ldrb	r3, [r3, #0]
 80069ce:	b21b      	sxth	r3, r3
 80069d0:	4313      	orrs	r3, r2
 80069d2:	b21b      	sxth	r3, r3
 80069d4:	853b      	strh	r3, [r7, #40]	; 0x28
			for(int k=0; k<foundDevicesCount; k++){
 80069d6:	2300      	movs	r3, #0
 80069d8:	64bb      	str	r3, [r7, #72]	; 0x48
 80069da:	4b67      	ldr	r3, [pc, #412]	; (8006b78 <_Z25printConnectedDevicesTreev+0x314>)
 80069dc:	781b      	ldrb	r3, [r3, #0]
 80069de:	461a      	mov	r2, r3
 80069e0:	6cbb      	ldr	r3, [r7, #72]	; 0x48
 80069e2:	429a      	cmp	r2, r3
 80069e4:	f77f af4f 	ble.w	8006886 <_Z25printConnectedDevicesTreev+0x22>
				if(connHandle == foundDevices[k].connHandle){ //znajdz odp. urzadzenie
 80069e8:	4a64      	ldr	r2, [pc, #400]	; (8006b7c <_Z25printConnectedDevicesTreev+0x318>)
 80069ea:	6cbb      	ldr	r3, [r7, #72]	; 0x48
 80069ec:	21b8      	movs	r1, #184	; 0xb8
 80069ee:	fb01 f303 	mul.w	r3, r1, r3
 80069f2:	4413      	add	r3, r2
 80069f4:	3314      	adds	r3, #20
 80069f6:	881b      	ldrh	r3, [r3, #0]
 80069f8:	8d3a      	ldrh	r2, [r7, #40]	; 0x28
 80069fa:	429a      	cmp	r2, r3
 80069fc:	f040 80b3 	bne.w	8006b66 <_Z25printConnectedDevicesTreev+0x302>
					for(int m=0; foundDevices[k].deviceName[m] != '\0' && m<MAX_NAME_LEN; m++){
 8006a00:	2300      	movs	r3, #0
 8006a02:	647b      	str	r3, [r7, #68]	; 0x44
 8006a04:	4a5d      	ldr	r2, [pc, #372]	; (8006b7c <_Z25printConnectedDevicesTreev+0x318>)
 8006a06:	6cbb      	ldr	r3, [r7, #72]	; 0x48
 8006a08:	21b8      	movs	r1, #184	; 0xb8
 8006a0a:	fb01 f303 	mul.w	r3, r1, r3
 8006a0e:	441a      	add	r2, r3
 8006a10:	6c7b      	ldr	r3, [r7, #68]	; 0x44
 8006a12:	4413      	add	r3, r2
 8006a14:	3307      	adds	r3, #7
 8006a16:	781b      	ldrb	r3, [r3, #0]
 8006a18:	2b00      	cmp	r3, #0
 8006a1a:	d016      	beq.n	8006a4a <_Z25printConnectedDevicesTreev+0x1e6>
 8006a1c:	6c7b      	ldr	r3, [r7, #68]	; 0x44
 8006a1e:	2b0b      	cmp	r3, #11
 8006a20:	dc13      	bgt.n	8006a4a <_Z25printConnectedDevicesTreev+0x1e6>
						deviceName[m] = foundDevices[k].deviceName[m];
 8006a22:	4a56      	ldr	r2, [pc, #344]	; (8006b7c <_Z25printConnectedDevicesTreev+0x318>)
 8006a24:	6cbb      	ldr	r3, [r7, #72]	; 0x48
 8006a26:	21b8      	movs	r1, #184	; 0xb8
 8006a28:	fb01 f303 	mul.w	r3, r1, r3
 8006a2c:	441a      	add	r2, r3
 8006a2e:	6c7b      	ldr	r3, [r7, #68]	; 0x44
 8006a30:	4413      	add	r3, r2
 8006a32:	3307      	adds	r3, #7
 8006a34:	7819      	ldrb	r1, [r3, #0]
 8006a36:	f107 0208 	add.w	r2, r7, #8
 8006a3a:	6c7b      	ldr	r3, [r7, #68]	; 0x44
 8006a3c:	4413      	add	r3, r2
 8006a3e:	460a      	mov	r2, r1
 8006a40:	701a      	strb	r2, [r3, #0]
					for(int m=0; foundDevices[k].deviceName[m] != '\0' && m<MAX_NAME_LEN; m++){
 8006a42:	6c7b      	ldr	r3, [r7, #68]	; 0x44
 8006a44:	3301      	adds	r3, #1
 8006a46:	647b      	str	r3, [r7, #68]	; 0x44
 8006a48:	e7dc      	b.n	8006a04 <_Z25printConnectedDevicesTreev+0x1a0>
					}
					for(int m=0; m<foundDevices[k].connSensorsCount; m++){ //znajdz odp. czujnik
 8006a4a:	2300      	movs	r3, #0
 8006a4c:	643b      	str	r3, [r7, #64]	; 0x40
 8006a4e:	4a4b      	ldr	r2, [pc, #300]	; (8006b7c <_Z25printConnectedDevicesTreev+0x318>)
 8006a50:	6cbb      	ldr	r3, [r7, #72]	; 0x48
 8006a52:	21b8      	movs	r1, #184	; 0xb8
 8006a54:	fb01 f303 	mul.w	r3, r1, r3
 8006a58:	4413      	add	r3, r2
 8006a5a:	3316      	adds	r3, #22
 8006a5c:	781b      	ldrb	r3, [r3, #0]
 8006a5e:	461a      	mov	r2, r3
 8006a60:	6c3b      	ldr	r3, [r7, #64]	; 0x40
 8006a62:	429a      	cmp	r2, r3
 8006a64:	dd7f      	ble.n	8006b66 <_Z25printConnectedDevicesTreev+0x302>
						if(strcmp((char *)sensorName, (char *)foundDevices[k].connSensors[m].sensorName) == 0){
 8006a66:	6c3a      	ldr	r2, [r7, #64]	; 0x40
 8006a68:	4613      	mov	r3, r2
 8006a6a:	009b      	lsls	r3, r3, #2
 8006a6c:	4413      	add	r3, r2
 8006a6e:	009b      	lsls	r3, r3, #2
 8006a70:	6cba      	ldr	r2, [r7, #72]	; 0x48
 8006a72:	21b8      	movs	r1, #184	; 0xb8
 8006a74:	fb01 f202 	mul.w	r2, r1, r2
 8006a78:	4413      	add	r3, r2
 8006a7a:	3318      	adds	r3, #24
 8006a7c:	4a3f      	ldr	r2, [pc, #252]	; (8006b7c <_Z25printConnectedDevicesTreev+0x318>)
 8006a7e:	441a      	add	r2, r3
 8006a80:	f107 0314 	add.w	r3, r7, #20
 8006a84:	4611      	mov	r1, r2
 8006a86:	4618      	mov	r0, r3
 8006a88:	f7f9 fba2 	bl	80001d0 <strcmp>
 8006a8c:	4603      	mov	r3, r0
 8006a8e:	2b00      	cmp	r3, #0
 8006a90:	d165      	bne.n	8006b5e <_Z25printConnectedDevicesTreev+0x2fa>
							//aktualizuj odczytane wartosci czujnika
							foundDevices[k].connSensors[m].lastHumidValue
								= ((float)((dataBLE[newData][i+1] << 8) | dataBLE[newData][i+2])) / (float)10.0;
 8006a92:	4b37      	ldr	r3, [pc, #220]	; (8006b70 <_Z25printConnectedDevicesTreev+0x30c>)
 8006a94:	781b      	ldrb	r3, [r3, #0]
 8006a96:	4618      	mov	r0, r3
 8006a98:	6cfb      	ldr	r3, [r7, #76]	; 0x4c
 8006a9a:	1c5a      	adds	r2, r3, #1
 8006a9c:	4935      	ldr	r1, [pc, #212]	; (8006b74 <_Z25printConnectedDevicesTreev+0x310>)
 8006a9e:	4603      	mov	r3, r0
 8006aa0:	009b      	lsls	r3, r3, #2
 8006aa2:	4403      	add	r3, r0
 8006aa4:	009b      	lsls	r3, r3, #2
 8006aa6:	440b      	add	r3, r1
 8006aa8:	4413      	add	r3, r2
 8006aaa:	781b      	ldrb	r3, [r3, #0]
 8006aac:	021a      	lsls	r2, r3, #8
 8006aae:	4b30      	ldr	r3, [pc, #192]	; (8006b70 <_Z25printConnectedDevicesTreev+0x30c>)
 8006ab0:	781b      	ldrb	r3, [r3, #0]
 8006ab2:	461c      	mov	r4, r3
 8006ab4:	6cfb      	ldr	r3, [r7, #76]	; 0x4c
 8006ab6:	1c99      	adds	r1, r3, #2
 8006ab8:	482e      	ldr	r0, [pc, #184]	; (8006b74 <_Z25printConnectedDevicesTreev+0x310>)
 8006aba:	4623      	mov	r3, r4
 8006abc:	009b      	lsls	r3, r3, #2
 8006abe:	4423      	add	r3, r4
 8006ac0:	009b      	lsls	r3, r3, #2
 8006ac2:	4403      	add	r3, r0
 8006ac4:	440b      	add	r3, r1
 8006ac6:	781b      	ldrb	r3, [r3, #0]
 8006ac8:	4313      	orrs	r3, r2
 8006aca:	ee07 3a90 	vmov	s15, r3
 8006ace:	eeb8 7ae7 	vcvt.f32.s32	s14, s15
 8006ad2:	eef2 6a04 	vmov.f32	s13, #36	; 0x41200000  10.0
 8006ad6:	eec7 7a26 	vdiv.f32	s15, s14, s13
 8006ada:	4828      	ldr	r0, [pc, #160]	; (8006b7c <_Z25printConnectedDevicesTreev+0x318>)
 8006adc:	6c3a      	ldr	r2, [r7, #64]	; 0x40
 8006ade:	6cb9      	ldr	r1, [r7, #72]	; 0x48
 8006ae0:	4613      	mov	r3, r2
 8006ae2:	009b      	lsls	r3, r3, #2
 8006ae4:	4413      	add	r3, r2
 8006ae6:	009b      	lsls	r3, r3, #2
 8006ae8:	22b8      	movs	r2, #184	; 0xb8
 8006aea:	fb02 f201 	mul.w	r2, r2, r1
 8006aee:	4413      	add	r3, r2
 8006af0:	4403      	add	r3, r0
 8006af2:	3328      	adds	r3, #40	; 0x28
 8006af4:	edc3 7a00 	vstr	s15, [r3]
							foundDevices[k].connSensors[m].lastTempValue
								= ((float)((dataBLE[newData][i+3] << 8) | dataBLE[newData][i+4])) / (float)10.0;
 8006af8:	4b1d      	ldr	r3, [pc, #116]	; (8006b70 <_Z25printConnectedDevicesTreev+0x30c>)
 8006afa:	781b      	ldrb	r3, [r3, #0]
 8006afc:	4618      	mov	r0, r3
 8006afe:	6cfb      	ldr	r3, [r7, #76]	; 0x4c
 8006b00:	1cda      	adds	r2, r3, #3
 8006b02:	491c      	ldr	r1, [pc, #112]	; (8006b74 <_Z25printConnectedDevicesTreev+0x310>)
 8006b04:	4603      	mov	r3, r0
 8006b06:	009b      	lsls	r3, r3, #2
 8006b08:	4403      	add	r3, r0
 8006b0a:	009b      	lsls	r3, r3, #2
 8006b0c:	440b      	add	r3, r1
 8006b0e:	4413      	add	r3, r2
 8006b10:	781b      	ldrb	r3, [r3, #0]
 8006b12:	021a      	lsls	r2, r3, #8
 8006b14:	4b16      	ldr	r3, [pc, #88]	; (8006b70 <_Z25printConnectedDevicesTreev+0x30c>)
 8006b16:	781b      	ldrb	r3, [r3, #0]
 8006b18:	461c      	mov	r4, r3
 8006b1a:	6cfb      	ldr	r3, [r7, #76]	; 0x4c
 8006b1c:	1d19      	adds	r1, r3, #4
 8006b1e:	4815      	ldr	r0, [pc, #84]	; (8006b74 <_Z25printConnectedDevicesTreev+0x310>)
 8006b20:	4623      	mov	r3, r4
 8006b22:	009b      	lsls	r3, r3, #2
 8006b24:	4423      	add	r3, r4
 8006b26:	009b      	lsls	r3, r3, #2
 8006b28:	4403      	add	r3, r0
 8006b2a:	440b      	add	r3, r1
 8006b2c:	781b      	ldrb	r3, [r3, #0]
 8006b2e:	4313      	orrs	r3, r2
 8006b30:	ee07 3a90 	vmov	s15, r3
 8006b34:	eeb8 7ae7 	vcvt.f32.s32	s14, s15
 8006b38:	eef2 6a04 	vmov.f32	s13, #36	; 0x41200000  10.0
 8006b3c:	eec7 7a26 	vdiv.f32	s15, s14, s13
 8006b40:	480e      	ldr	r0, [pc, #56]	; (8006b7c <_Z25printConnectedDevicesTreev+0x318>)
 8006b42:	6c3a      	ldr	r2, [r7, #64]	; 0x40
 8006b44:	6cb9      	ldr	r1, [r7, #72]	; 0x48
 8006b46:	4613      	mov	r3, r2
 8006b48:	009b      	lsls	r3, r3, #2
 8006b4a:	4413      	add	r3, r2
 8006b4c:	009b      	lsls	r3, r3, #2
 8006b4e:	22b8      	movs	r2, #184	; 0xb8
 8006b50:	fb02 f201 	mul.w	r2, r2, r1
 8006b54:	4413      	add	r3, r2
 8006b56:	4403      	add	r3, r0
 8006b58:	3324      	adds	r3, #36	; 0x24
 8006b5a:	edc3 7a00 	vstr	s15, [r3]
					for(int m=0; m<foundDevices[k].connSensorsCount; m++){ //znajdz odp. czujnik
 8006b5e:	6c3b      	ldr	r3, [r7, #64]	; 0x40
 8006b60:	3301      	adds	r3, #1
 8006b62:	643b      	str	r3, [r7, #64]	; 0x40
 8006b64:	e773      	b.n	8006a4e <_Z25printConnectedDevicesTreev+0x1ea>
			for(int k=0; k<foundDevicesCount; k++){
 8006b66:	6cbb      	ldr	r3, [r7, #72]	; 0x48
 8006b68:	3301      	adds	r3, #1
 8006b6a:	64bb      	str	r3, [r7, #72]	; 0x48
 8006b6c:	e735      	b.n	80069da <_Z25printConnectedDevicesTreev+0x176>
 8006b6e:	bf00      	nop
 8006b70:	2000074a 	.word	0x2000074a
 8006b74:	20000750 	.word	0x20000750
 8006b78:	200042a7 	.word	0x200042a7
 8006b7c:	200007c8 	.word	0x200007c8
//					HAL_UART_Transmit(&huart3, (uint8_t *)uartData,
//							sizeof("Wilgotnosc\t %hu.%hu%%\r\n")+2*sizeof(uint16_t), 10);
		} //if(checkIfTempSensorReadoutCorrect(dataBits, checksumBits))
	} //while(newData)
	//wypisz cale drzewo polaczen klienta
	printf("=====\r\nUrzadzenie centralne (adres ");
 8006b80:	487e      	ldr	r0, [pc, #504]	; (8006d7c <_Z25printConnectedDevicesTreev+0x518>)
 8006b82:	f001 fc79 	bl	8008478 <printf>
	for(int p = 5; p > 0; p--){	printf("%02X-", bdaddr[p]); }
 8006b86:	2305      	movs	r3, #5
 8006b88:	63fb      	str	r3, [r7, #60]	; 0x3c
 8006b8a:	6bfb      	ldr	r3, [r7, #60]	; 0x3c
 8006b8c:	2b00      	cmp	r3, #0
 8006b8e:	dd0b      	ble.n	8006ba8 <_Z25printConnectedDevicesTreev+0x344>
 8006b90:	4a7b      	ldr	r2, [pc, #492]	; (8006d80 <_Z25printConnectedDevicesTreev+0x51c>)
 8006b92:	6bfb      	ldr	r3, [r7, #60]	; 0x3c
 8006b94:	4413      	add	r3, r2
 8006b96:	781b      	ldrb	r3, [r3, #0]
 8006b98:	4619      	mov	r1, r3
 8006b9a:	487a      	ldr	r0, [pc, #488]	; (8006d84 <_Z25printConnectedDevicesTreev+0x520>)
 8006b9c:	f001 fc6c 	bl	8008478 <printf>
 8006ba0:	6bfb      	ldr	r3, [r7, #60]	; 0x3c
 8006ba2:	3b01      	subs	r3, #1
 8006ba4:	63fb      	str	r3, [r7, #60]	; 0x3c
 8006ba6:	e7f0      	b.n	8006b8a <_Z25printConnectedDevicesTreev+0x326>
	printf("%02X)\r\nPolaczone urzadzenia peryferyjne:\r\n\r\n", bdaddr[0]);
 8006ba8:	4b75      	ldr	r3, [pc, #468]	; (8006d80 <_Z25printConnectedDevicesTreev+0x51c>)
 8006baa:	781b      	ldrb	r3, [r3, #0]
 8006bac:	4619      	mov	r1, r3
 8006bae:	4876      	ldr	r0, [pc, #472]	; (8006d88 <_Z25printConnectedDevicesTreev+0x524>)
 8006bb0:	f001 fc62 	bl	8008478 <printf>
	for(int k=0; k<foundDevicesCount; k++){
 8006bb4:	2300      	movs	r3, #0
 8006bb6:	63bb      	str	r3, [r7, #56]	; 0x38
 8006bb8:	4b74      	ldr	r3, [pc, #464]	; (8006d8c <_Z25printConnectedDevicesTreev+0x528>)
 8006bba:	781b      	ldrb	r3, [r3, #0]
 8006bbc:	461a      	mov	r2, r3
 8006bbe:	6bbb      	ldr	r3, [r7, #56]	; 0x38
 8006bc0:	429a      	cmp	r2, r3
 8006bc2:	f340 80d6 	ble.w	8006d72 <_Z25printConnectedDevicesTreev+0x50e>
		printf("%d. Urzadzenie %s (adres ", k+1, foundDevices[k].deviceName);
 8006bc6:	6bbb      	ldr	r3, [r7, #56]	; 0x38
 8006bc8:	1c59      	adds	r1, r3, #1
 8006bca:	6bbb      	ldr	r3, [r7, #56]	; 0x38
 8006bcc:	22b8      	movs	r2, #184	; 0xb8
 8006bce:	fb02 f303 	mul.w	r3, r2, r3
 8006bd2:	4a6f      	ldr	r2, [pc, #444]	; (8006d90 <_Z25printConnectedDevicesTreev+0x52c>)
 8006bd4:	4413      	add	r3, r2
 8006bd6:	3307      	adds	r3, #7
 8006bd8:	461a      	mov	r2, r3
 8006bda:	486e      	ldr	r0, [pc, #440]	; (8006d94 <_Z25printConnectedDevicesTreev+0x530>)
 8006bdc:	f001 fc4c 	bl	8008478 <printf>
		for(int p = 5; p > 0; p--){	printf("%02X-", foundDevices[k].deviceAddress[p]); }
 8006be0:	2305      	movs	r3, #5
 8006be2:	637b      	str	r3, [r7, #52]	; 0x34
 8006be4:	6b7b      	ldr	r3, [r7, #52]	; 0x34
 8006be6:	2b00      	cmp	r3, #0
 8006be8:	dd11      	ble.n	8006c0e <_Z25printConnectedDevicesTreev+0x3aa>
 8006bea:	4a69      	ldr	r2, [pc, #420]	; (8006d90 <_Z25printConnectedDevicesTreev+0x52c>)
 8006bec:	6bbb      	ldr	r3, [r7, #56]	; 0x38
 8006bee:	21b8      	movs	r1, #184	; 0xb8
 8006bf0:	fb01 f303 	mul.w	r3, r1, r3
 8006bf4:	441a      	add	r2, r3
 8006bf6:	6b7b      	ldr	r3, [r7, #52]	; 0x34
 8006bf8:	4413      	add	r3, r2
 8006bfa:	3301      	adds	r3, #1
 8006bfc:	781b      	ldrb	r3, [r3, #0]
 8006bfe:	4619      	mov	r1, r3
 8006c00:	4860      	ldr	r0, [pc, #384]	; (8006d84 <_Z25printConnectedDevicesTreev+0x520>)
 8006c02:	f001 fc39 	bl	8008478 <printf>
 8006c06:	6b7b      	ldr	r3, [r7, #52]	; 0x34
 8006c08:	3b01      	subs	r3, #1
 8006c0a:	637b      	str	r3, [r7, #52]	; 0x34
 8006c0c:	e7ea      	b.n	8006be4 <_Z25printConnectedDevicesTreev+0x380>
		printf("%02X)\r\n", foundDevices[k].deviceAddress[0]);
 8006c0e:	4a60      	ldr	r2, [pc, #384]	; (8006d90 <_Z25printConnectedDevicesTreev+0x52c>)
 8006c10:	6bbb      	ldr	r3, [r7, #56]	; 0x38
 8006c12:	21b8      	movs	r1, #184	; 0xb8
 8006c14:	fb01 f303 	mul.w	r3, r1, r3
 8006c18:	4413      	add	r3, r2
 8006c1a:	3301      	adds	r3, #1
 8006c1c:	781b      	ldrb	r3, [r3, #0]
 8006c1e:	4619      	mov	r1, r3
 8006c20:	485d      	ldr	r0, [pc, #372]	; (8006d98 <_Z25printConnectedDevicesTreev+0x534>)
 8006c22:	f001 fc29 	bl	8008478 <printf>
		for(int m=0; m<foundDevices[k].connSensorsCount; m++){
 8006c26:	2300      	movs	r3, #0
 8006c28:	633b      	str	r3, [r7, #48]	; 0x30
 8006c2a:	4a59      	ldr	r2, [pc, #356]	; (8006d90 <_Z25printConnectedDevicesTreev+0x52c>)
 8006c2c:	6bbb      	ldr	r3, [r7, #56]	; 0x38
 8006c2e:	21b8      	movs	r1, #184	; 0xb8
 8006c30:	fb01 f303 	mul.w	r3, r1, r3
 8006c34:	4413      	add	r3, r2
 8006c36:	3316      	adds	r3, #22
 8006c38:	781b      	ldrb	r3, [r3, #0]
 8006c3a:	461a      	mov	r2, r3
 8006c3c:	6b3b      	ldr	r3, [r7, #48]	; 0x30
 8006c3e:	429a      	cmp	r2, r3
 8006c40:	f340 8093 	ble.w	8006d6a <_Z25printConnectedDevicesTreev+0x506>
			printf("Czujnik %s\r\n", foundDevices[k].connSensors[m].sensorName);
 8006c44:	6b3a      	ldr	r2, [r7, #48]	; 0x30
 8006c46:	4613      	mov	r3, r2
 8006c48:	009b      	lsls	r3, r3, #2
 8006c4a:	4413      	add	r3, r2
 8006c4c:	009b      	lsls	r3, r3, #2
 8006c4e:	6bba      	ldr	r2, [r7, #56]	; 0x38
 8006c50:	21b8      	movs	r1, #184	; 0xb8
 8006c52:	fb01 f202 	mul.w	r2, r1, r2
 8006c56:	4413      	add	r3, r2
 8006c58:	3318      	adds	r3, #24
 8006c5a:	4a4d      	ldr	r2, [pc, #308]	; (8006d90 <_Z25printConnectedDevicesTreev+0x52c>)
 8006c5c:	4413      	add	r3, r2
 8006c5e:	4619      	mov	r1, r3
 8006c60:	484e      	ldr	r0, [pc, #312]	; (8006d9c <_Z25printConnectedDevicesTreev+0x538>)
 8006c62:	f001 fc09 	bl	8008478 <printf>
			uint16_t humid = (uint16_t)foundDevices[k].connSensors[m].lastHumidValue;
 8006c66:	484a      	ldr	r0, [pc, #296]	; (8006d90 <_Z25printConnectedDevicesTreev+0x52c>)
 8006c68:	6b3a      	ldr	r2, [r7, #48]	; 0x30
 8006c6a:	6bb9      	ldr	r1, [r7, #56]	; 0x38
 8006c6c:	4613      	mov	r3, r2
 8006c6e:	009b      	lsls	r3, r3, #2
 8006c70:	4413      	add	r3, r2
 8006c72:	009b      	lsls	r3, r3, #2
 8006c74:	22b8      	movs	r2, #184	; 0xb8
 8006c76:	fb02 f201 	mul.w	r2, r2, r1
 8006c7a:	4413      	add	r3, r2
 8006c7c:	4403      	add	r3, r0
 8006c7e:	3328      	adds	r3, #40	; 0x28
 8006c80:	edd3 7a00 	vldr	s15, [r3]
 8006c84:	eefc 7ae7 	vcvt.u32.f32	s15, s15
 8006c88:	edc7 7a01 	vstr	s15, [r7, #4]
 8006c8c:	88bb      	ldrh	r3, [r7, #4]
 8006c8e:	84fb      	strh	r3, [r7, #38]	; 0x26
			uint16_t temp  = (uint16_t)foundDevices[k].connSensors[m].lastTempValue;
 8006c90:	483f      	ldr	r0, [pc, #252]	; (8006d90 <_Z25printConnectedDevicesTreev+0x52c>)
 8006c92:	6b3a      	ldr	r2, [r7, #48]	; 0x30
 8006c94:	6bb9      	ldr	r1, [r7, #56]	; 0x38
 8006c96:	4613      	mov	r3, r2
 8006c98:	009b      	lsls	r3, r3, #2
 8006c9a:	4413      	add	r3, r2
 8006c9c:	009b      	lsls	r3, r3, #2
 8006c9e:	22b8      	movs	r2, #184	; 0xb8
 8006ca0:	fb02 f201 	mul.w	r2, r2, r1
 8006ca4:	4413      	add	r3, r2
 8006ca6:	4403      	add	r3, r0
 8006ca8:	3324      	adds	r3, #36	; 0x24
 8006caa:	edd3 7a00 	vldr	s15, [r3]
 8006cae:	eefc 7ae7 	vcvt.u32.f32	s15, s15
 8006cb2:	edc7 7a01 	vstr	s15, [r7, #4]
 8006cb6:	88bb      	ldrh	r3, [r7, #4]
 8006cb8:	84bb      	strh	r3, [r7, #36]	; 0x24
			uint16_t humidDecimal = ((int)(foundDevices[k].connSensors[m].lastHumidValue*10))%10;
 8006cba:	4835      	ldr	r0, [pc, #212]	; (8006d90 <_Z25printConnectedDevicesTreev+0x52c>)
 8006cbc:	6b3a      	ldr	r2, [r7, #48]	; 0x30
 8006cbe:	6bb9      	ldr	r1, [r7, #56]	; 0x38
 8006cc0:	4613      	mov	r3, r2
 8006cc2:	009b      	lsls	r3, r3, #2
 8006cc4:	4413      	add	r3, r2
 8006cc6:	009b      	lsls	r3, r3, #2
 8006cc8:	22b8      	movs	r2, #184	; 0xb8
 8006cca:	fb02 f201 	mul.w	r2, r2, r1
 8006cce:	4413      	add	r3, r2
 8006cd0:	4403      	add	r3, r0
 8006cd2:	3328      	adds	r3, #40	; 0x28
 8006cd4:	edd3 7a00 	vldr	s15, [r3]
 8006cd8:	eeb2 7a04 	vmov.f32	s14, #36	; 0x41200000  10.0
 8006cdc:	ee67 7a87 	vmul.f32	s15, s15, s14
 8006ce0:	eefd 7ae7 	vcvt.s32.f32	s15, s15
 8006ce4:	ee17 1a90 	vmov	r1, s15
 8006ce8:	4b2d      	ldr	r3, [pc, #180]	; (8006da0 <_Z25printConnectedDevicesTreev+0x53c>)
 8006cea:	fb83 2301 	smull	r2, r3, r3, r1
 8006cee:	109a      	asrs	r2, r3, #2
 8006cf0:	17cb      	asrs	r3, r1, #31
 8006cf2:	1ad2      	subs	r2, r2, r3
 8006cf4:	4613      	mov	r3, r2
 8006cf6:	009b      	lsls	r3, r3, #2
 8006cf8:	4413      	add	r3, r2
 8006cfa:	005b      	lsls	r3, r3, #1
 8006cfc:	1aca      	subs	r2, r1, r3
 8006cfe:	4613      	mov	r3, r2
 8006d00:	847b      	strh	r3, [r7, #34]	; 0x22
			uint16_t tempDecimal  = ((int)(foundDevices[k].connSensors[m].lastTempValue*10))%10;
 8006d02:	4823      	ldr	r0, [pc, #140]	; (8006d90 <_Z25printConnectedDevicesTreev+0x52c>)
 8006d04:	6b3a      	ldr	r2, [r7, #48]	; 0x30
 8006d06:	6bb9      	ldr	r1, [r7, #56]	; 0x38
 8006d08:	4613      	mov	r3, r2
 8006d0a:	009b      	lsls	r3, r3, #2
 8006d0c:	4413      	add	r3, r2
 8006d0e:	009b      	lsls	r3, r3, #2
 8006d10:	22b8      	movs	r2, #184	; 0xb8
 8006d12:	fb02 f201 	mul.w	r2, r2, r1
 8006d16:	4413      	add	r3, r2
 8006d18:	4403      	add	r3, r0
 8006d1a:	3324      	adds	r3, #36	; 0x24
 8006d1c:	edd3 7a00 	vldr	s15, [r3]
 8006d20:	eeb2 7a04 	vmov.f32	s14, #36	; 0x41200000  10.0
 8006d24:	ee67 7a87 	vmul.f32	s15, s15, s14
 8006d28:	eefd 7ae7 	vcvt.s32.f32	s15, s15
 8006d2c:	ee17 1a90 	vmov	r1, s15
 8006d30:	4b1b      	ldr	r3, [pc, #108]	; (8006da0 <_Z25printConnectedDevicesTreev+0x53c>)
 8006d32:	fb83 2301 	smull	r2, r3, r3, r1
 8006d36:	109a      	asrs	r2, r3, #2
 8006d38:	17cb      	asrs	r3, r1, #31
 8006d3a:	1ad2      	subs	r2, r2, r3
 8006d3c:	4613      	mov	r3, r2
 8006d3e:	009b      	lsls	r3, r3, #2
 8006d40:	4413      	add	r3, r2
 8006d42:	005b      	lsls	r3, r3, #1
 8006d44:	1aca      	subs	r2, r1, r3
 8006d46:	4613      	mov	r3, r2
 8006d48:	843b      	strh	r3, [r7, #32]
			printf("Temperatura\t %hu.%huC\r\n", temp, tempDecimal);
 8006d4a:	8cbb      	ldrh	r3, [r7, #36]	; 0x24
 8006d4c:	8c3a      	ldrh	r2, [r7, #32]
 8006d4e:	4619      	mov	r1, r3
 8006d50:	4814      	ldr	r0, [pc, #80]	; (8006da4 <_Z25printConnectedDevicesTreev+0x540>)
 8006d52:	f001 fb91 	bl	8008478 <printf>
			printf("Wilgotnosc\t %hu.%hu%%\r\n\r\n", humid, humidDecimal);
 8006d56:	8cfb      	ldrh	r3, [r7, #38]	; 0x26
 8006d58:	8c7a      	ldrh	r2, [r7, #34]	; 0x22
 8006d5a:	4619      	mov	r1, r3
 8006d5c:	4812      	ldr	r0, [pc, #72]	; (8006da8 <_Z25printConnectedDevicesTreev+0x544>)
 8006d5e:	f001 fb8b 	bl	8008478 <printf>
		for(int m=0; m<foundDevices[k].connSensorsCount; m++){
 8006d62:	6b3b      	ldr	r3, [r7, #48]	; 0x30
 8006d64:	3301      	adds	r3, #1
 8006d66:	633b      	str	r3, [r7, #48]	; 0x30
 8006d68:	e75f      	b.n	8006c2a <_Z25printConnectedDevicesTreev+0x3c6>
	for(int k=0; k<foundDevicesCount; k++){
 8006d6a:	6bbb      	ldr	r3, [r7, #56]	; 0x38
 8006d6c:	3301      	adds	r3, #1
 8006d6e:	63bb      	str	r3, [r7, #56]	; 0x38
 8006d70:	e722      	b.n	8006bb8 <_Z25printConnectedDevicesTreev+0x354>
		}
	}
}
 8006d72:	bf00      	nop
 8006d74:	3754      	adds	r7, #84	; 0x54
 8006d76:	46bd      	mov	sp, r7
 8006d78:	bd90      	pop	{r4, r7, pc}
 8006d7a:	bf00      	nop
 8006d7c:	0800b7f4 	.word	0x0800b7f4
 8006d80:	20004300 	.word	0x20004300
 8006d84:	0800b818 	.word	0x0800b818
 8006d88:	0800b820 	.word	0x0800b820
 8006d8c:	200042a7 	.word	0x200042a7
 8006d90:	200007c8 	.word	0x200007c8
 8006d94:	0800b850 	.word	0x0800b850
 8006d98:	0800b86c 	.word	0x0800b86c
 8006d9c:	0800b874 	.word	0x0800b874
 8006da0:	66666667 	.word	0x66666667
 8006da4:	0800b884 	.word	0x0800b884
 8006da8:	0800b89c 	.word	0x0800b89c

08006dac <HAL_TIM_PeriodElapsedCallback>:
  * a global variable "uwTick" used as application time base.
  * @param  htim : TIM handle
  * @retval None
  */
void HAL_TIM_PeriodElapsedCallback(TIM_HandleTypeDef *htim)
{
 8006dac:	b580      	push	{r7, lr}
 8006dae:	b082      	sub	sp, #8
 8006db0:	af00      	add	r7, sp, #0
 8006db2:	6078      	str	r0, [r7, #4]
  /* USER CODE BEGIN Callback 0 */

  /* USER CODE END Callback 0 */
  if (htim->Instance == TIM3) {
 8006db4:	687b      	ldr	r3, [r7, #4]
 8006db6:	681b      	ldr	r3, [r3, #0]
 8006db8:	4a04      	ldr	r2, [pc, #16]	; (8006dcc <HAL_TIM_PeriodElapsedCallback+0x20>)
 8006dba:	4293      	cmp	r3, r2
 8006dbc:	d101      	bne.n	8006dc2 <HAL_TIM_PeriodElapsedCallback+0x16>
    HAL_IncTick();
 8006dbe:	f7fb f819 	bl	8001df4 <HAL_IncTick>
  }
  /* USER CODE BEGIN Callback 1 */

  /* USER CODE END Callback 1 */
}
 8006dc2:	bf00      	nop
 8006dc4:	3708      	adds	r7, #8
 8006dc6:	46bd      	mov	sp, r7
 8006dc8:	bd80      	pop	{r7, pc}
 8006dca:	bf00      	nop
 8006dcc:	40000400 	.word	0x40000400

08006dd0 <Error_Handler>:
/**
  * @brief  This function is executed in case of error occurrence.
  * @retval None
  */
void Error_Handler(void)
{
 8006dd0:	b480      	push	{r7}
 8006dd2:	af00      	add	r7, sp, #0
  /* USER CODE BEGIN Error_Handler_Debug */
  /* User can add his own implementation to report the HAL error return state */

  /* USER CODE END Error_Handler_Debug */
}
 8006dd4:	bf00      	nop
 8006dd6:	46bd      	mov	sp, r7
 8006dd8:	f85d 7b04 	ldr.w	r7, [sp], #4
 8006ddc:	4770      	bx	lr
	...

08006de0 <Make_Connection>:
 * @brief  Make the device connectable
 * @param  None 
 * @retval None
 */
void Make_Connection(void)
{  
 8006de0:	b530      	push	{r4, r5, lr}
    tBleStatus ret;
    BSP_LED_On(LED2); //To indicate the start of the connection and discovery phase

	printf("Client Create Connection with device %d\r\n\r\n", connectedDevicesCount+1);
 8006de2:	4c17      	ldr	r4, [pc, #92]	; (8006e40 <Make_Connection+0x60>)
{  
 8006de4:	b089      	sub	sp, #36	; 0x24
    BSP_LED_On(LED2); //To indicate the start of the connection and discovery phase
 8006de6:	2000      	movs	r0, #0
 8006de8:	f000 fbee 	bl	80075c8 <BSP_LED_On>
	printf("Client Create Connection with device %d\r\n\r\n", connectedDevicesCount+1);
 8006dec:	7821      	ldrb	r1, [r4, #0]
 8006dee:	4815      	ldr	r0, [pc, #84]	; (8006e44 <Make_Connection+0x64>)
 8006df0:	3101      	adds	r1, #1
 8006df2:	f001 fb41 	bl	8008478 <printf>
	ret = aci_gap_create_connection(
 8006df6:	7820      	ldrb	r0, [r4, #0]
		SCAN_P/*0x0010*/, /* 10240 msec = Scan Interval: from when the Controller started its last scan until it begins the subsequent scan = how long to wait between scans (for a number N, Time = N x 0.625 msec) */
		SCAN_L/*0x0010*/, /* 10240 msec = Scan Window: amount of time for the duration of the LE scan = how long to scan (for a number N, Time = N x 0.625 msec) */
		foundDevices[connectedDevicesCount].deviceAddressType, /* Peer_Address_Type */
		foundDevices[connectedDevicesCount].deviceAddress, /* Peer_Address */
 8006df8:	7823      	ldrb	r3, [r4, #0]
 8006dfa:	22b8      	movs	r2, #184	; 0xb8
 8006dfc:	2101      	movs	r1, #1
 8006dfe:	fb02 1303 	mla	r3, r2, r3, r1
 8006e02:	4911      	ldr	r1, [pc, #68]	; (8006e48 <Make_Connection+0x68>)
	ret = aci_gap_create_connection(
 8006e04:	4342      	muls	r2, r0
 8006e06:	200c      	movs	r0, #12
 8006e08:	5c8a      	ldrb	r2, [r1, r2]
 8006e0a:	9006      	str	r0, [sp, #24]
 8006e0c:	9005      	str	r0, [sp, #20]
 8006e0e:	203c      	movs	r0, #60	; 0x3c
 8006e10:	2528      	movs	r5, #40	; 0x28
 8006e12:	9004      	str	r0, [sp, #16]
 8006e14:	440b      	add	r3, r1
 8006e16:	2000      	movs	r0, #0
 8006e18:	f44f 4180 	mov.w	r1, #16384	; 0x4000
 8006e1c:	9003      	str	r0, [sp, #12]
 8006e1e:	e88d 0021 	stmia.w	sp, {r0, r5}
 8006e22:	9502      	str	r5, [sp, #8]
 8006e24:	4608      	mov	r0, r1
 8006e26:	f7fc ffe6 	bl	8003df6 <aci_gap_create_connection>
		0x0000, /* Connection latency = If non-zero, the peripheral is allowed to skip up to slave latency radio events and not listen. That saves even more power, at the expense of even slower data. number of consecutive connection events where the slave doesn't need to listen on the master(?) */
		SUPERV_TIMEOUT/*0x0C80*/, /* 600 msec = Supervision Timeout (reset upon reception of a valid packet) max time between 2 packets before connection is considered lost (Time = N x 10 msec) */
		/*CONN_L1*/0x000C, /* 7.5 msec (previously 1250 msec and not working) = Minimum Connection Length (for a number N, Time = N x 0.625 msec) */
		/*CONN_L2*/0x000C  /* 7.5 msec (previously 1250 msec and not working) = Maximal Connection Length (for a number N, Time = N x 0.625 msec) */
	);
	if (ret != BLE_STATUS_SUCCESS){
 8006e2a:	b130      	cbz	r0, 8006e3a <Make_Connection+0x5a>
	  printf("Error while starting connection with device %d\r\n\r\n", connectedDevicesCount);
 8006e2c:	7821      	ldrb	r1, [r4, #0]
 8006e2e:	4807      	ldr	r0, [pc, #28]	; (8006e4c <Make_Connection+0x6c>)
	}
}
 8006e30:	b009      	add	sp, #36	; 0x24
 8006e32:	e8bd 4030 	ldmia.w	sp!, {r4, r5, lr}
	  printf("Error while starting connection with device %d\r\n\r\n", connectedDevicesCount);
 8006e36:	f001 bb1f 	b.w	8008478 <printf>
}
 8006e3a:	b009      	add	sp, #36	; 0x24
 8006e3c:	bd30      	pop	{r4, r5, pc}
 8006e3e:	bf00      	nop
 8006e40:	200042a4 	.word	0x200042a4
 8006e44:	0800bae3 	.word	0x0800bae3
 8006e48:	200007c8 	.word	0x200007c8
 8006e4c:	0800bb0f 	.word	0x0800bb0f

08006e50 <startReadTXCharHandle>:
 * @brief  Discovery TX characteristic handle by UUID 128 bits
 * @param  None 
 * @retval None
 */
void startReadTXCharHandle(void)
{
 8006e50:	b570      	push	{r4, r5, r6, lr}
  if (!all_tx_char_handles_read)
 8006e52:	4b12      	ldr	r3, [pc, #72]	; (8006e9c <startReadTXCharHandle+0x4c>)
 8006e54:	781b      	ldrb	r3, [r3, #0]
{
 8006e56:	b086      	sub	sp, #24
  if (!all_tx_char_handles_read)
 8006e58:	b9eb      	cbnz	r3, 8006e96 <startReadTXCharHandle+0x46>
  {    
    PRINTF("Start reading TX Char Handle\n");
    start_read_tx_char_handle = TRUE;
 8006e5a:	4b11      	ldr	r3, [pc, #68]	; (8006ea0 <startReadTXCharHandle+0x50>)
 8006e5c:	2201      	movs	r2, #1
 8006e5e:	701a      	strb	r2, [r3, #0]
	const uint8_t charUuid128_TX[16] = {0x66,0x9a,0x0c,0x20,0x00,0x08,0x96,0x9e,0xe2,0x11,0x9e,0xb1,0xe1,0xf2,0x73,0xd9};
 8006e60:	4b10      	ldr	r3, [pc, #64]	; (8006ea4 <startReadTXCharHandle+0x54>)
 8006e62:	aa02      	add	r2, sp, #8
 8006e64:	f103 0610 	add.w	r6, r3, #16
 8006e68:	4615      	mov	r5, r2
 8006e6a:	6818      	ldr	r0, [r3, #0]
 8006e6c:	6859      	ldr	r1, [r3, #4]
 8006e6e:	4614      	mov	r4, r2
 8006e70:	c403      	stmia	r4!, {r0, r1}
 8006e72:	3308      	adds	r3, #8
 8006e74:	42b3      	cmp	r3, r6
 8006e76:	4622      	mov	r2, r4
 8006e78:	d1f7      	bne.n	8006e6a <startReadTXCharHandle+0x1a>
    aci_gatt_disc_charac_by_uuid(foundDevices[txHandlesDiscoveredCount].connHandle, 0x0001, 0xFFFF, UUID_TYPE_128, charUuid128_TX);
 8006e7a:	4b0b      	ldr	r3, [pc, #44]	; (8006ea8 <startReadTXCharHandle+0x58>)
 8006e7c:	4a0b      	ldr	r2, [pc, #44]	; (8006eac <startReadTXCharHandle+0x5c>)
 8006e7e:	781b      	ldrb	r3, [r3, #0]
 8006e80:	21b8      	movs	r1, #184	; 0xb8
 8006e82:	fb01 2303 	mla	r3, r1, r3, r2
 8006e86:	f64f 72ff 	movw	r2, #65535	; 0xffff
 8006e8a:	8a98      	ldrh	r0, [r3, #20]
 8006e8c:	9500      	str	r5, [sp, #0]
 8006e8e:	2302      	movs	r3, #2
 8006e90:	2101      	movs	r1, #1
 8006e92:	f7fd f81a 	bl	8003eca <aci_gatt_disc_charac_by_uuid>
  }
}
 8006e96:	b006      	add	sp, #24
 8006e98:	bd70      	pop	{r4, r5, r6, pc}
 8006e9a:	bf00      	nop
 8006e9c:	200042a2 	.word	0x200042a2
 8006ea0:	200042ac 	.word	0x200042ac
 8006ea4:	0800b8c6 	.word	0x0800b8c6
 8006ea8:	200042ad 	.word	0x200042ad
 8006eac:	200007c8 	.word	0x200007c8

08006eb0 <startReadRXCharHandle>:
 * @brief  Discovery RX characteristic handle by UUID 128 bits
 * @param  None 
 * @retval None
 */
void startReadRXCharHandle(void)
{  
 8006eb0:	b570      	push	{r4, r5, r6, lr}
  if (!all_rx_char_handles_read)
 8006eb2:	4b12      	ldr	r3, [pc, #72]	; (8006efc <startReadRXCharHandle+0x4c>)
 8006eb4:	781b      	ldrb	r3, [r3, #0]
{  
 8006eb6:	b086      	sub	sp, #24
  if (!all_rx_char_handles_read)
 8006eb8:	b9eb      	cbnz	r3, 8006ef6 <startReadRXCharHandle+0x46>
  {
    PRINTF("Start reading RX Char Handle\n");
    start_read_rx_char_handle = TRUE;
 8006eba:	4b11      	ldr	r3, [pc, #68]	; (8006f00 <startReadRXCharHandle+0x50>)
 8006ebc:	2201      	movs	r2, #1
 8006ebe:	701a      	strb	r2, [r3, #0]
    const uint8_t charUuid128_RX[16] = {0x66,0x9a,0x0c,0x20,0x00,0x08,0x96,0x9e,0xe2,0x11,0x9e,0xb1,0xe2,0xf2,0x73,0xd9};
 8006ec0:	4b10      	ldr	r3, [pc, #64]	; (8006f04 <startReadRXCharHandle+0x54>)
 8006ec2:	aa02      	add	r2, sp, #8
 8006ec4:	f103 0610 	add.w	r6, r3, #16
 8006ec8:	4615      	mov	r5, r2
 8006eca:	6818      	ldr	r0, [r3, #0]
 8006ecc:	6859      	ldr	r1, [r3, #4]
 8006ece:	4614      	mov	r4, r2
 8006ed0:	c403      	stmia	r4!, {r0, r1}
 8006ed2:	3308      	adds	r3, #8
 8006ed4:	42b3      	cmp	r3, r6
 8006ed6:	4622      	mov	r2, r4
 8006ed8:	d1f7      	bne.n	8006eca <startReadRXCharHandle+0x1a>
    aci_gatt_disc_charac_by_uuid(foundDevices[rxHandlesDiscoveredCount].connHandle, 0x0001, 0xFFFF, UUID_TYPE_128, charUuid128_RX);
 8006eda:	4b0b      	ldr	r3, [pc, #44]	; (8006f08 <startReadRXCharHandle+0x58>)
 8006edc:	4a0b      	ldr	r2, [pc, #44]	; (8006f0c <startReadRXCharHandle+0x5c>)
 8006ede:	781b      	ldrb	r3, [r3, #0]
 8006ee0:	21b8      	movs	r1, #184	; 0xb8
 8006ee2:	fb01 2303 	mla	r3, r1, r3, r2
 8006ee6:	f64f 72ff 	movw	r2, #65535	; 0xffff
 8006eea:	8a98      	ldrh	r0, [r3, #20]
 8006eec:	9500      	str	r5, [sp, #0]
 8006eee:	2302      	movs	r3, #2
 8006ef0:	2101      	movs	r1, #1
 8006ef2:	f7fc ffea 	bl	8003eca <aci_gatt_disc_charac_by_uuid>
  }
}
 8006ef6:	b006      	add	sp, #24
 8006ef8:	bd70      	pop	{r4, r5, r6, pc}
 8006efa:	bf00      	nop
 8006efc:	200042a0 	.word	0x200042a0
 8006f00:	200042ab 	.word	0x200042ab
 8006f04:	0800b8d6 	.word	0x0800b8d6
 8006f08:	200042a9 	.word	0x200042a9
 8006f0c:	200007c8 	.word	0x200007c8

08006f10 <receiveData>:
 * @param  data_buffer : pointer to store in received data
 * @param  Nb_bytes : number of bytes to be received
 * @retval None
 */
void receiveData(uint8_t* data_buffer, uint8_t Nb_bytes)
{
 8006f10:	b570      	push	{r4, r5, r6, lr}
 8006f12:	4605      	mov	r5, r0
  BSP_LED_Off(LED2);
 8006f14:	2000      	movs	r0, #0
{
 8006f16:	460e      	mov	r6, r1
  BSP_LED_Off(LED2);
 8006f18:	f000 fb5f 	bl	80075da <BSP_LED_Off>
  for(int i = 0; i < Nb_bytes; i++) {
 8006f1c:	462c      	mov	r4, r5
 8006f1e:	1b63      	subs	r3, r4, r5
 8006f20:	429e      	cmp	r6, r3
 8006f22:	dc06      	bgt.n	8006f32 <receiveData+0x22>
	  printf("%c", data_buffer[i]);
  }
  fflush(stdout);
 8006f24:	4b05      	ldr	r3, [pc, #20]	; (8006f3c <receiveData+0x2c>)
 8006f26:	681b      	ldr	r3, [r3, #0]
}
 8006f28:	e8bd 4070 	ldmia.w	sp!, {r4, r5, r6, lr}
  fflush(stdout);
 8006f2c:	6898      	ldr	r0, [r3, #8]
 8006f2e:	f000 be33 	b.w	8007b98 <fflush>
	  printf("%c", data_buffer[i]);
 8006f32:	f814 0b01 	ldrb.w	r0, [r4], #1
 8006f36:	f001 fab7 	bl	80084a8 <putchar>
 8006f3a:	e7f0      	b.n	8006f1e <receiveData+0xe>
 8006f3c:	20000020 	.word	0x20000020

08006f40 <sendData>:
 * @param  Nb_bytes : number of bytes to send
 * @retval None
 */
//void sendData(uint8_t* data_buffer, uint8_t Nb_bytes)
void sendData(uint8_t server_index, uint8_t* data_buffer, uint8_t Nb_bytes)
{
 8006f40:	b430      	push	{r4, r5}
	/* Klient wysyla dane do serwera */
	//TODO wysylanie do konkretnego serwera (adres lub nazwa)
	uint8_t server_ind = (server_index <= connectedDevicesCount ? server_index : connectedDevicesCount); /* Aby wyslac do polaczonego servera */
 8006f42:	4c0a      	ldr	r4, [pc, #40]	; (8006f6c <sendData+0x2c>)
{
 8006f44:	460b      	mov	r3, r1
	uint8_t server_ind = (server_index <= connectedDevicesCount ? server_index : connectedDevicesCount); /* Aby wyslac do polaczonego servera */
 8006f46:	7821      	ldrb	r1, [r4, #0]
 8006f48:	4281      	cmp	r1, r0
 8006f4a:	bf38      	it	cc
 8006f4c:	7820      	ldrbcc	r0, [r4, #0]
    aci_gatt_write_without_response(foundDevices[server_ind].connHandle, rxHandles[server_ind]+1, Nb_bytes, data_buffer); /* Max 20 bajtow na jedno wywolanie funkcji, serwer nie potwierdza otrzymania pakietu */
 8006f4e:	4908      	ldr	r1, [pc, #32]	; (8006f70 <sendData+0x30>)
	uint8_t server_ind = (server_index <= connectedDevicesCount ? server_index : connectedDevicesCount); /* Aby wyslac do polaczonego servera */
 8006f50:	bf38      	it	cc
 8006f52:	b2c0      	uxtbcc	r0, r0
    aci_gatt_write_without_response(foundDevices[server_ind].connHandle, rxHandles[server_ind]+1, Nb_bytes, data_buffer); /* Max 20 bajtow na jedno wywolanie funkcji, serwer nie potwierdza otrzymania pakietu */
 8006f54:	25b8      	movs	r5, #184	; 0xb8
 8006f56:	f831 4010 	ldrh.w	r4, [r1, r0, lsl #1]
 8006f5a:	4906      	ldr	r1, [pc, #24]	; (8006f74 <sendData+0x34>)
 8006f5c:	fb05 1000 	mla	r0, r5, r0, r1
 8006f60:	3401      	adds	r4, #1
 8006f62:	b2a1      	uxth	r1, r4
 8006f64:	8a80      	ldrh	r0, [r0, #20]
	//aci_gatt_write_charac_value(connection_handle, rx_handle+1, Nb_bytes, data_buffer); /* The client provides a handle and the contents of the value (up to ATT_MTU-3 bytes, because the handle and the ATT operation code are included in the packet with the data) and the server will !acknowledge the write operation with a response! */
	//aci_gatt_write_long_charac_val(connection_handle, rx_handle+1, 0, Nb_bytes, data_buffer); /* This permits a client to write more than ATT_MTU-3 bytes of data into a servers characteristic value or descriptor. It works by queueing several prepare write operations, each of which includes an offset and the data itself, and then finally writing them all atomically with an execute write operation. */
}
 8006f66:	bc30      	pop	{r4, r5}
    aci_gatt_write_without_response(foundDevices[server_ind].connHandle, rxHandles[server_ind]+1, Nb_bytes, data_buffer); /* Max 20 bajtow na jedno wywolanie funkcji, serwer nie potwierdza otrzymania pakietu */
 8006f68:	f7fd b81b 	b.w	8003fa2 <aci_gatt_write_without_response>
 8006f6c:	200042a4 	.word	0x200042a4
 8006f70:	20004314 	.word	0x20004314
 8006f74:	200007c8 	.word	0x200007c8

08006f78 <enableNotification>:
 * @brief  Enable notification
 * @param  None 
 * @retval None
 */
void enableNotification(void)
{
 8006f78:	e92d 47f3 	stmdb	sp!, {r0, r1, r4, r5, r6, r7, r8, r9, sl, lr}
  uint8_t client_char_conf_data[] = {0x01, 0x00}; /* Enable notifications */
 8006f7c:	2300      	movs	r3, #0
 8006f7e:	2401      	movs	r4, #1
 8006f80:	f88d 4004 	strb.w	r4, [sp, #4]
 8006f84:	f88d 3005 	strb.w	r3, [sp, #5]
  uint32_t tickstart = HAL_GetTick();
 8006f88:	f7fa ff40 	bl	8001e0c <HAL_GetTick>
  start_notifications_enable = TRUE;
  
  while(notifications_enabled_count < connectedDevicesCount){
 8006f8c:	4d1b      	ldr	r5, [pc, #108]	; (8006ffc <enableNotification+0x84>)
  start_notifications_enable = TRUE;
 8006f8e:	4b1c      	ldr	r3, [pc, #112]	; (8007000 <enableNotification+0x88>)
  while(notifications_enabled_count < connectedDevicesCount){
 8006f90:	4f1c      	ldr	r7, [pc, #112]	; (8007004 <enableNotification+0x8c>)
  start_notifications_enable = TRUE;
 8006f92:	701c      	strb	r4, [r3, #0]
  uint32_t tickstart = HAL_GetTick();
 8006f94:	4680      	mov	r8, r0
 8006f96:	462c      	mov	r4, r5
  while(notifications_enabled_count < connectedDevicesCount){
 8006f98:	783b      	ldrb	r3, [r7, #0]
 8006f9a:	782a      	ldrb	r2, [r5, #0]
 8006f9c:	429a      	cmp	r2, r3
 8006f9e:	d308      	bcc.n	8006fb2 <enableNotification+0x3a>
		if ((HAL_GetTick() - tickstart) > (10*HCI_DEFAULT_TIMEOUT_MS)) break;
	  }
	  foundDevices[notifications_enabled_count].connStatus = CONNECTED_AND_NOTIFICATIONS_ENABLED;
	  notifications_enabled_count++;
  }
  all_notifications_enabled = TRUE; //?
 8006fa0:	4b19      	ldr	r3, [pc, #100]	; (8007008 <enableNotification+0x90>)
  printf("All notifications enabled!\r\nReady to exchange data!\r\n\r\n");
 8006fa2:	481a      	ldr	r0, [pc, #104]	; (800700c <enableNotification+0x94>)
  all_notifications_enabled = TRUE; //?
 8006fa4:	2201      	movs	r2, #1
 8006fa6:	701a      	strb	r2, [r3, #0]
  printf("All notifications enabled!\r\nReady to exchange data!\r\n\r\n");
 8006fa8:	f001 faf2 	bl	8008590 <puts>
}
 8006fac:	b002      	add	sp, #8
 8006fae:	e8bd 87f0 	ldmia.w	sp!, {r4, r5, r6, r7, r8, r9, sl, pc}
	  while(aci_gatt_write_charac_descriptor(foundDevices[notifications_enabled_count].connHandle, txHandles[notifications_enabled_count]+2, 2, client_char_conf_data)==BLE_STATUS_NOT_ALLOWED){ /* ? */
 8006fb2:	4e17      	ldr	r6, [pc, #92]	; (8007010 <enableNotification+0x98>)
 8006fb4:	f8df a05c 	ldr.w	sl, [pc, #92]	; 8007014 <enableNotification+0x9c>
 8006fb8:	46b1      	mov	r9, r6
 8006fba:	7823      	ldrb	r3, [r4, #0]
 8006fbc:	20b8      	movs	r0, #184	; 0xb8
 8006fbe:	f83a 1013 	ldrh.w	r1, [sl, r3, lsl #1]
 8006fc2:	fb00 6003 	mla	r0, r0, r3, r6
 8006fc6:	3102      	adds	r1, #2
 8006fc8:	ab01      	add	r3, sp, #4
 8006fca:	2202      	movs	r2, #2
 8006fcc:	b289      	uxth	r1, r1
 8006fce:	8a80      	ldrh	r0, [r0, #20]
 8006fd0:	f7fc ffb1 	bl	8003f36 <aci_gatt_write_charac_descriptor>
 8006fd4:	2846      	cmp	r0, #70	; 0x46
 8006fd6:	d107      	bne.n	8006fe8 <enableNotification+0x70>
		if ((HAL_GetTick() - tickstart) > (10*HCI_DEFAULT_TIMEOUT_MS)) break;
 8006fd8:	f7fa ff18 	bl	8001e0c <HAL_GetTick>
 8006fdc:	f242 7310 	movw	r3, #10000	; 0x2710
 8006fe0:	eba0 0008 	sub.w	r0, r0, r8
 8006fe4:	4298      	cmp	r0, r3
 8006fe6:	d9e8      	bls.n	8006fba <enableNotification+0x42>
	  foundDevices[notifications_enabled_count].connStatus = CONNECTED_AND_NOTIFICATIONS_ENABLED;
 8006fe8:	7823      	ldrb	r3, [r4, #0]
 8006fea:	22b8      	movs	r2, #184	; 0xb8
 8006fec:	fb02 9903 	mla	r9, r2, r3, r9
 8006ff0:	2203      	movs	r2, #3
	  notifications_enabled_count++;
 8006ff2:	3301      	adds	r3, #1
	  foundDevices[notifications_enabled_count].connStatus = CONNECTED_AND_NOTIFICATIONS_ENABLED;
 8006ff4:	f889 2013 	strb.w	r2, [r9, #19]
	  notifications_enabled_count++;
 8006ff8:	7023      	strb	r3, [r4, #0]
 8006ffa:	e7cd      	b.n	8006f98 <enableNotification+0x20>
 8006ffc:	200042a8 	.word	0x200042a8
 8007000:	200042aa 	.word	0x200042aa
 8007004:	200042a4 	.word	0x200042a4
 8007008:	2000429f 	.word	0x2000429f
 800700c:	0800bb42 	.word	0x0800bb42
 8007010:	200007c8 	.word	0x200007c8
 8007014:	20004324 	.word	0x20004324

08007018 <Attribute_Modified_CB>:
 * @param  att_data : pointer to the modified attribute data
 * @retval None
 */
void Attribute_Modified_CB(uint16_t handle, uint8_t data_length, uint8_t *att_data)
{
  if(handle == RXCharHandle + 1){
 8007018:	4b09      	ldr	r3, [pc, #36]	; (8007040 <Attribute_Modified_CB+0x28>)
 800701a:	881b      	ldrh	r3, [r3, #0]
 800701c:	3301      	adds	r3, #1
 800701e:	4298      	cmp	r0, r3
 8007020:	d102      	bne.n	8007028 <Attribute_Modified_CB+0x10>
    receiveData(att_data, data_length);
 8007022:	4610      	mov	r0, r2
 8007024:	f7ff bf74 	b.w	8006f10 <receiveData>
  } else if (handle == TXCharHandle + 2) {        
 8007028:	4b06      	ldr	r3, [pc, #24]	; (8007044 <Attribute_Modified_CB+0x2c>)
 800702a:	881b      	ldrh	r3, [r3, #0]
 800702c:	3302      	adds	r3, #2
 800702e:	4298      	cmp	r0, r3
 8007030:	d104      	bne.n	800703c <Attribute_Modified_CB+0x24>
    if(att_data[0] == 0x01)
 8007032:	7813      	ldrb	r3, [r2, #0]
 8007034:	2b01      	cmp	r3, #1
    	start_notifications_enable = TRUE; //?
 8007036:	bf04      	itt	eq
 8007038:	4a03      	ldreq	r2, [pc, #12]	; (8007048 <Attribute_Modified_CB+0x30>)
 800703a:	7013      	strbeq	r3, [r2, #0]
 800703c:	4770      	bx	lr
 800703e:	bf00      	nop
 8007040:	20004334 	.word	0x20004334
 8007044:	20004310 	.word	0x20004310
 8007048:	200042aa 	.word	0x200042aa

0800704c <GAP_ConnectionComplete_CB>:
 * @param  addr : Address of peer device
 * @param  handle : Connection handle
 * @retval None
 */
void GAP_ConnectionComplete_CB(uint8_t addr[6], uint16_t handle)
{  
 800704c:	e92d 43f8 	stmdb	sp!, {r3, r4, r5, r6, r7, r8, r9, lr}
  foundDevices[connectedDevicesCount].connHandle = handle;
 8007050:	4c1f      	ldr	r4, [pc, #124]	; (80070d0 <GAP_ConnectionComplete_CB+0x84>)
  foundDevices[connectedDevicesCount].connStatus = CONNECTED;
  connectedDevicesCount++;
  printf("Connected to device: ");
  for(int i = 5; i > 0; i--){
    printf("%02X-", addr[i]);
 8007052:	f8df 909c 	ldr.w	r9, [pc, #156]	; 80070f0 <GAP_ConnectionComplete_CB+0xa4>
  foundDevices[connectedDevicesCount].connHandle = handle;
 8007056:	7822      	ldrb	r2, [r4, #0]
{  
 8007058:	460f      	mov	r7, r1
  foundDevices[connectedDevicesCount].connHandle = handle;
 800705a:	491e      	ldr	r1, [pc, #120]	; (80070d4 <GAP_ConnectionComplete_CB+0x88>)
{  
 800705c:	4605      	mov	r5, r0
  foundDevices[connectedDevicesCount].connHandle = handle;
 800705e:	20b8      	movs	r0, #184	; 0xb8
 8007060:	fb00 1202 	mla	r2, r0, r2, r1
 8007064:	1dae      	adds	r6, r5, #6
 8007066:	8297      	strh	r7, [r2, #20]
  foundDevices[connectedDevicesCount].connStatus = CONNECTED;
 8007068:	7823      	ldrb	r3, [r4, #0]
 800706a:	fb00 1303 	mla	r3, r0, r3, r1
 800706e:	2202      	movs	r2, #2
 8007070:	74da      	strb	r2, [r3, #19]
  connectedDevicesCount++;
 8007072:	7823      	ldrb	r3, [r4, #0]
  printf("Connected to device: ");
 8007074:	4818      	ldr	r0, [pc, #96]	; (80070d8 <GAP_ConnectionComplete_CB+0x8c>)
  connectedDevicesCount++;
 8007076:	3301      	adds	r3, #1
 8007078:	b2db      	uxtb	r3, r3
 800707a:	7023      	strb	r3, [r4, #0]
  printf("Connected to device: ");
 800707c:	f001 f9fc 	bl	8008478 <printf>
 8007080:	f105 0801 	add.w	r8, r5, #1
    printf("%02X-", addr[i]);
 8007084:	f816 1d01 	ldrb.w	r1, [r6, #-1]!
 8007088:	4648      	mov	r0, r9
 800708a:	f001 f9f5 	bl	8008478 <printf>
  for(int i = 5; i > 0; i--){
 800708e:	4546      	cmp	r6, r8
 8007090:	d1f8      	bne.n	8007084 <GAP_ConnectionComplete_CB+0x38>
  }
  printf("%02X\r\n\r\n", addr[0]);
 8007092:	7829      	ldrb	r1, [r5, #0]
 8007094:	4811      	ldr	r0, [pc, #68]	; (80070dc <GAP_ConnectionComplete_CB+0x90>)
 8007096:	f001 f9ef 	bl	8008478 <printf>
  printf("Connection handle: %04X\r\n\r\n", handle);
 800709a:	4639      	mov	r1, r7
 800709c:	4810      	ldr	r0, [pc, #64]	; (80070e0 <GAP_ConnectionComplete_CB+0x94>)
 800709e:	f001 f9eb 	bl	8008478 <printf>
  if(connectedDevicesCount < foundDevicesCount){
 80070a2:	4b10      	ldr	r3, [pc, #64]	; (80070e4 <GAP_ConnectionComplete_CB+0x98>)
 80070a4:	7822      	ldrb	r2, [r4, #0]
 80070a6:	781b      	ldrb	r3, [r3, #0]
 80070a8:	429a      	cmp	r2, r3
 80070aa:	d203      	bcs.n	80070b4 <GAP_ConnectionComplete_CB+0x68>
  }
  else if(connectedDevicesCount == foundDevicesCount){
	  all_servers_connected = TRUE;
	  printf("All found devices connected!\r\n\r\n");
  }
}
 80070ac:	e8bd 43f8 	ldmia.w	sp!, {r3, r4, r5, r6, r7, r8, r9, lr}
	  Make_Connection();
 80070b0:	f7ff be96 	b.w	8006de0 <Make_Connection>
  else if(connectedDevicesCount == foundDevicesCount){
 80070b4:	7822      	ldrb	r2, [r4, #0]
 80070b6:	4293      	cmp	r3, r2
 80070b8:	d107      	bne.n	80070ca <GAP_ConnectionComplete_CB+0x7e>
	  all_servers_connected = TRUE;
 80070ba:	4b0b      	ldr	r3, [pc, #44]	; (80070e8 <GAP_ConnectionComplete_CB+0x9c>)
	  printf("All found devices connected!\r\n\r\n");
 80070bc:	480b      	ldr	r0, [pc, #44]	; (80070ec <GAP_ConnectionComplete_CB+0xa0>)
	  all_servers_connected = TRUE;
 80070be:	2201      	movs	r2, #1
 80070c0:	701a      	strb	r2, [r3, #0]
}
 80070c2:	e8bd 43f8 	ldmia.w	sp!, {r3, r4, r5, r6, r7, r8, r9, lr}
	  printf("All found devices connected!\r\n\r\n");
 80070c6:	f001 ba63 	b.w	8008590 <puts>
 80070ca:	e8bd 83f8 	ldmia.w	sp!, {r3, r4, r5, r6, r7, r8, r9, pc}
 80070ce:	bf00      	nop
 80070d0:	200042a4 	.word	0x200042a4
 80070d4:	200007c8 	.word	0x200007c8
 80070d8:	0800ba75 	.word	0x0800ba75
 80070dc:	0800ba91 	.word	0x0800ba91
 80070e0:	0800ba9a 	.word	0x0800ba9a
 80070e4:	200042a7 	.word	0x200042a7
 80070e8:	200042a1 	.word	0x200042a1
 80070ec:	0800bab6 	.word	0x0800bab6
 80070f0:	0800ba8b 	.word	0x0800ba8b

080070f4 <GAP_DisconnectionComplete_CB>:
 * @param  None 
 * @retval None
 */
void GAP_DisconnectionComplete_CB(void)
{
  all_servers_connected = FALSE;
 80070f4:	4b02      	ldr	r3, [pc, #8]	; (8007100 <GAP_DisconnectionComplete_CB+0xc>)
  
  printf("Disconnected\n");
 80070f6:	4803      	ldr	r0, [pc, #12]	; (8007104 <GAP_DisconnectionComplete_CB+0x10>)
  all_servers_connected = FALSE;
 80070f8:	2200      	movs	r2, #0
 80070fa:	701a      	strb	r2, [r3, #0]
  printf("Disconnected\n");
 80070fc:	f001 ba48 	b.w	8008590 <puts>
 8007100:	200042a1 	.word	0x200042a1
 8007104:	0800bad6 	.word	0x0800bad6

08007108 <GATT_Notification_CB>:
 * @param  attr_value  Attribute value in the notification
 * @retval None
 */
//void GATT_Notification_CB(uint16_t attr_handle, uint8_t attr_len, uint8_t *attr_value)
void GATT_Notification_CB(uint16_t attr_handle, uint8_t attr_len, uint8_t *attr_value, uint16_t conn_handle)
{
 8007108:	e92d 4ff1 	stmdb	sp!, {r0, r4, r5, r6, r7, r8, r9, sl, fp, lr}
 800710c:	4698      	mov	r8, r3
	/* !Odebrane dane od servera! */
    if (attr_handle == txHandles[txHandlesDiscoveredCount-1]+1 && attr_len != 0 && *attr_value != '\0') { //TODO check txHandles[txHandlesDiscoveredCount] -> wszystkie handle sa takie same, rozrozniac urzadzenia mozna po pozycji w connectionHandles[] i po adresie z foundDevices[]
 800710e:	4b24      	ldr	r3, [pc, #144]	; (80071a0 <GATT_Notification_CB+0x98>)
 8007110:	781b      	ldrb	r3, [r3, #0]
{
 8007112:	4691      	mov	r9, r2
    if (attr_handle == txHandles[txHandlesDiscoveredCount-1]+1 && attr_len != 0 && *attr_value != '\0') { //TODO check txHandles[txHandlesDiscoveredCount] -> wszystkie handle sa takie same, rozrozniac urzadzenia mozna po pozycji w connectionHandles[] i po adresie z foundDevices[]
 8007114:	3b01      	subs	r3, #1
 8007116:	4a23      	ldr	r2, [pc, #140]	; (80071a4 <GATT_Notification_CB+0x9c>)
 8007118:	f832 3013 	ldrh.w	r3, [r2, r3, lsl #1]
 800711c:	3301      	adds	r3, #1
 800711e:	4298      	cmp	r0, r3
{
 8007120:	460e      	mov	r6, r1
    if (attr_handle == txHandles[txHandlesDiscoveredCount-1]+1 && attr_len != 0 && *attr_value != '\0') { //TODO check txHandles[txHandlesDiscoveredCount] -> wszystkie handle sa takie same, rozrozniac urzadzenia mozna po pozycji w connectionHandles[] i po adresie z foundDevices[]
 8007122:	d139      	bne.n	8007198 <GATT_Notification_CB+0x90>
 8007124:	b3c1      	cbz	r1, 8007198 <GATT_Notification_CB+0x90>
 8007126:	f899 3000 	ldrb.w	r3, [r9]
 800712a:	b3ab      	cbz	r3, 8007198 <GATT_Notification_CB+0x90>
    	xSemaphoreTake(newDataMutexHandle, DELAY_TIME);
 800712c:	f8df b080 	ldr.w	fp, [pc, #128]	; 80071b0 <GATT_Notification_CB+0xa8>
    	memset((char *)dataBLE[newData], '\0', MSG_LEN);
 8007130:	4d1d      	ldr	r5, [pc, #116]	; (80071a8 <GATT_Notification_CB+0xa0>)
    	xSemaphoreTake(newDataMutexHandle, DELAY_TIME);
 8007132:	f8db 0000 	ldr.w	r0, [fp]
    	memset((char *)dataBLE[newData], '\0', MSG_LEN);
 8007136:	4f1d      	ldr	r7, [pc, #116]	; (80071ac <GATT_Notification_CB+0xa4>)
    	xSemaphoreTake(newDataMutexHandle, DELAY_TIME);
 8007138:	f640 31b8 	movw	r1, #3000	; 0xbb8
 800713c:	f7fd ff38 	bl	8004fb0 <xQueueSemaphoreTake>
    	memset((char *)dataBLE[newData], '\0', MSG_LEN);
 8007140:	782c      	ldrb	r4, [r5, #0]
 8007142:	eb04 0a84 	add.w	sl, r4, r4, lsl #2
 8007146:	eb07 0a8a 	add.w	sl, r7, sl, lsl #2
 800714a:	2214      	movs	r2, #20
 800714c:	2100      	movs	r1, #0
 800714e:	4650      	mov	r0, sl
 8007150:	f001 f97d 	bl	800844e <memset>
    	for(int i=0; i<=attr_len && i<=MSG_LEN; i++){ //nazwa czujnika, dane
 8007154:	2200      	movs	r2, #0
 8007156:	4658      	mov	r0, fp
 8007158:	42b2      	cmp	r2, r6
 800715a:	dd17      	ble.n	800718c <GATT_Notification_CB+0x84>
    		dataBLE[newData][i] = *(attr_value+i);
    	}
    	//handle do polaczenia
    	dataBLE[newData][attr_len] = ((conn_handle >> 8) & 0xFF);
 800715c:	2214      	movs	r2, #20
 800715e:	fb02 7204 	mla	r2, r2, r4, r7
 8007162:	1993      	adds	r3, r2, r6
 8007164:	ea4f 2118 	mov.w	r1, r8, lsr #8
 8007168:	5591      	strb	r1, [r2, r6]
    	dataBLE[newData][attr_len+1] = (conn_handle & 0xFF);

      	if(newData+1<MAX_MSGS){
 800716a:	2c03      	cmp	r4, #3
    	dataBLE[newData][attr_len+1] = (conn_handle & 0xFF);
 800716c:	f883 8001 	strb.w	r8, [r3, #1]
      		newData++;
      	}
      	xSemaphoreGive(newDataMutexHandle);
 8007170:	6800      	ldr	r0, [r0, #0]
 8007172:	f04f 0300 	mov.w	r3, #0
      		newData++;
 8007176:	bfd8      	it	le
 8007178:	3401      	addle	r4, #1
      	xSemaphoreGive(newDataMutexHandle);
 800717a:	461a      	mov	r2, r3
 800717c:	4619      	mov	r1, r3
      		newData++;
 800717e:	bfd8      	it	le
 8007180:	702c      	strble	r4, [r5, #0]
    }
}
 8007182:	b001      	add	sp, #4
 8007184:	e8bd 4ff0 	ldmia.w	sp!, {r4, r5, r6, r7, r8, r9, sl, fp, lr}
      	xSemaphoreGive(newDataMutexHandle);
 8007188:	f7fd bda2 	b.w	8004cd0 <xQueueGenericSend>
    		dataBLE[newData][i] = *(attr_value+i);
 800718c:	f819 3002 	ldrb.w	r3, [r9, r2]
 8007190:	f80a 3002 	strb.w	r3, [sl, r2]
    	for(int i=0; i<=attr_len && i<=MSG_LEN; i++){ //nazwa czujnika, dane
 8007194:	3201      	adds	r2, #1
 8007196:	e7df      	b.n	8007158 <GATT_Notification_CB+0x50>
}
 8007198:	b001      	add	sp, #4
 800719a:	e8bd 8ff0 	ldmia.w	sp!, {r4, r5, r6, r7, r8, r9, sl, fp, pc}
 800719e:	bf00      	nop
 80071a0:	200042ad 	.word	0x200042ad
 80071a4:	20004324 	.word	0x20004324
 80071a8:	2000074a 	.word	0x2000074a
 80071ac:	20000750 	.word	0x20000750
 80071b0:	20000740 	.word	0x20000740

080071b4 <GAP_AdvertisingReport_CB>:
/**
 * @brief  This function is called when the client found an advertising device to which it may want to connect.
 * @param  adv_info		Structure containing information about the advertising device
 * @retval None
 */
void GAP_AdvertisingReport_CB(le_advertising_info *adv_info){
 80071b4:	e92d 4ff0 	stmdb	sp!, {r4, r5, r6, r7, r8, r9, sl, fp, lr}
	//TODO kopiowanie nazwy!
	char deviceName[] = "name";
 80071b8:	4b28      	ldr	r3, [pc, #160]	; (800725c <GAP_AdvertisingReport_CB+0xa8>)
	//nazwa - zaczyna sie od bitu o ind. 6, 'test' ma 4 znaki
	memcpy(deviceName, adv_info->data_RSSI+6, 4);
	//sprawdzic, czy zgadza sie nazwa = czy chcemy sie polaczyc ze znalezionym urzadzeniem
	if(strcmp((char *)deviceName, "test") == 0){
 80071ba:	4929      	ldr	r1, [pc, #164]	; (8007260 <GAP_AdvertisingReport_CB+0xac>)
	char deviceName[] = "name";
 80071bc:	791b      	ldrb	r3, [r3, #4]
void GAP_AdvertisingReport_CB(le_advertising_info *adv_info){
 80071be:	b085      	sub	sp, #20
 80071c0:	4607      	mov	r7, r0
	char deviceName[] = "name";
 80071c2:	f88d 3004 	strb.w	r3, [sp, #4]
	memcpy(deviceName, adv_info->data_RSSI+6, 4);
 80071c6:	f8d0 300f 	ldr.w	r3, [r0, #15]
 80071ca:	9300      	str	r3, [sp, #0]
	if(strcmp((char *)deviceName, "test") == 0){
 80071cc:	4668      	mov	r0, sp
 80071ce:	f7f8 ffff 	bl	80001d0 <strcmp>
 80071d2:	4682      	mov	sl, r0
 80071d4:	bba8      	cbnz	r0, 8007242 <GAP_AdvertisingReport_CB+0x8e>
	  //sprawdzic, czy znalezione urzadzenie to nie duplikat (czy nie mamy juz tego adresu w tablicy)
	  bool isDeviceNew = true;
	  tBDAddr foundDeviceAddress;
	  memcpy(foundDeviceAddress, adv_info->bdaddr+1, BD_ADDR_SIZE);
 80071d6:	46b8      	mov	r8, r7
	  for(int i=0; i<foundDevicesCount; i++){
 80071d8:	4e22      	ldr	r6, [pc, #136]	; (8007264 <GAP_AdvertisingReport_CB+0xb0>)
	  memcpy(foundDeviceAddress, adv_info->bdaddr+1, BD_ADDR_SIZE);
 80071da:	f858 0f03 	ldr.w	r0, [r8, #3]!
	  for(int i=0; i<foundDevicesCount; i++){
 80071de:	f896 b000 	ldrb.w	fp, [r6]
		  if(strcmp((char *)foundDeviceAddress, (char *)foundDevices[foundDevicesCount].deviceAddress) == 0){
 80071e2:	4c21      	ldr	r4, [pc, #132]	; (8007268 <GAP_AdvertisingReport_CB+0xb4>)
	  memcpy(foundDeviceAddress, adv_info->bdaddr+1, BD_ADDR_SIZE);
 80071e4:	f8b8 3004 	ldrh.w	r3, [r8, #4]
 80071e8:	9002      	str	r0, [sp, #8]
		  if(strcmp((char *)foundDeviceAddress, (char *)foundDevices[foundDevicesCount].deviceAddress) == 0){
 80071ea:	2501      	movs	r5, #1
 80071ec:	f04f 09b8 	mov.w	r9, #184	; 0xb8
 80071f0:	fb19 590b 	smlabb	r9, r9, fp, r5
	  memcpy(foundDeviceAddress, adv_info->bdaddr+1, BD_ADDR_SIZE);
 80071f4:	f8ad 300c 	strh.w	r3, [sp, #12]
		  if(strcmp((char *)foundDeviceAddress, (char *)foundDevices[foundDevicesCount].deviceAddress) == 0){
 80071f8:	44a1      	add	r9, r4
	  for(int i=0; i<foundDevicesCount; i++){
 80071fa:	45d3      	cmp	fp, sl
 80071fc:	dc24      	bgt.n	8007248 <GAP_AdvertisingReport_CB+0x94>
			  isDeviceNew = false;
		  }
	  }
	  if(isDeviceNew){
 80071fe:	b305      	cbz	r5, 8007242 <GAP_AdvertisingReport_CB+0x8e>
		  printf("New device found!\r\n\r\n");
 8007200:	481a      	ldr	r0, [pc, #104]	; (800726c <GAP_AdvertisingReport_CB+0xb8>)
 8007202:	f001 f9c5 	bl	8008590 <puts>
		  //dodac nowo znalezione urzadzenie do tablicy pamietanych urzadzen, zwiekszyc liczbe pamietanych urzadzen
		  foundDevices[foundDevicesCount].deviceAddressType = adv_info->bdaddr_type;
 8007206:	7833      	ldrb	r3, [r6, #0]
 8007208:	787d      	ldrb	r5, [r7, #1]
 800720a:	22b8      	movs	r2, #184	; 0xb8
 800720c:	fb02 f103 	mul.w	r1, r2, r3
 8007210:	fb13 f202 	smulbb	r2, r3, r2
 8007214:	5465      	strb	r5, [r4, r1]
 8007216:	1860      	adds	r0, r4, r1
		  memcpy(foundDevices[foundDevicesCount].deviceAddress, adv_info->bdaddr+1, BD_ADDR_SIZE);
 8007218:	1c51      	adds	r1, r2, #1
 800721a:	f8d8 e000 	ldr.w	lr, [r8]
 800721e:	f844 e001 	str.w	lr, [r4, r1]
 8007222:	1865      	adds	r5, r4, r1
 8007224:	f8b8 1004 	ldrh.w	r1, [r8, #4]
 8007228:	80a9      	strh	r1, [r5, #4]
		  //nazwa i status
		  memcpy(foundDevices[foundDevicesCount].deviceName, adv_info->data_RSSI+6, 4); //TODO nazwa moze byc rozna niz test!!!
 800722a:	4911      	ldr	r1, [pc, #68]	; (8007270 <GAP_AdvertisingReport_CB+0xbc>)
 800722c:	f8d7 400f 	ldr.w	r4, [r7, #15]
 8007230:	5054      	str	r4, [r2, r1]
		  foundDevices[foundDevicesCount].connStatus = READY_TO_CONNECT;
		  if(foundDevicesCount+1<MAX_CONNECTIONS){
 8007232:	2b06      	cmp	r3, #6
		  foundDevices[foundDevicesCount].connStatus = READY_TO_CONNECT;
 8007234:	f04f 0201 	mov.w	r2, #1
			  foundDevicesCount++;
 8007238:	bfd8      	it	le
 800723a:	189b      	addle	r3, r3, r2
		  foundDevices[foundDevicesCount].connStatus = READY_TO_CONNECT;
 800723c:	74c2      	strb	r2, [r0, #19]
			  foundDevicesCount++;
 800723e:	bfd8      	it	le
 8007240:	7033      	strble	r3, [r6, #0]
		  }
	  }
	}
}
 8007242:	b005      	add	sp, #20
 8007244:	e8bd 8ff0 	ldmia.w	sp!, {r4, r5, r6, r7, r8, r9, sl, fp, pc}
		  if(strcmp((char *)foundDeviceAddress, (char *)foundDevices[foundDevicesCount].deviceAddress) == 0){
 8007248:	4649      	mov	r1, r9
 800724a:	a802      	add	r0, sp, #8
 800724c:	f7f8 ffc0 	bl	80001d0 <strcmp>
			  isDeviceNew = false;
 8007250:	2800      	cmp	r0, #0
 8007252:	bf08      	it	eq
 8007254:	2500      	moveq	r5, #0
	  for(int i=0; i<foundDevicesCount; i++){
 8007256:	f10a 0a01 	add.w	sl, sl, #1
 800725a:	e7ce      	b.n	80071fa <GAP_AdvertisingReport_CB+0x46>
 800725c:	0800ba70 	.word	0x0800ba70
 8007260:	0800ba56 	.word	0x0800ba56
 8007264:	200042a7 	.word	0x200042a7
 8007268:	200007c8 	.word	0x200007c8
 800726c:	0800ba5b 	.word	0x0800ba5b
 8007270:	200007cf 	.word	0x200007cf

08007274 <user_notify>:
 *         parsed.
 * @param  pData  Pointer to the ACI packet
 * @retval None
 */
void user_notify(void * pData) /* Parsowanie otrzymanego eventu */
{
 8007274:	b510      	push	{r4, lr}
  hci_uart_pckt *hci_pckt = pData;  
  /* obtain event packet */
  hci_event_pckt *event_pckt = (hci_event_pckt*)hci_pckt->data;
  
  if(hci_pckt->type != HCI_EVENT_PKT)
 8007276:	7803      	ldrb	r3, [r0, #0]
 8007278:	2b04      	cmp	r3, #4
{
 800727a:	4604      	mov	r4, r0
  if(hci_pckt->type != HCI_EVENT_PKT)
 800727c:	f040 80ba 	bne.w	80073f4 <user_notify+0x180>
    return;
  
  switch(event_pckt->evt){
 8007280:	7843      	ldrb	r3, [r0, #1]
 8007282:	2b3e      	cmp	r3, #62	; 0x3e
 8007284:	d008      	beq.n	8007298 <user_notify+0x24>
 8007286:	2bff      	cmp	r3, #255	; 0xff
 8007288:	d018      	beq.n	80072bc <user_notify+0x48>
 800728a:	2b05      	cmp	r3, #5
 800728c:	f040 80b2 	bne.w	80073f4 <user_notify+0x180>
			  break;
		  }
		} /* EVT_VENDOR */
		break;
  }    
}
 8007290:	e8bd 4010 	ldmia.w	sp!, {r4, lr}
		  GAP_DisconnectionComplete_CB();
 8007294:	f7ff bf2e 	b.w	80070f4 <GAP_DisconnectionComplete_CB>
		  switch(evt->subevent){
 8007298:	78c3      	ldrb	r3, [r0, #3]
 800729a:	2b01      	cmp	r3, #1
 800729c:	d002      	beq.n	80072a4 <user_notify+0x30>
 800729e:	2b02      	cmp	r3, #2
 80072a0:	d007      	beq.n	80072b2 <user_notify+0x3e>
 80072a2:	bd10      	pop	{r4, pc}
				  GAP_ConnectionComplete_CB(cc->peer_bdaddr, cc->handle);
 80072a4:	f8b0 1005 	ldrh.w	r1, [r0, #5]
}
 80072a8:	e8bd 4010 	ldmia.w	sp!, {r4, lr}
				  GAP_ConnectionComplete_CB(cc->peer_bdaddr, cc->handle);
 80072ac:	3009      	adds	r0, #9
 80072ae:	f7ff becd 	b.w	800704c <GAP_ConnectionComplete_CB>
				  GAP_AdvertisingReport_CB(adv_info);
 80072b2:	3004      	adds	r0, #4
}
 80072b4:	e8bd 4010 	ldmia.w	sp!, {r4, lr}
				  GAP_AdvertisingReport_CB(adv_info);
 80072b8:	f7ff bf7c 	b.w	80071b4 <GAP_AdvertisingReport_CB>
		  switch(blue_evt->ecode){
 80072bc:	f8b0 3003 	ldrh.w	r3, [r0, #3]
 80072c0:	f640 420f 	movw	r2, #3087	; 0xc0f
 80072c4:	4293      	cmp	r3, r2
 80072c6:	d021      	beq.n	800730c <user_notify+0x98>
 80072c8:	f5b3 6f41 	cmp.w	r3, #3088	; 0xc10
 80072cc:	d209      	bcs.n	80072e2 <user_notify+0x6e>
 80072ce:	f240 4207 	movw	r2, #1031	; 0x407
 80072d2:	4293      	cmp	r3, r2
 80072d4:	f000 8083 	beq.w	80073de <user_notify+0x16a>
 80072d8:	f640 4201 	movw	r2, #3073	; 0xc01
 80072dc:	4293      	cmp	r3, r2
 80072de:	d006      	beq.n	80072ee <user_notify+0x7a>
 80072e0:	bd10      	pop	{r4, pc}
 80072e2:	d03e      	beq.n	8007362 <user_notify+0xee>
 80072e4:	f640 4212 	movw	r2, #3090	; 0xc12
 80072e8:	4293      	cmp	r3, r2
 80072ea:	d01b      	beq.n	8007324 <user_notify+0xb0>
 80072ec:	bd10      	pop	{r4, pc}
				  if (bnrg_expansion_board == IDB05A1) {
 80072ee:	4b42      	ldr	r3, [pc, #264]	; (80073f8 <user_notify+0x184>)
					Attribute_Modified_CB(evt->attr_handle, evt->data_length, evt->att_data);
 80072f0:	7a61      	ldrb	r1, [r4, #9]
				  if (bnrg_expansion_board == IDB05A1) {
 80072f2:	781b      	ldrb	r3, [r3, #0]
 80072f4:	f8b0 0007 	ldrh.w	r0, [r0, #7]
 80072f8:	2b01      	cmp	r3, #1
					Attribute_Modified_CB(evt->attr_handle, evt->data_length, evt->att_data);
 80072fa:	bf0c      	ite	eq
 80072fc:	f104 020c 	addeq.w	r2, r4, #12
					Attribute_Modified_CB(evt->attr_handle, evt->data_length, evt->att_data);
 8007300:	f104 020a 	addne.w	r2, r4, #10
}
 8007304:	e8bd 4010 	ldmia.w	sp!, {r4, lr}
					Attribute_Modified_CB(evt->attr_handle, evt->data_length, evt->att_data);
 8007308:	f7ff be86 	b.w	8007018 <Attribute_Modified_CB>
				  GATT_Notification_CB(evt->attr_handle, evt->event_data_length - 2, evt->attr_value, evt->conn_handle);
 800730c:	79c1      	ldrb	r1, [r0, #7]
 800730e:	f8b0 3005 	ldrh.w	r3, [r0, #5]
 8007312:	3902      	subs	r1, #2
 8007314:	f100 020a 	add.w	r2, r0, #10
 8007318:	b2c9      	uxtb	r1, r1
 800731a:	8900      	ldrh	r0, [r0, #8]
}
 800731c:	e8bd 4010 	ldmia.w	sp!, {r4, lr}
				  GATT_Notification_CB(evt->attr_handle, evt->event_data_length - 2, evt->attr_value, evt->conn_handle);
 8007320:	f7ff bef2 	b.w	8007108 <GATT_Notification_CB>
				if(BLE_Role == CLIENT) {
 8007324:	4b35      	ldr	r3, [pc, #212]	; (80073fc <user_notify+0x188>)
 8007326:	781b      	ldrb	r3, [r3, #0]
 8007328:	2b00      	cmp	r3, #0
 800732a:	d163      	bne.n	80073f4 <user_notify+0x180>
				  if (start_read_tx_char_handle && !all_tx_char_handles_read)
 800732c:	4b34      	ldr	r3, [pc, #208]	; (8007400 <user_notify+0x18c>)
 800732e:	781b      	ldrb	r3, [r3, #0]
 8007330:	b143      	cbz	r3, 8007344 <user_notify+0xd0>
 8007332:	4b34      	ldr	r3, [pc, #208]	; (8007404 <user_notify+0x190>)
 8007334:	781b      	ldrb	r3, [r3, #0]
 8007336:	b92b      	cbnz	r3, 8007344 <user_notify+0xd0>
					txHandles[txHandlesDiscoveredCount] = resp->attr_handle;
 8007338:	4b33      	ldr	r3, [pc, #204]	; (8007408 <user_notify+0x194>)
 800733a:	8901      	ldrh	r1, [r0, #8]
 800733c:	781a      	ldrb	r2, [r3, #0]
 800733e:	4b33      	ldr	r3, [pc, #204]	; (800740c <user_notify+0x198>)
 8007340:	f823 1012 	strh.w	r1, [r3, r2, lsl #1]
				  if (start_read_rx_char_handle && !all_rx_char_handles_read)
 8007344:	4b32      	ldr	r3, [pc, #200]	; (8007410 <user_notify+0x19c>)
 8007346:	781b      	ldrb	r3, [r3, #0]
 8007348:	2b00      	cmp	r3, #0
 800734a:	d053      	beq.n	80073f4 <user_notify+0x180>
 800734c:	4b31      	ldr	r3, [pc, #196]	; (8007414 <user_notify+0x1a0>)
 800734e:	781b      	ldrb	r3, [r3, #0]
 8007350:	2b00      	cmp	r3, #0
 8007352:	d14f      	bne.n	80073f4 <user_notify+0x180>
					rxHandles[rxHandlesDiscoveredCount] = resp->attr_handle;
 8007354:	4b30      	ldr	r3, [pc, #192]	; (8007418 <user_notify+0x1a4>)
 8007356:	8921      	ldrh	r1, [r4, #8]
 8007358:	781a      	ldrb	r2, [r3, #0]
 800735a:	4b30      	ldr	r3, [pc, #192]	; (800741c <user_notify+0x1a8>)
 800735c:	f823 1012 	strh.w	r1, [r3, r2, lsl #1]
 8007360:	bd10      	pop	{r4, pc}
			    if(BLE_Role == CLIENT) {
 8007362:	4b26      	ldr	r3, [pc, #152]	; (80073fc <user_notify+0x188>)
 8007364:	781b      	ldrb	r3, [r3, #0]
 8007366:	2b00      	cmp	r3, #0
 8007368:	d144      	bne.n	80073f4 <user_notify+0x180>
				  if(evt->error_code == BLE_STATUS_SUCCESS){
 800736a:	7a03      	ldrb	r3, [r0, #8]
 800736c:	2b00      	cmp	r3, #0
 800736e:	d141      	bne.n	80073f4 <user_notify+0x180>
					  if (start_read_tx_char_handle && !all_tx_char_handles_read)
 8007370:	4b23      	ldr	r3, [pc, #140]	; (8007400 <user_notify+0x18c>)
 8007372:	781b      	ldrb	r3, [r3, #0]
 8007374:	b183      	cbz	r3, 8007398 <user_notify+0x124>
 8007376:	4a23      	ldr	r2, [pc, #140]	; (8007404 <user_notify+0x190>)
 8007378:	7811      	ldrb	r1, [r2, #0]
 800737a:	b969      	cbnz	r1, 8007398 <user_notify+0x124>
						txHandlesDiscoveredCount++;
 800737c:	4922      	ldr	r1, [pc, #136]	; (8007408 <user_notify+0x194>)
 800737e:	780b      	ldrb	r3, [r1, #0]
 8007380:	3301      	adds	r3, #1
 8007382:	b2db      	uxtb	r3, r3
 8007384:	700b      	strb	r3, [r1, #0]
						if(txHandlesDiscoveredCount == connectedDevicesCount){
 8007386:	4926      	ldr	r1, [pc, #152]	; (8007420 <user_notify+0x1ac>)
 8007388:	7808      	ldrb	r0, [r1, #0]
 800738a:	4283      	cmp	r3, r0
 800738c:	d11a      	bne.n	80073c4 <user_notify+0x150>
							all_tx_char_handles_read = TRUE;
 800738e:	2301      	movs	r3, #1
							printf("All TX handles read!\r\n\r\n");
 8007390:	4824      	ldr	r0, [pc, #144]	; (8007424 <user_notify+0x1b0>)
							all_tx_char_handles_read = TRUE;
 8007392:	7013      	strb	r3, [r2, #0]
							printf("All TX handles read!\r\n\r\n");
 8007394:	f001 f8fc 	bl	8008590 <puts>
					  if (start_read_rx_char_handle && !all_rx_char_handles_read)
 8007398:	4b1d      	ldr	r3, [pc, #116]	; (8007410 <user_notify+0x19c>)
 800739a:	781b      	ldrb	r3, [r3, #0]
 800739c:	b353      	cbz	r3, 80073f4 <user_notify+0x180>
 800739e:	491d      	ldr	r1, [pc, #116]	; (8007414 <user_notify+0x1a0>)
 80073a0:	780b      	ldrb	r3, [r1, #0]
 80073a2:	bb3b      	cbnz	r3, 80073f4 <user_notify+0x180>
						rxHandlesDiscoveredCount++;
 80073a4:	4a1c      	ldr	r2, [pc, #112]	; (8007418 <user_notify+0x1a4>)
 80073a6:	7813      	ldrb	r3, [r2, #0]
 80073a8:	3301      	adds	r3, #1
 80073aa:	b2db      	uxtb	r3, r3
 80073ac:	7013      	strb	r3, [r2, #0]
						if(rxHandlesDiscoveredCount == connectedDevicesCount){
 80073ae:	4a1c      	ldr	r2, [pc, #112]	; (8007420 <user_notify+0x1ac>)
 80073b0:	7810      	ldrb	r0, [r2, #0]
 80073b2:	4283      	cmp	r3, r0
 80073b4:	d10c      	bne.n	80073d0 <user_notify+0x15c>
							all_rx_char_handles_read = TRUE;
 80073b6:	2301      	movs	r3, #1
							printf("All RX handles read!\r\n\r\n");
 80073b8:	481b      	ldr	r0, [pc, #108]	; (8007428 <user_notify+0x1b4>)
							all_rx_char_handles_read = TRUE;
 80073ba:	700b      	strb	r3, [r1, #0]
}
 80073bc:	e8bd 4010 	ldmia.w	sp!, {r4, lr}
							printf("All RX handles read!\r\n\r\n");
 80073c0:	f001 b8e6 	b.w	8008590 <puts>
						else if(txHandlesDiscoveredCount < connectedDevicesCount){
 80073c4:	780a      	ldrb	r2, [r1, #0]
 80073c6:	4293      	cmp	r3, r2
 80073c8:	d2e6      	bcs.n	8007398 <user_notify+0x124>
							startReadTXCharHandle();
 80073ca:	f7ff fd41 	bl	8006e50 <startReadTXCharHandle>
 80073ce:	e7e3      	b.n	8007398 <user_notify+0x124>
						else if(rxHandlesDiscoveredCount < connectedDevicesCount){
 80073d0:	7812      	ldrb	r2, [r2, #0]
 80073d2:	4293      	cmp	r3, r2
 80073d4:	d20e      	bcs.n	80073f4 <user_notify+0x180>
}
 80073d6:	e8bd 4010 	ldmia.w	sp!, {r4, lr}
							startReadRXCharHandle();
 80073da:	f7ff bd69 	b.w	8006eb0 <startReadRXCharHandle>
				  if(evt->procedure_code == GAP_GENERAL_DISCOVERY_PROC && evt->status == BLE_STATUS_SUCCESS){
 80073de:	7943      	ldrb	r3, [r0, #5]
 80073e0:	2b02      	cmp	r3, #2
 80073e2:	d107      	bne.n	80073f4 <user_notify+0x180>
 80073e4:	7983      	ldrb	r3, [r0, #6]
 80073e6:	b92b      	cbnz	r3, 80073f4 <user_notify+0x180>
					  printf("Scanning for devices finished\r\n\r\n");
 80073e8:	4810      	ldr	r0, [pc, #64]	; (800742c <user_notify+0x1b8>)
 80073ea:	f001 f8d1 	bl	8008590 <puts>
					  discovery_finished = TRUE;
 80073ee:	4b10      	ldr	r3, [pc, #64]	; (8007430 <user_notify+0x1bc>)
 80073f0:	2201      	movs	r2, #1
 80073f2:	701a      	strb	r2, [r3, #0]
 80073f4:	bd10      	pop	{r4, pc}
 80073f6:	bf00      	nop
 80073f8:	20003199 	.word	0x20003199
 80073fc:	20003198 	.word	0x20003198
 8007400:	200042ac 	.word	0x200042ac
 8007404:	200042a2 	.word	0x200042a2
 8007408:	200042ad 	.word	0x200042ad
 800740c:	20004324 	.word	0x20004324
 8007410:	200042ab 	.word	0x200042ab
 8007414:	200042a0 	.word	0x200042a0
 8007418:	200042a9 	.word	0x200042a9
 800741c:	20004314 	.word	0x20004314
 8007420:	200042a4 	.word	0x200042a4
 8007424:	0800bb79 	.word	0x0800bb79
 8007428:	0800bb91 	.word	0x0800bb91
 800742c:	0800bba9 	.word	0x0800bba9
 8007430:	200042a5 	.word	0x200042a5

08007434 <HAL_MspInit>:
{
  /* USER CODE BEGIN MspInit 0 */

  /* USER CODE END MspInit 0 */

  __HAL_RCC_SYSCFG_CLK_ENABLE();
 8007434:	4b0e      	ldr	r3, [pc, #56]	; (8007470 <HAL_MspInit+0x3c>)
{
 8007436:	b507      	push	{r0, r1, r2, lr}
  __HAL_RCC_SYSCFG_CLK_ENABLE();
 8007438:	6e1a      	ldr	r2, [r3, #96]	; 0x60
 800743a:	f042 0201 	orr.w	r2, r2, #1
 800743e:	661a      	str	r2, [r3, #96]	; 0x60
 8007440:	6e1a      	ldr	r2, [r3, #96]	; 0x60
 8007442:	f002 0201 	and.w	r2, r2, #1
 8007446:	9200      	str	r2, [sp, #0]
 8007448:	9a00      	ldr	r2, [sp, #0]
  __HAL_RCC_PWR_CLK_ENABLE();
 800744a:	6d9a      	ldr	r2, [r3, #88]	; 0x58
 800744c:	f042 5280 	orr.w	r2, r2, #268435456	; 0x10000000
 8007450:	659a      	str	r2, [r3, #88]	; 0x58
 8007452:	6d9b      	ldr	r3, [r3, #88]	; 0x58
 8007454:	f003 5380 	and.w	r3, r3, #268435456	; 0x10000000
 8007458:	9301      	str	r3, [sp, #4]

  /* System interrupt init*/
  /* PendSV_IRQn interrupt configuration */
  HAL_NVIC_SetPriority(PendSV_IRQn, 15, 0);
 800745a:	2200      	movs	r2, #0
 800745c:	210f      	movs	r1, #15
 800745e:	f06f 0001 	mvn.w	r0, #1
  __HAL_RCC_PWR_CLK_ENABLE();
 8007462:	9b01      	ldr	r3, [sp, #4]
  HAL_NVIC_SetPriority(PendSV_IRQn, 15, 0);
 8007464:	f7fa fcfe 	bl	8001e64 <HAL_NVIC_SetPriority>

  /* USER CODE BEGIN MspInit 1 */

  /* USER CODE END MspInit 1 */
}
 8007468:	b003      	add	sp, #12
 800746a:	f85d fb04 	ldr.w	pc, [sp], #4
 800746e:	bf00      	nop
 8007470:	40021000 	.word	0x40021000

08007474 <HAL_UART_MspInit>:
* This function configures the hardware resources used in this example
* @param huart: UART handle pointer
* @retval None
*/
void HAL_UART_MspInit(UART_HandleTypeDef* huart)
{
 8007474:	b510      	push	{r4, lr}
 8007476:	4604      	mov	r4, r0
 8007478:	b088      	sub	sp, #32
  GPIO_InitTypeDef GPIO_InitStruct = {0};
 800747a:	2214      	movs	r2, #20
 800747c:	2100      	movs	r1, #0
 800747e:	a803      	add	r0, sp, #12
 8007480:	f000 ffe5 	bl	800844e <memset>
  if(huart->Instance==USART3)
 8007484:	6822      	ldr	r2, [r4, #0]
 8007486:	4b12      	ldr	r3, [pc, #72]	; (80074d0 <HAL_UART_MspInit+0x5c>)
 8007488:	429a      	cmp	r2, r3
 800748a:	d11f      	bne.n	80074cc <HAL_UART_MspInit+0x58>
  {
  /* USER CODE BEGIN USART3_MspInit 0 */

  /* USER CODE END USART3_MspInit 0 */
    /* Peripheral clock enable */
    __HAL_RCC_USART3_CLK_ENABLE();
 800748c:	f503 33e4 	add.w	r3, r3, #116736	; 0x1c800
    GPIO_InitStruct.Pin = GPIO_PIN_4|GPIO_PIN_5;
    GPIO_InitStruct.Mode = GPIO_MODE_AF_PP;
    GPIO_InitStruct.Pull = GPIO_NOPULL;
    GPIO_InitStruct.Speed = GPIO_SPEED_FREQ_VERY_HIGH;
    GPIO_InitStruct.Alternate = GPIO_AF7_USART3;
    HAL_GPIO_Init(GPIOC, &GPIO_InitStruct);
 8007490:	a903      	add	r1, sp, #12
    __HAL_RCC_USART3_CLK_ENABLE();
 8007492:	6d9a      	ldr	r2, [r3, #88]	; 0x58
    HAL_GPIO_Init(GPIOC, &GPIO_InitStruct);
 8007494:	480f      	ldr	r0, [pc, #60]	; (80074d4 <HAL_UART_MspInit+0x60>)
    __HAL_RCC_USART3_CLK_ENABLE();
 8007496:	f442 2280 	orr.w	r2, r2, #262144	; 0x40000
 800749a:	659a      	str	r2, [r3, #88]	; 0x58
 800749c:	6d9a      	ldr	r2, [r3, #88]	; 0x58
 800749e:	f402 2280 	and.w	r2, r2, #262144	; 0x40000
 80074a2:	9201      	str	r2, [sp, #4]
 80074a4:	9a01      	ldr	r2, [sp, #4]
    __HAL_RCC_GPIOC_CLK_ENABLE();
 80074a6:	6cda      	ldr	r2, [r3, #76]	; 0x4c
 80074a8:	f042 0204 	orr.w	r2, r2, #4
 80074ac:	64da      	str	r2, [r3, #76]	; 0x4c
 80074ae:	6cdb      	ldr	r3, [r3, #76]	; 0x4c
 80074b0:	f003 0304 	and.w	r3, r3, #4
 80074b4:	9302      	str	r3, [sp, #8]
 80074b6:	9b02      	ldr	r3, [sp, #8]
    GPIO_InitStruct.Pin = GPIO_PIN_4|GPIO_PIN_5;
 80074b8:	2330      	movs	r3, #48	; 0x30
 80074ba:	9303      	str	r3, [sp, #12]
    GPIO_InitStruct.Mode = GPIO_MODE_AF_PP;
 80074bc:	2302      	movs	r3, #2
 80074be:	9304      	str	r3, [sp, #16]
    GPIO_InitStruct.Speed = GPIO_SPEED_FREQ_VERY_HIGH;
 80074c0:	2303      	movs	r3, #3
 80074c2:	9306      	str	r3, [sp, #24]
    GPIO_InitStruct.Alternate = GPIO_AF7_USART3;
 80074c4:	2307      	movs	r3, #7
 80074c6:	9307      	str	r3, [sp, #28]
    HAL_GPIO_Init(GPIOC, &GPIO_InitStruct);
 80074c8:	f7fa fd32 	bl	8001f30 <HAL_GPIO_Init>
  /* USER CODE BEGIN USART3_MspInit 1 */

  /* USER CODE END USART3_MspInit 1 */
  }

}
 80074cc:	b008      	add	sp, #32
 80074ce:	bd10      	pop	{r4, pc}
 80074d0:	40004800 	.word	0x40004800
 80074d4:	48000800 	.word	0x48000800

080074d8 <HAL_InitTick>:
  *         reset by HAL_Init() or at any time when clock is configured, by HAL_RCC_ClockConfig(). 
  * @param  TickPriority: Tick interrupt priority.
  * @retval HAL status
  */
HAL_StatusTypeDef HAL_InitTick(uint32_t TickPriority)
{
 80074d8:	b510      	push	{r4, lr}
  uint32_t              uwTimclock = 0;
  uint32_t              uwPrescalerValue = 0;
  uint32_t              pFLatency;
  
  /*Configure the TIM3 IRQ priority */
  HAL_NVIC_SetPriority(TIM3_IRQn, TickPriority ,0); 
 80074da:	4601      	mov	r1, r0
{
 80074dc:	b088      	sub	sp, #32
  HAL_NVIC_SetPriority(TIM3_IRQn, TickPriority ,0); 
 80074de:	2200      	movs	r2, #0
 80074e0:	201d      	movs	r0, #29
 80074e2:	f7fa fcbf 	bl	8001e64 <HAL_NVIC_SetPriority>
  
  /* Enable the TIM3 global Interrupt */
  HAL_NVIC_EnableIRQ(TIM3_IRQn); 
 80074e6:	201d      	movs	r0, #29
 80074e8:	f7fa fcf0 	bl	8001ecc <HAL_NVIC_EnableIRQ>
  
  /* Enable TIM3 clock */
  __HAL_RCC_TIM3_CLK_ENABLE();
 80074ec:	4b14      	ldr	r3, [pc, #80]	; (8007540 <HAL_InitTick+0x68>)
   
  /* Compute the prescaler value to have TIM3 counter clock equal to 1MHz */
  uwPrescalerValue = (uint32_t) ((uwTimclock / 1000000) - 1);
  
  /* Initialize TIM3 */
  htim3.Instance = TIM3;
 80074ee:	4c15      	ldr	r4, [pc, #84]	; (8007544 <HAL_InitTick+0x6c>)
  __HAL_RCC_TIM3_CLK_ENABLE();
 80074f0:	6d9a      	ldr	r2, [r3, #88]	; 0x58
 80074f2:	f042 0202 	orr.w	r2, r2, #2
 80074f6:	659a      	str	r2, [r3, #88]	; 0x58
 80074f8:	6d9b      	ldr	r3, [r3, #88]	; 0x58
 80074fa:	f003 0302 	and.w	r3, r3, #2
 80074fe:	9302      	str	r3, [sp, #8]
  HAL_RCC_GetClockConfig(&clkconfig, &pFLatency);
 8007500:	a901      	add	r1, sp, #4
 8007502:	a803      	add	r0, sp, #12
  __HAL_RCC_TIM3_CLK_ENABLE();
 8007504:	9b02      	ldr	r3, [sp, #8]
  HAL_RCC_GetClockConfig(&clkconfig, &pFLatency);
 8007506:	f7fb fa93 	bl	8002a30 <HAL_RCC_GetClockConfig>
  uwTimclock = HAL_RCC_GetPCLK1Freq();
 800750a:	f7fb fa6d 	bl	80029e8 <HAL_RCC_GetPCLK1Freq>
  htim3.Instance = TIM3;
 800750e:	4b0e      	ldr	r3, [pc, #56]	; (8007548 <HAL_InitTick+0x70>)
 8007510:	6023      	str	r3, [r4, #0]
  + Period = [(TIM3CLK/1000) - 1]. to have a (1/1000) s time base.
  + Prescaler = (uwTimclock/1000000 - 1) to have a 1MHz counter clock.
  + ClockDivision = 0
  + Counter direction = Up
  */
  htim3.Init.Period = (1000000 / 1000) - 1;
 8007512:	f240 33e7 	movw	r3, #999	; 0x3e7
 8007516:	60e3      	str	r3, [r4, #12]
  uwPrescalerValue = (uint32_t) ((uwTimclock / 1000000) - 1);
 8007518:	4b0c      	ldr	r3, [pc, #48]	; (800754c <HAL_InitTick+0x74>)
 800751a:	fbb0 f0f3 	udiv	r0, r0, r3
 800751e:	3801      	subs	r0, #1
  htim3.Init.Prescaler = uwPrescalerValue;
  htim3.Init.ClockDivision = 0;
 8007520:	2300      	movs	r3, #0
  htim3.Init.Prescaler = uwPrescalerValue;
 8007522:	6060      	str	r0, [r4, #4]
  htim3.Init.CounterMode = TIM_COUNTERMODE_UP;
  if(HAL_TIM_Base_Init(&htim3) == HAL_OK)
 8007524:	4620      	mov	r0, r4
  htim3.Init.ClockDivision = 0;
 8007526:	6123      	str	r3, [r4, #16]
  htim3.Init.CounterMode = TIM_COUNTERMODE_UP;
 8007528:	60a3      	str	r3, [r4, #8]
  if(HAL_TIM_Base_Init(&htim3) == HAL_OK)
 800752a:	f7fc f8b7 	bl	800369c <HAL_TIM_Base_Init>
 800752e:	b920      	cbnz	r0, 800753a <HAL_InitTick+0x62>
  {
    /* Start the TIM time Base generation in interrupt mode */
    return HAL_TIM_Base_Start_IT(&htim3);
 8007530:	4620      	mov	r0, r4
 8007532:	f7fb ff83 	bl	800343c <HAL_TIM_Base_Start_IT>
  }
  
  /* Return function status */
  return HAL_ERROR;
}
 8007536:	b008      	add	sp, #32
 8007538:	bd10      	pop	{r4, pc}
  return HAL_ERROR;
 800753a:	2001      	movs	r0, #1
 800753c:	e7fb      	b.n	8007536 <HAL_InitTick+0x5e>
 800753e:	bf00      	nop
 8007540:	40021000 	.word	0x40021000
 8007544:	20004338 	.word	0x20004338
 8007548:	40000400 	.word	0x40000400
 800754c:	000f4240 	.word	0x000f4240

08007550 <NMI_Handler>:
 8007550:	4770      	bx	lr

08007552 <HardFault_Handler>:

/**
  * @brief This function handles Hard fault interrupt.
  */
void HardFault_Handler(void)
{
 8007552:	e7fe      	b.n	8007552 <HardFault_Handler>

08007554 <MemManage_Handler>:

/**
  * @brief This function handles Memory management fault.
  */
void MemManage_Handler(void)
{
 8007554:	e7fe      	b.n	8007554 <MemManage_Handler>

08007556 <BusFault_Handler>:

/**
  * @brief This function handles Prefetch fault, memory access fault.
  */
void BusFault_Handler(void)
{
 8007556:	e7fe      	b.n	8007556 <BusFault_Handler>

08007558 <UsageFault_Handler>:

/**
  * @brief This function handles Undefined instruction or illegal state.
  */
void UsageFault_Handler(void)
{
 8007558:	e7fe      	b.n	8007558 <UsageFault_Handler>

0800755a <DebugMon_Handler>:

/**
  * @brief This function handles Debug monitor.
  */
void DebugMon_Handler(void)
{
 800755a:	4770      	bx	lr

0800755c <EXTI0_IRQHandler>:
void EXTI0_IRQHandler(void)
{
  /* USER CODE BEGIN EXTI0_IRQn 0 */

  /* USER CODE END EXTI0_IRQn 0 */
  HAL_EXTI_IRQHandler(&H_EXTI_0);
 800755c:	4801      	ldr	r0, [pc, #4]	; (8007564 <EXTI0_IRQHandler+0x8>)
 800755e:	f7fa bccf 	b.w	8001f00 <HAL_EXTI_IRQHandler>
 8007562:	bf00      	nop
 8007564:	20004308 	.word	0x20004308

08007568 <TIM3_IRQHandler>:
void TIM3_IRQHandler(void)
{
  /* USER CODE BEGIN TIM3_IRQn 0 */

  /* USER CODE END TIM3_IRQn 0 */
  HAL_TIM_IRQHandler(&htim3);
 8007568:	4801      	ldr	r0, [pc, #4]	; (8007570 <TIM3_IRQHandler+0x8>)
 800756a:	f7fb bf81 	b.w	8003470 <HAL_TIM_IRQHandler>
 800756e:	bf00      	nop
 8007570:	20004338 	.word	0x20004338

08007574 <EXTI15_10_IRQHandler>:
void EXTI15_10_IRQHandler(void)
{
  /* USER CODE BEGIN EXTI15_10_IRQn 0 */

  /* USER CODE END EXTI15_10_IRQn 0 */
  HAL_EXTI_IRQHandler(&H_EXTI_13);
 8007574:	4801      	ldr	r0, [pc, #4]	; (800757c <EXTI15_10_IRQHandler+0x8>)
 8007576:	f7fa bcc3 	b.w	8001f00 <HAL_EXTI_IRQHandler>
 800757a:	bf00      	nop
 800757c:	20000014 	.word	0x20000014

08007580 <BSP_LED_Init>:
int32_t BSP_LED_Init(Led_TypeDef Led)
{
  GPIO_InitTypeDef GPIO_InitStruct;
  
  /* LED2 is on the same GPIO Port */
  LED2_GPIO_CLK_ENABLE();    
 8007580:	4b10      	ldr	r3, [pc, #64]	; (80075c4 <BSP_LED_Init+0x44>)
{
 8007582:	b510      	push	{r4, lr}
  LED2_GPIO_CLK_ENABLE();    
 8007584:	6cda      	ldr	r2, [r3, #76]	; 0x4c
 8007586:	f042 0201 	orr.w	r2, r2, #1
 800758a:	64da      	str	r2, [r3, #76]	; 0x4c
 800758c:	6cdb      	ldr	r3, [r3, #76]	; 0x4c
{
 800758e:	b086      	sub	sp, #24
  LED2_GPIO_CLK_ENABLE();    
 8007590:	f003 0301 	and.w	r3, r3, #1
 8007594:	9300      	str	r3, [sp, #0]
 8007596:	9b00      	ldr	r3, [sp, #0]
  
  /* Configure the GPIO_LED pin */
  GPIO_InitStruct.Pin   = LED_PIN [Led];
  GPIO_InitStruct.Mode  = GPIO_MODE_OUTPUT_PP;
 8007598:	2301      	movs	r3, #1
  GPIO_InitStruct.Pin   = LED_PIN [Led];
 800759a:	2420      	movs	r4, #32
  GPIO_InitStruct.Mode  = GPIO_MODE_OUTPUT_PP;
 800759c:	9302      	str	r3, [sp, #8]
  GPIO_InitStruct.Pull  = GPIO_PULLUP;
 800759e:	9303      	str	r3, [sp, #12]
  GPIO_InitStruct.Speed = GPIO_SPEED_FREQ_HIGH; 
  
  HAL_GPIO_Init(LED_PORT [Led], &GPIO_InitStruct); 
 80075a0:	a901      	add	r1, sp, #4
  GPIO_InitStruct.Speed = GPIO_SPEED_FREQ_HIGH; 
 80075a2:	2302      	movs	r3, #2
  HAL_GPIO_Init(LED_PORT [Led], &GPIO_InitStruct); 
 80075a4:	f04f 4090 	mov.w	r0, #1207959552	; 0x48000000
  GPIO_InitStruct.Speed = GPIO_SPEED_FREQ_HIGH; 
 80075a8:	9304      	str	r3, [sp, #16]
  GPIO_InitStruct.Pin   = LED_PIN [Led];
 80075aa:	9401      	str	r4, [sp, #4]
  HAL_GPIO_Init(LED_PORT [Led], &GPIO_InitStruct); 
 80075ac:	f7fa fcc0 	bl	8001f30 <HAL_GPIO_Init>
  HAL_GPIO_WritePin(LED_PORT [Led], LED_PIN [Led], GPIO_PIN_RESET);
 80075b0:	2200      	movs	r2, #0
 80075b2:	4621      	mov	r1, r4
 80075b4:	f04f 4090 	mov.w	r0, #1207959552	; 0x48000000
 80075b8:	f7fa fe26 	bl	8002208 <HAL_GPIO_WritePin>
  
  return BSP_ERROR_NONE;
}
 80075bc:	2000      	movs	r0, #0
 80075be:	b006      	add	sp, #24
 80075c0:	bd10      	pop	{r4, pc}
 80075c2:	bf00      	nop
 80075c4:	40021000 	.word	0x40021000

080075c8 <BSP_LED_On>:
 *              @arg  LED3
 *              @arg  LED4
 * @retval HAL status
 */
int32_t BSP_LED_On(Led_TypeDef Led)
{
 80075c8:	b508      	push	{r3, lr}
  HAL_GPIO_WritePin(LED_PORT [Led], LED_PIN [Led], GPIO_PIN_SET);
 80075ca:	2201      	movs	r2, #1
 80075cc:	2120      	movs	r1, #32
 80075ce:	f04f 4090 	mov.w	r0, #1207959552	; 0x48000000
 80075d2:	f7fa fe19 	bl	8002208 <HAL_GPIO_WritePin>
  
  return BSP_ERROR_NONE;
}
 80075d6:	2000      	movs	r0, #0
 80075d8:	bd08      	pop	{r3, pc}

080075da <BSP_LED_Off>:
 *              @arg  LED3
 *              @arg  LED4
 * @retval HAL status
 */
int32_t BSP_LED_Off(Led_TypeDef Led)
{
 80075da:	b508      	push	{r3, lr}
  HAL_GPIO_WritePin(LED_PORT [Led], LED_PIN [Led], GPIO_PIN_RESET);
 80075dc:	2200      	movs	r2, #0
 80075de:	2120      	movs	r1, #32
 80075e0:	f04f 4090 	mov.w	r0, #1207959552	; 0x48000000
 80075e4:	f7fa fe10 	bl	8002208 <HAL_GPIO_WritePin>
  
  return BSP_ERROR_NONE;
}
 80075e8:	2000      	movs	r0, #0
 80075ea:	bd08      	pop	{r3, pc}

080075ec <BSP_PB_Init>:
  static const BSP_EXTI_LineCallback ButtonCallback[BUTTONn] ={BUTTON_USER_EXTI_Callback};                                                
  static const uint32_t  BSP_BUTTON_PRIO [BUTTONn] ={BSP_BUTTON_USER_IT_PRIORITY};  											     
  static const uint32_t BUTTON_EXTI_LINE[BUTTONn] ={USER_BUTTON_EXTI_LINE};
  
  /* Enable the BUTTON clock*/ 
  USER_BUTTON_GPIO_CLK_ENABLE();
 80075ec:	4b1f      	ldr	r3, [pc, #124]	; (800766c <BSP_PB_Init+0x80>)
{
 80075ee:	b530      	push	{r4, r5, lr}
  USER_BUTTON_GPIO_CLK_ENABLE();
 80075f0:	6cda      	ldr	r2, [r3, #76]	; 0x4c
 80075f2:	f042 0204 	orr.w	r2, r2, #4
 80075f6:	64da      	str	r2, [r3, #76]	; 0x4c
 80075f8:	6cdb      	ldr	r3, [r3, #76]	; 0x4c
{
 80075fa:	b087      	sub	sp, #28
  USER_BUTTON_GPIO_CLK_ENABLE();
 80075fc:	f003 0304 	and.w	r3, r3, #4
 8007600:	9300      	str	r3, [sp, #0]
 8007602:	9b00      	ldr	r3, [sp, #0]
  gpio_init_structure.Pin = BUTTON_PIN [Button];
 8007604:	f44f 5300 	mov.w	r3, #8192	; 0x2000
 8007608:	9301      	str	r3, [sp, #4]
  gpio_init_structure.Pull = GPIO_PULLDOWN;
 800760a:	2302      	movs	r3, #2
{
 800760c:	4605      	mov	r5, r0
  gpio_init_structure.Pull = GPIO_PULLDOWN;
 800760e:	9303      	str	r3, [sp, #12]
  gpio_init_structure.Speed = GPIO_SPEED_FREQ_HIGH;
 8007610:	9304      	str	r3, [sp, #16]
  
  if(ButtonMode == BUTTON_MODE_GPIO)
 8007612:	460c      	mov	r4, r1
 8007614:	b931      	cbnz	r1, 8007624 <BSP_PB_Init+0x38>
  {
    /* Configure Button pin as input */
    gpio_init_structure.Mode = GPIO_MODE_INPUT;
 8007616:	9102      	str	r1, [sp, #8]
    HAL_GPIO_Init(BUTTON_PORT [Button], &gpio_init_structure);
 8007618:	4815      	ldr	r0, [pc, #84]	; (8007670 <BSP_PB_Init+0x84>)
 800761a:	a901      	add	r1, sp, #4
 800761c:	f7fa fc88 	bl	8001f30 <HAL_GPIO_Init>
  int32_t ret = BSP_ERROR_NONE;
 8007620:	4620      	mov	r0, r4
      HAL_NVIC_SetPriority((BUTTON_IRQn[Button]), BSP_BUTTON_PRIO[Button], 0x00);
      HAL_NVIC_EnableIRQ((BUTTON_IRQn[Button]));
	}
  }
  
  return ret;
 8007622:	e010      	b.n	8007646 <BSP_PB_Init+0x5a>
    if(HAL_EXTI_GetHandle(&hpb_exti[Button], BUTTON_EXTI_LINE[Button]) != HAL_OK)
 8007624:	4c13      	ldr	r4, [pc, #76]	; (8007674 <BSP_PB_Init+0x88>)
    gpio_init_structure.Mode = GPIO_MODE_IT_RISING;
 8007626:	4b14      	ldr	r3, [pc, #80]	; (8007678 <BSP_PB_Init+0x8c>)
    HAL_GPIO_Init(BUTTON_PORT[Button], &gpio_init_structure);
 8007628:	4811      	ldr	r0, [pc, #68]	; (8007670 <BSP_PB_Init+0x84>)
    gpio_init_structure.Mode = GPIO_MODE_IT_RISING;
 800762a:	9302      	str	r3, [sp, #8]
    HAL_GPIO_Init(BUTTON_PORT[Button], &gpio_init_structure);
 800762c:	a901      	add	r1, sp, #4
    if(HAL_EXTI_GetHandle(&hpb_exti[Button], BUTTON_EXTI_LINE[Button]) != HAL_OK)
 800762e:	eb04 04c5 	add.w	r4, r4, r5, lsl #3
    HAL_GPIO_Init(BUTTON_PORT[Button], &gpio_init_structure);
 8007632:	f7fa fc7d 	bl	8001f30 <HAL_GPIO_Init>
    if(HAL_EXTI_GetHandle(&hpb_exti[Button], BUTTON_EXTI_LINE[Button]) != HAL_OK)
 8007636:	4911      	ldr	r1, [pc, #68]	; (800767c <BSP_PB_Init+0x90>)
 8007638:	4620      	mov	r0, r4
 800763a:	f7fa fc5b 	bl	8001ef4 <HAL_EXTI_GetHandle>
 800763e:	4601      	mov	r1, r0
 8007640:	b118      	cbz	r0, 800764a <BSP_PB_Init+0x5e>
      ret = BSP_ERROR_PERIPH_FAILURE;
 8007642:	f06f 0003 	mvn.w	r0, #3
}
 8007646:	b007      	add	sp, #28
 8007648:	bd30      	pop	{r4, r5, pc}
    else if (HAL_EXTI_RegisterCallback(&hpb_exti[Button],  HAL_EXTI_COMMON_CB_ID, ButtonCallback[Button]) != HAL_OK)
 800764a:	4620      	mov	r0, r4
 800764c:	4a0c      	ldr	r2, [pc, #48]	; (8007680 <BSP_PB_Init+0x94>)
 800764e:	f7fa fc4b 	bl	8001ee8 <HAL_EXTI_RegisterCallback>
 8007652:	4604      	mov	r4, r0
 8007654:	2800      	cmp	r0, #0
 8007656:	d1f4      	bne.n	8007642 <BSP_PB_Init+0x56>
      HAL_NVIC_SetPriority((BUTTON_IRQn[Button]), BSP_BUTTON_PRIO[Button], 0x00);
 8007658:	4602      	mov	r2, r0
 800765a:	210f      	movs	r1, #15
 800765c:	2028      	movs	r0, #40	; 0x28
 800765e:	f7fa fc01 	bl	8001e64 <HAL_NVIC_SetPriority>
      HAL_NVIC_EnableIRQ((BUTTON_IRQn[Button]));
 8007662:	2028      	movs	r0, #40	; 0x28
 8007664:	f7fa fc32 	bl	8001ecc <HAL_NVIC_EnableIRQ>
 8007668:	e7da      	b.n	8007620 <BSP_PB_Init+0x34>
 800766a:	bf00      	nop
 800766c:	40021000 	.word	0x40021000
 8007670:	48000800 	.word	0x48000800
 8007674:	20000014 	.word	0x20000014
 8007678:	10110000 	.word	0x10110000
 800767c:	1600000d 	.word	0x1600000d
 8007680:	0800769d 	.word	0x0800769d

08007684 <BSP_PB_GetState>:
 *                This parameter can be one of the following values:
 *                @arg  BUTTON_USER
 * @retval The Button GPIO pin value (GPIO_PIN_RESET = button pressed)
 */
int32_t BSP_PB_GetState(Button_TypeDef Button)
{
 8007684:	b508      	push	{r3, lr}
  return (int32_t)(HAL_GPIO_ReadPin(BUTTON_PORT[Button], BUTTON_PIN[Button]) == GPIO_PIN_RESET);
 8007686:	f44f 5100 	mov.w	r1, #8192	; 0x2000
 800768a:	4803      	ldr	r0, [pc, #12]	; (8007698 <BSP_PB_GetState+0x14>)
 800768c:	f7fa fdb6 	bl	80021fc <HAL_GPIO_ReadPin>
}
 8007690:	fab0 f080 	clz	r0, r0
 8007694:	0940      	lsrs	r0, r0, #5
 8007696:	bd08      	pop	{r3, pc}
 8007698:	48000800 	.word	0x48000800

0800769c <BUTTON_USER_EXTI_Callback>:
/**
  * @brief  User EXTI line detection callbacks.
  * @retval None
  */
static void BUTTON_USER_EXTI_Callback(void)
{   
 800769c:	b508      	push	{r3, lr}
  BSP_PB_Callback(BUTTON_USER);
 800769e:	2000      	movs	r0, #0
 80076a0:	f7fe fc4a 	bl	8005f38 <BSP_PB_Callback>
 80076a4:	bd08      	pop	{r3, pc}
	...

080076a8 <MX_USART2_UART_Init>:

__weak HAL_StatusTypeDef MX_USART2_UART_Init(UART_HandleTypeDef* huart)
{
  HAL_StatusTypeDef ret = HAL_OK;
  huart->Instance = USART2;
  huart->Init.BaudRate = 115200;
 80076a8:	4a0a      	ldr	r2, [pc, #40]	; (80076d4 <MX_USART2_UART_Init+0x2c>)
 80076aa:	f44f 3ce1 	mov.w	ip, #115200	; 0x1c200
{
 80076ae:	b508      	push	{r3, lr}
  huart->Init.WordLength = UART_WORDLENGTH_8B;
  huart->Init.StopBits = UART_STOPBITS_1;
  huart->Init.Parity = UART_PARITY_NONE;
  huart->Init.Mode = UART_MODE_TX_RX;
 80076b0:	210c      	movs	r1, #12
  huart->Init.BaudRate = 115200;
 80076b2:	e880 1004 	stmia.w	r0, {r2, ip}
  huart->Init.WordLength = UART_WORDLENGTH_8B;
 80076b6:	2200      	movs	r2, #0
 80076b8:	6082      	str	r2, [r0, #8]
  huart->Init.StopBits = UART_STOPBITS_1;
 80076ba:	60c2      	str	r2, [r0, #12]
  huart->Init.Parity = UART_PARITY_NONE;
 80076bc:	6102      	str	r2, [r0, #16]
  huart->Init.Mode = UART_MODE_TX_RX;
 80076be:	6141      	str	r1, [r0, #20]
  huart->Init.HwFlowCtl = UART_HWCONTROL_NONE;
 80076c0:	6182      	str	r2, [r0, #24]
  huart->Init.OverSampling = UART_OVERSAMPLING_16;
 80076c2:	61c2      	str	r2, [r0, #28]
  huart->Init.OneBitSampling = UART_ONE_BIT_SAMPLE_DISABLE;
 80076c4:	6202      	str	r2, [r0, #32]
  huart->AdvancedInit.AdvFeatureInit = UART_ADVFEATURE_NO_INIT;
 80076c6:	6242      	str	r2, [r0, #36]	; 0x24
  if (HAL_UART_Init(huart) != HAL_OK)
 80076c8:	f7fc fabd 	bl	8003c46 <HAL_UART_Init>
  {
    ret = HAL_ERROR;
  }

  return ret;
}
 80076cc:	3000      	adds	r0, #0
 80076ce:	bf18      	it	ne
 80076d0:	2001      	movne	r0, #1
 80076d2:	bd08      	pop	{r3, pc}
 80076d4:	40004400 	.word	0x40004400

080076d8 <BSP_COM_Init>:
{
 80076d8:	b510      	push	{r4, lr}
  if(COM > COMn)
 80076da:	2801      	cmp	r0, #1
{
 80076dc:	b088      	sub	sp, #32
  if(COM > COMn)
 80076de:	d832      	bhi.n	8007746 <BSP_COM_Init+0x6e>
     hcom_uart[COM].Instance = COM_USART[COM];
 80076e0:	491a      	ldr	r1, [pc, #104]	; (800774c <BSP_COM_Init+0x74>)
 80076e2:	4a1b      	ldr	r2, [pc, #108]	; (8007750 <BSP_COM_Init+0x78>)
 80076e4:	f851 1020 	ldr.w	r1, [r1, r0, lsl #2]
 80076e8:	01c3      	lsls	r3, r0, #7
 80076ea:	18d4      	adds	r4, r2, r3
 80076ec:	50d1      	str	r1, [r2, r3]
  GPIO_InitTypeDef GPIO_InitStruct;
  /* USER CODE BEGIN USART2_MspInit 0 */

  /* USER CODE END USART2_MspInit 0 */
    /* Enable Peripheral clock */
    __HAL_RCC_USART2_CLK_ENABLE();
 80076ee:	4b19      	ldr	r3, [pc, #100]	; (8007754 <BSP_COM_Init+0x7c>)
 80076f0:	6d9a      	ldr	r2, [r3, #88]	; 0x58
 80076f2:	f442 3200 	orr.w	r2, r2, #131072	; 0x20000
 80076f6:	659a      	str	r2, [r3, #88]	; 0x58
 80076f8:	6d9a      	ldr	r2, [r3, #88]	; 0x58
 80076fa:	f402 3200 	and.w	r2, r2, #131072	; 0x20000
 80076fe:	9201      	str	r2, [sp, #4]
 8007700:	9a01      	ldr	r2, [sp, #4]
  
    __HAL_RCC_GPIOA_CLK_ENABLE();
 8007702:	6cda      	ldr	r2, [r3, #76]	; 0x4c
 8007704:	f042 0201 	orr.w	r2, r2, #1
 8007708:	64da      	str	r2, [r3, #76]	; 0x4c
 800770a:	6cdb      	ldr	r3, [r3, #76]	; 0x4c
 800770c:	f003 0301 	and.w	r3, r3, #1
 8007710:	9302      	str	r3, [sp, #8]
 8007712:	9b02      	ldr	r3, [sp, #8]
    /**USART2 GPIO Configuration    
    PA2     ------> USART2_TX
    PA3     ------> USART2_RX 
    */
    GPIO_InitStruct.Pin = USART_TX_Pin|USART_RX_Pin;
 8007714:	230c      	movs	r3, #12
 8007716:	9303      	str	r3, [sp, #12]
    GPIO_InitStruct.Mode = GPIO_MODE_AF_PP;
 8007718:	2302      	movs	r3, #2
 800771a:	9304      	str	r3, [sp, #16]
    GPIO_InitStruct.Pull = GPIO_NOPULL;
 800771c:	2300      	movs	r3, #0
 800771e:	9305      	str	r3, [sp, #20]
    GPIO_InitStruct.Speed = GPIO_SPEED_FREQ_VERY_HIGH;
 8007720:	2303      	movs	r3, #3
 8007722:	9306      	str	r3, [sp, #24]
    GPIO_InitStruct.Alternate = GPIO_AF7_USART2;
    HAL_GPIO_Init(GPIOA, &GPIO_InitStruct);
 8007724:	a903      	add	r1, sp, #12
    GPIO_InitStruct.Alternate = GPIO_AF7_USART2;
 8007726:	2307      	movs	r3, #7
    HAL_GPIO_Init(GPIOA, &GPIO_InitStruct);
 8007728:	f04f 4090 	mov.w	r0, #1207959552	; 0x48000000
    GPIO_InitStruct.Alternate = GPIO_AF7_USART2;
 800772c:	9307      	str	r3, [sp, #28]
    HAL_GPIO_Init(GPIOA, &GPIO_InitStruct);
 800772e:	f7fa fbff 	bl	8001f30 <HAL_GPIO_Init>
    if (MX_USART2_UART_Init(&hcom_uart[COM]))
 8007732:	4620      	mov	r0, r4
 8007734:	f7ff ffb8 	bl	80076a8 <MX_USART2_UART_Init>
 8007738:	2800      	cmp	r0, #0
      ret = BSP_ERROR_PERIPH_FAILURE;
 800773a:	bf0c      	ite	eq
 800773c:	2000      	moveq	r0, #0
 800773e:	f06f 0003 	mvnne.w	r0, #3
}
 8007742:	b008      	add	sp, #32
 8007744:	bd10      	pop	{r4, pc}
    ret = BSP_ERROR_WRONG_PARAM;
 8007746:	f06f 0001 	mvn.w	r0, #1
 800774a:	e7fa      	b.n	8007742 <BSP_COM_Init+0x6a>
 800774c:	20000010 	.word	0x20000010
 8007750:	20004378 	.word	0x20004378
 8007754:	40021000 	.word	0x40021000

08007758 <__io_putchar>:
{ 
 8007758:	b513      	push	{r0, r1, r4, lr}
  (void)HAL_UART_Transmit(&hcom_uart[COM_ActiveLogPort], (uint8_t *)&ch, 1, COM_POLL_TIMEOUT); 
 800775a:	4b08      	ldr	r3, [pc, #32]	; (800777c <__io_putchar+0x24>)
{ 
 800775c:	a902      	add	r1, sp, #8
  (void)HAL_UART_Transmit(&hcom_uart[COM_ActiveLogPort], (uint8_t *)&ch, 1, COM_POLL_TIMEOUT); 
 800775e:	781c      	ldrb	r4, [r3, #0]
{ 
 8007760:	f841 0d04 	str.w	r0, [r1, #-4]!
  (void)HAL_UART_Transmit(&hcom_uart[COM_ActiveLogPort], (uint8_t *)&ch, 1, COM_POLL_TIMEOUT); 
 8007764:	4806      	ldr	r0, [pc, #24]	; (8007780 <__io_putchar+0x28>)
 8007766:	f44f 737a 	mov.w	r3, #1000	; 0x3e8
 800776a:	2201      	movs	r2, #1
 800776c:	eb00 10c4 	add.w	r0, r0, r4, lsl #7
 8007770:	f7fc f9e1 	bl	8003b36 <HAL_UART_Transmit>
}
 8007774:	9801      	ldr	r0, [sp, #4]
 8007776:	b002      	add	sp, #8
 8007778:	bd10      	pop	{r4, pc}
 800777a:	bf00      	nop
 800777c:	200042ae 	.word	0x200042ae
 8007780:	20004378 	.word	0x20004378

08007784 <BSP_SPI1_SendRecv>:
  * @param  pData: Pointer to data buffer to send/receive
  * @param  Length: Length of data in byte
  * @retval BSP status
  */
int32_t BSP_SPI1_SendRecv(uint8_t *pTxData, uint8_t *pRxData, uint16_t Length)
{
 8007784:	b507      	push	{r0, r1, r2, lr}
  int32_t ret = BSP_ERROR_NONE;
  
  if(HAL_SPI_TransmitReceive(&hspi1, pTxData, pRxData, Length, BUS_SPI1_POLL_TIMEOUT) != HAL_OK)
 8007786:	f44f 5380 	mov.w	r3, #4096	; 0x1000
 800778a:	9300      	str	r3, [sp, #0]
 800778c:	4613      	mov	r3, r2
 800778e:	460a      	mov	r2, r1
 8007790:	4601      	mov	r1, r0
 8007792:	4805      	ldr	r0, [pc, #20]	; (80077a8 <BSP_SPI1_SendRecv+0x24>)
 8007794:	f7fb fd2a 	bl	80031ec <HAL_SPI_TransmitReceive>
 8007798:	2800      	cmp	r0, #0
  {
      ret = BSP_ERROR_UNKNOWN_FAILURE;
  }
  return ret;
}
 800779a:	bf14      	ite	ne
 800779c:	f06f 0005 	mvnne.w	r0, #5
 80077a0:	2000      	moveq	r0, #0
 80077a2:	b003      	add	sp, #12
 80077a4:	f85d fb04 	ldr.w	pc, [sp], #4
 80077a8:	200043f8 	.word	0x200043f8

080077ac <BSP_GetTick>:
/**
  * @brief  Return system tick in ms
  * @retval Current HAL time base time stamp
  */
int32_t BSP_GetTick(void) {
  return HAL_GetTick();
 80077ac:	f7fa bb2e 	b.w	8001e0c <HAL_GetTick>

080077b0 <MX_SPI1_Init>:

__weak HAL_StatusTypeDef MX_SPI1_Init(SPI_HandleTypeDef* hspi)
{
  HAL_StatusTypeDef ret = HAL_OK;
  hspi->Instance = SPI1;
  hspi->Init.Mode = SPI_MODE_MASTER;
 80077b0:	4a0f      	ldr	r2, [pc, #60]	; (80077f0 <MX_SPI1_Init+0x40>)
  hspi->Init.Direction = SPI_DIRECTION_2LINES;
  hspi->Init.DataSize = SPI_DATASIZE_8BIT;
 80077b2:	f44f 61e0 	mov.w	r1, #1792	; 0x700
{
 80077b6:	b508      	push	{r3, lr}
  hspi->Init.Mode = SPI_MODE_MASTER;
 80077b8:	f44f 7c82 	mov.w	ip, #260	; 0x104
  hspi->Init.DataSize = SPI_DATASIZE_8BIT;
 80077bc:	60c1      	str	r1, [r0, #12]
  hspi->Init.CLKPolarity = SPI_POLARITY_LOW;
  hspi->Init.CLKPhase = SPI_PHASE_1EDGE;
  hspi->Init.NSS = SPI_NSS_SOFT;
 80077be:	f44f 7100 	mov.w	r1, #512	; 0x200
  hspi->Init.Mode = SPI_MODE_MASTER;
 80077c2:	e880 1004 	stmia.w	r0, {r2, ip}
  hspi->Init.NSS = SPI_NSS_SOFT;
 80077c6:	6181      	str	r1, [r0, #24]
  hspi->Init.Direction = SPI_DIRECTION_2LINES;
 80077c8:	2200      	movs	r2, #0
  hspi->Init.BaudRatePrescaler = SPI_BAUDRATEPRESCALER_16;
 80077ca:	2118      	movs	r1, #24
  hspi->Init.Direction = SPI_DIRECTION_2LINES;
 80077cc:	6082      	str	r2, [r0, #8]
  hspi->Init.CLKPolarity = SPI_POLARITY_LOW;
 80077ce:	6102      	str	r2, [r0, #16]
  hspi->Init.CLKPhase = SPI_PHASE_1EDGE;
 80077d0:	6142      	str	r2, [r0, #20]
  hspi->Init.BaudRatePrescaler = SPI_BAUDRATEPRESCALER_16;
 80077d2:	61c1      	str	r1, [r0, #28]
  hspi->Init.FirstBit = SPI_FIRSTBIT_MSB;
 80077d4:	6202      	str	r2, [r0, #32]
  hspi->Init.TIMode = SPI_TIMODE_DISABLE;
  hspi->Init.CRCCalculation = SPI_CRCCALCULATION_DISABLE;
  hspi->Init.CRCPolynomial = 7;
 80077d6:	2107      	movs	r1, #7
  hspi->Init.TIMode = SPI_TIMODE_DISABLE;
 80077d8:	6242      	str	r2, [r0, #36]	; 0x24
  hspi->Init.CRCCalculation = SPI_CRCCALCULATION_DISABLE;
 80077da:	6282      	str	r2, [r0, #40]	; 0x28
  hspi->Init.CRCLength = SPI_CRC_LENGTH_DATASIZE;
 80077dc:	6302      	str	r2, [r0, #48]	; 0x30
  hspi->Init.NSSPMode = SPI_NSS_PULSE_ENABLE;
 80077de:	2208      	movs	r2, #8
  hspi->Init.CRCPolynomial = 7;
 80077e0:	62c1      	str	r1, [r0, #44]	; 0x2c
  hspi->Init.NSSPMode = SPI_NSS_PULSE_ENABLE;
 80077e2:	6342      	str	r2, [r0, #52]	; 0x34
  if (HAL_SPI_Init(hspi) != HAL_OK)
 80077e4:	f7fb fcb1 	bl	800314a <HAL_SPI_Init>
  {
    ret = HAL_ERROR;
  }

  return ret;
}
 80077e8:	3000      	adds	r0, #0
 80077ea:	bf18      	it	ne
 80077ec:	2001      	movne	r0, #1
 80077ee:	bd08      	pop	{r3, pc}
 80077f0:	40013000 	.word	0x40013000

080077f4 <BSP_SPI1_Init>:
{
 80077f4:	e92d 41f0 	stmdb	sp!, {r4, r5, r6, r7, r8, lr}
  if(SPI1InitCounter++ == 0)
 80077f8:	4a28      	ldr	r2, [pc, #160]	; (800789c <BSP_SPI1_Init+0xa8>)
  hspi1.Instance  = SPI1;
 80077fa:	4c29      	ldr	r4, [pc, #164]	; (80078a0 <BSP_SPI1_Init+0xac>)
 80077fc:	4b29      	ldr	r3, [pc, #164]	; (80078a4 <BSP_SPI1_Init+0xb0>)
 80077fe:	6023      	str	r3, [r4, #0]
  if(SPI1InitCounter++ == 0)
 8007800:	6813      	ldr	r3, [r2, #0]
 8007802:	1c59      	adds	r1, r3, #1
{
 8007804:	b088      	sub	sp, #32
  if(SPI1InitCounter++ == 0)
 8007806:	6011      	str	r1, [r2, #0]
 8007808:	b11b      	cbz	r3, 8007812 <BSP_SPI1_Init+0x1e>
  int32_t ret = BSP_ERROR_NONE;
 800780a:	2000      	movs	r0, #0
}
 800780c:	b008      	add	sp, #32
 800780e:	e8bd 81f0 	ldmia.w	sp!, {r4, r5, r6, r7, r8, pc}
	if (HAL_SPI_GetState(&hspi1) == HAL_SPI_STATE_RESET) 
 8007812:	4620      	mov	r0, r4
 8007814:	f7fb fe0e 	bl	8003434 <HAL_SPI_GetState>
 8007818:	4605      	mov	r5, r0
 800781a:	2800      	cmp	r0, #0
 800781c:	d1f5      	bne.n	800780a <BSP_SPI1_Init+0x16>
  GPIO_InitTypeDef GPIO_InitStruct;
  /* USER CODE BEGIN SPI1_MspInit 0 */

  /* USER CODE END SPI1_MspInit 0 */
    /* Enable Peripheral clock */
    __HAL_RCC_SPI1_CLK_ENABLE();
 800781e:	4b22      	ldr	r3, [pc, #136]	; (80078a8 <BSP_SPI1_Init+0xb4>)
 8007820:	6e1a      	ldr	r2, [r3, #96]	; 0x60
 8007822:	f442 5280 	orr.w	r2, r2, #4096	; 0x1000
 8007826:	661a      	str	r2, [r3, #96]	; 0x60
 8007828:	6e1a      	ldr	r2, [r3, #96]	; 0x60
 800782a:	f402 5280 	and.w	r2, r2, #4096	; 0x1000
 800782e:	9200      	str	r2, [sp, #0]
 8007830:	9a00      	ldr	r2, [sp, #0]
  
    __HAL_RCC_GPIOA_CLK_ENABLE();
 8007832:	6cda      	ldr	r2, [r3, #76]	; 0x4c
 8007834:	f042 0201 	orr.w	r2, r2, #1
 8007838:	64da      	str	r2, [r3, #76]	; 0x4c
 800783a:	6cda      	ldr	r2, [r3, #76]	; 0x4c
 800783c:	f002 0201 	and.w	r2, r2, #1
 8007840:	9201      	str	r2, [sp, #4]
 8007842:	9a01      	ldr	r2, [sp, #4]
    __HAL_RCC_GPIOB_CLK_ENABLE();
 8007844:	6cda      	ldr	r2, [r3, #76]	; 0x4c
 8007846:	f042 0202 	orr.w	r2, r2, #2
 800784a:	64da      	str	r2, [r3, #76]	; 0x4c
 800784c:	6cdb      	ldr	r3, [r3, #76]	; 0x4c
    PA7     ------> SPI1_MOSI
    PB3 (JTDO-TRACESWO)     ------> SPI1_SCK 
    */
    GPIO_InitStruct.Pin = GPIO_PIN_6|GPIO_PIN_7;
    GPIO_InitStruct.Mode = GPIO_MODE_AF_PP;
    GPIO_InitStruct.Pull = GPIO_NOPULL;
 800784e:	9005      	str	r0, [sp, #20]
    __HAL_RCC_GPIOB_CLK_ENABLE();
 8007850:	f003 0302 	and.w	r3, r3, #2
 8007854:	9302      	str	r3, [sp, #8]
 8007856:	9b02      	ldr	r3, [sp, #8]
    GPIO_InitStruct.Mode = GPIO_MODE_AF_PP;
 8007858:	f04f 0802 	mov.w	r8, #2
    GPIO_InitStruct.Pin = GPIO_PIN_6|GPIO_PIN_7;
 800785c:	23c0      	movs	r3, #192	; 0xc0
    GPIO_InitStruct.Speed = GPIO_SPEED_FREQ_VERY_HIGH;
 800785e:	2703      	movs	r7, #3
    GPIO_InitStruct.Alternate = GPIO_AF5_SPI1;
 8007860:	2605      	movs	r6, #5
    HAL_GPIO_Init(GPIOA, &GPIO_InitStruct);
 8007862:	a903      	add	r1, sp, #12
 8007864:	f04f 4090 	mov.w	r0, #1207959552	; 0x48000000
    GPIO_InitStruct.Pin = GPIO_PIN_6|GPIO_PIN_7;
 8007868:	9303      	str	r3, [sp, #12]
    GPIO_InitStruct.Mode = GPIO_MODE_AF_PP;
 800786a:	f8cd 8010 	str.w	r8, [sp, #16]
    GPIO_InitStruct.Speed = GPIO_SPEED_FREQ_VERY_HIGH;
 800786e:	9706      	str	r7, [sp, #24]
    GPIO_InitStruct.Alternate = GPIO_AF5_SPI1;
 8007870:	9607      	str	r6, [sp, #28]
    HAL_GPIO_Init(GPIOA, &GPIO_InitStruct);
 8007872:	f7fa fb5d 	bl	8001f30 <HAL_GPIO_Init>

    GPIO_InitStruct.Pin = GPIO_PIN_3;
 8007876:	2308      	movs	r3, #8
    GPIO_InitStruct.Mode = GPIO_MODE_AF_PP;
    GPIO_InitStruct.Pull = GPIO_NOPULL;
    GPIO_InitStruct.Speed = GPIO_SPEED_FREQ_VERY_HIGH;
    GPIO_InitStruct.Alternate = GPIO_AF5_SPI1;
    HAL_GPIO_Init(GPIOB, &GPIO_InitStruct);
 8007878:	480c      	ldr	r0, [pc, #48]	; (80078ac <BSP_SPI1_Init+0xb8>)
    GPIO_InitStruct.Pin = GPIO_PIN_3;
 800787a:	9303      	str	r3, [sp, #12]
    HAL_GPIO_Init(GPIOB, &GPIO_InitStruct);
 800787c:	a903      	add	r1, sp, #12
    GPIO_InitStruct.Mode = GPIO_MODE_AF_PP;
 800787e:	f8cd 8010 	str.w	r8, [sp, #16]
    GPIO_InitStruct.Pull = GPIO_NOPULL;
 8007882:	9505      	str	r5, [sp, #20]
    GPIO_InitStruct.Speed = GPIO_SPEED_FREQ_VERY_HIGH;
 8007884:	9706      	str	r7, [sp, #24]
    GPIO_InitStruct.Alternate = GPIO_AF5_SPI1;
 8007886:	9607      	str	r6, [sp, #28]
    HAL_GPIO_Init(GPIOB, &GPIO_InitStruct);
 8007888:	f7fa fb52 	bl	8001f30 <HAL_GPIO_Init>
			if (MX_SPI1_Init(&hspi1) != HAL_OK)
 800788c:	4620      	mov	r0, r4
 800788e:	f7ff ff8f 	bl	80077b0 <MX_SPI1_Init>
 8007892:	2800      	cmp	r0, #0
 8007894:	d0b9      	beq.n	800780a <BSP_SPI1_Init+0x16>
				ret = BSP_ERROR_BUS_FAILURE;
 8007896:	f06f 0007 	mvn.w	r0, #7
  return ret;
 800789a:	e7b7      	b.n	800780c <BSP_SPI1_Init+0x18>
 800789c:	200042b0 	.word	0x200042b0
 80078a0:	200043f8 	.word	0x200043f8
 80078a4:	40013000 	.word	0x40013000
 80078a8:	40021000 	.word	0x40021000
 80078ac:	48000400 	.word	0x48000400

080078b0 <_getpid>:
}

int _getpid(void)
{
	return 1;
}
 80078b0:	2001      	movs	r0, #1
 80078b2:	4770      	bx	lr

080078b4 <_kill>:

int _kill(int pid, int sig)
{
 80078b4:	b508      	push	{r3, lr}
	errno = EINVAL;
 80078b6:	f000 f89b 	bl	80079f0 <__errno>
 80078ba:	2316      	movs	r3, #22
 80078bc:	6003      	str	r3, [r0, #0]
	return -1;
}
 80078be:	f04f 30ff 	mov.w	r0, #4294967295
 80078c2:	bd08      	pop	{r3, pc}

080078c4 <_exit>:

void _exit (int status)
{
 80078c4:	b508      	push	{r3, lr}
	errno = EINVAL;
 80078c6:	f000 f893 	bl	80079f0 <__errno>
 80078ca:	2316      	movs	r3, #22
 80078cc:	6003      	str	r3, [r0, #0]
 80078ce:	e7fe      	b.n	80078ce <_exit+0xa>

080078d0 <_read>:
	_kill(status, -1);
	while (1) {}		/* Make sure we hang here */
}

__attribute__((weak)) int _read(int file, char *ptr, int len)
{
 80078d0:	b570      	push	{r4, r5, r6, lr}
 80078d2:	460e      	mov	r6, r1
 80078d4:	4615      	mov	r5, r2
	int DataIdx;

	for (DataIdx = 0; DataIdx < len; DataIdx++)
 80078d6:	460c      	mov	r4, r1
 80078d8:	1ba3      	subs	r3, r4, r6
 80078da:	429d      	cmp	r5, r3
 80078dc:	dc01      	bgt.n	80078e2 <_read+0x12>
	{
		*ptr++ = __io_getchar();
	}

return len;
}
 80078de:	4628      	mov	r0, r5
 80078e0:	bd70      	pop	{r4, r5, r6, pc}
		*ptr++ = __io_getchar();
 80078e2:	f3af 8000 	nop.w
 80078e6:	f804 0b01 	strb.w	r0, [r4], #1
 80078ea:	e7f5      	b.n	80078d8 <_read+0x8>

080078ec <_write>:

__attribute__((weak)) int _write(int file, char *ptr, int len)
{
 80078ec:	b570      	push	{r4, r5, r6, lr}
 80078ee:	460e      	mov	r6, r1
 80078f0:	4615      	mov	r5, r2
	int DataIdx;

	for (DataIdx = 0; DataIdx < len; DataIdx++)
 80078f2:	460c      	mov	r4, r1
 80078f4:	1ba3      	subs	r3, r4, r6
 80078f6:	429d      	cmp	r5, r3
 80078f8:	dc01      	bgt.n	80078fe <_write+0x12>
	{
		__io_putchar(*ptr++);
	}
	return len;
}
 80078fa:	4628      	mov	r0, r5
 80078fc:	bd70      	pop	{r4, r5, r6, pc}
		__io_putchar(*ptr++);
 80078fe:	f814 0b01 	ldrb.w	r0, [r4], #1
 8007902:	f7ff ff29 	bl	8007758 <__io_putchar>
 8007906:	e7f5      	b.n	80078f4 <_write+0x8>

08007908 <_sbrk>:

caddr_t _sbrk(int incr)
{
 8007908:	b508      	push	{r3, lr}
	extern char end asm("end");
	static char *heap_end;
	char *prev_heap_end;

	if (heap_end == 0)
 800790a:	4b0a      	ldr	r3, [pc, #40]	; (8007934 <_sbrk+0x2c>)
 800790c:	6819      	ldr	r1, [r3, #0]
{
 800790e:	4602      	mov	r2, r0
	if (heap_end == 0)
 8007910:	b909      	cbnz	r1, 8007916 <_sbrk+0xe>
		heap_end = &end;
 8007912:	4909      	ldr	r1, [pc, #36]	; (8007938 <_sbrk+0x30>)
 8007914:	6019      	str	r1, [r3, #0]

	prev_heap_end = heap_end;
 8007916:	6818      	ldr	r0, [r3, #0]
	if (heap_end + incr > stack_ptr)
 8007918:	4669      	mov	r1, sp
 800791a:	4402      	add	r2, r0
 800791c:	428a      	cmp	r2, r1
 800791e:	d906      	bls.n	800792e <_sbrk+0x26>
	{
//		write(1, "Heap and stack collision\n", 25);
//		abort();
		errno = ENOMEM;
 8007920:	f000 f866 	bl	80079f0 <__errno>
 8007924:	230c      	movs	r3, #12
 8007926:	6003      	str	r3, [r0, #0]
		return (caddr_t) -1;
 8007928:	f04f 30ff 	mov.w	r0, #4294967295
 800792c:	bd08      	pop	{r3, pc}
	}

	heap_end += incr;
 800792e:	601a      	str	r2, [r3, #0]

	return (caddr_t) prev_heap_end;
}
 8007930:	bd08      	pop	{r3, pc}
 8007932:	bf00      	nop
 8007934:	200042b4 	.word	0x200042b4
 8007938:	2000446c 	.word	0x2000446c

0800793c <_close>:

int _close(int file)
{
	return -1;
}
 800793c:	f04f 30ff 	mov.w	r0, #4294967295
 8007940:	4770      	bx	lr

08007942 <_fstat>:


int _fstat(int file, struct stat *st)
{
	st->st_mode = S_IFCHR;
 8007942:	f44f 5300 	mov.w	r3, #8192	; 0x2000
 8007946:	604b      	str	r3, [r1, #4]
	return 0;
}
 8007948:	2000      	movs	r0, #0
 800794a:	4770      	bx	lr

0800794c <_isatty>:

int _isatty(int file)
{
	return 1;
}
 800794c:	2001      	movs	r0, #1
 800794e:	4770      	bx	lr

08007950 <_lseek>:

int _lseek(int file, int ptr, int dir)
{
	return 0;
}
 8007950:	2000      	movs	r0, #0
 8007952:	4770      	bx	lr

08007954 <SystemInit>:

void SystemInit(void)
{
  /* FPU settings ------------------------------------------------------------*/
  #if (__FPU_PRESENT == 1) && (__FPU_USED == 1)
    SCB->CPACR |= ((3UL << 10*2)|(3UL << 11*2));  /* set CP10 and CP11 Full Access */
 8007954:	490f      	ldr	r1, [pc, #60]	; (8007994 <SystemInit+0x40>)
 8007956:	f8d1 3088 	ldr.w	r3, [r1, #136]	; 0x88
 800795a:	f443 0370 	orr.w	r3, r3, #15728640	; 0xf00000
 800795e:	f8c1 3088 	str.w	r3, [r1, #136]	; 0x88
  #endif

  /* Reset the RCC clock configuration to the default reset state ------------*/
  /* Set MSION bit */
  RCC->CR |= RCC_CR_MSION;
 8007962:	4b0d      	ldr	r3, [pc, #52]	; (8007998 <SystemInit+0x44>)
 8007964:	681a      	ldr	r2, [r3, #0]

  /* Reset CFGR register */
  RCC->CFGR = 0x00000000U;
 8007966:	2000      	movs	r0, #0
  RCC->CR |= RCC_CR_MSION;
 8007968:	f042 0201 	orr.w	r2, r2, #1
 800796c:	601a      	str	r2, [r3, #0]
  RCC->CFGR = 0x00000000U;
 800796e:	6098      	str	r0, [r3, #8]

  /* Reset HSEON, CSSON , HSION, and PLLON bits */
  RCC->CR &= 0xEAF6FFFFU;
 8007970:	681a      	ldr	r2, [r3, #0]
 8007972:	f022 52a8 	bic.w	r2, r2, #352321536	; 0x15000000
 8007976:	f422 2210 	bic.w	r2, r2, #589824	; 0x90000
 800797a:	601a      	str	r2, [r3, #0]

  /* Reset PLLCFGR register */
  RCC->PLLCFGR = 0x00001000U;
 800797c:	f44f 5280 	mov.w	r2, #4096	; 0x1000
 8007980:	60da      	str	r2, [r3, #12]

  /* Reset HSEBYP bit */
  RCC->CR &= 0xFFFBFFFFU;
 8007982:	681a      	ldr	r2, [r3, #0]
 8007984:	f422 2280 	bic.w	r2, r2, #262144	; 0x40000
 8007988:	601a      	str	r2, [r3, #0]

  /* Disable all interrupts */
  RCC->CIER = 0x00000000U;
 800798a:	6198      	str	r0, [r3, #24]

  /* Configure the Vector Table location add offset address ------------------*/
#ifdef VECT_TAB_SRAM
  SCB->VTOR = SRAM_BASE | VECT_TAB_OFFSET; /* Vector Table Relocation in Internal SRAM */
#else
  SCB->VTOR = FLASH_BASE | VECT_TAB_OFFSET; /* Vector Table Relocation in Internal FLASH */
 800798c:	f04f 6300 	mov.w	r3, #134217728	; 0x8000000
 8007990:	608b      	str	r3, [r1, #8]
 8007992:	4770      	bx	lr
 8007994:	e000ed00 	.word	0xe000ed00
 8007998:	40021000 	.word	0x40021000

0800799c <Reset_Handler>:

    .section	.text.Reset_Handler
	.weak	Reset_Handler
	.type	Reset_Handler, %function
Reset_Handler:
  ldr   sp, =_estack    /* Set stack pointer */
 800799c:	f8df d034 	ldr.w	sp, [pc, #52]	; 80079d4 <LoopForever+0x2>

/* Copy the data segment initializers from flash to SRAM */
  movs	r1, #0
 80079a0:	2100      	movs	r1, #0
  b	LoopCopyDataInit
 80079a2:	e003      	b.n	80079ac <LoopCopyDataInit>

080079a4 <CopyDataInit>:

CopyDataInit:
	ldr	r3, =_sidata
 80079a4:	4b0c      	ldr	r3, [pc, #48]	; (80079d8 <LoopForever+0x6>)
	ldr	r3, [r3, r1]
 80079a6:	585b      	ldr	r3, [r3, r1]
	str	r3, [r0, r1]
 80079a8:	5043      	str	r3, [r0, r1]
	adds	r1, r1, #4
 80079aa:	3104      	adds	r1, #4

080079ac <LoopCopyDataInit>:

LoopCopyDataInit:
	ldr	r0, =_sdata
 80079ac:	480b      	ldr	r0, [pc, #44]	; (80079dc <LoopForever+0xa>)
	ldr	r3, =_edata
 80079ae:	4b0c      	ldr	r3, [pc, #48]	; (80079e0 <LoopForever+0xe>)
	adds	r2, r0, r1
 80079b0:	1842      	adds	r2, r0, r1
	cmp	r2, r3
 80079b2:	429a      	cmp	r2, r3
	bcc	CopyDataInit
 80079b4:	d3f6      	bcc.n	80079a4 <CopyDataInit>
	ldr	r2, =_sbss
 80079b6:	4a0b      	ldr	r2, [pc, #44]	; (80079e4 <LoopForever+0x12>)
	b	LoopFillZerobss
 80079b8:	e002      	b.n	80079c0 <LoopFillZerobss>

080079ba <FillZerobss>:
/* Zero fill the bss segment. */
FillZerobss:
	movs	r3, #0
 80079ba:	2300      	movs	r3, #0
	str	r3, [r2], #4
 80079bc:	f842 3b04 	str.w	r3, [r2], #4

080079c0 <LoopFillZerobss>:

LoopFillZerobss:
	ldr	r3, = _ebss
 80079c0:	4b09      	ldr	r3, [pc, #36]	; (80079e8 <LoopForever+0x16>)
	cmp	r2, r3
 80079c2:	429a      	cmp	r2, r3
	bcc	FillZerobss
 80079c4:	d3f9      	bcc.n	80079ba <FillZerobss>

/* Call the clock system intitialization function.*/
    bl  SystemInit
 80079c6:	f7ff ffc5 	bl	8007954 <SystemInit>
/* Call static constructors */
    bl __libc_init_array
 80079ca:	f000 faff 	bl	8007fcc <__libc_init_array>
/* Call the application's entry point.*/
	bl	main
 80079ce:	f7fe fbf9 	bl	80061c4 <main>

080079d2 <LoopForever>:

LoopForever:
    b LoopForever
 80079d2:	e7fe      	b.n	80079d2 <LoopForever>
  ldr   sp, =_estack    /* Set stack pointer */
 80079d4:	20018000 	.word	0x20018000
	ldr	r3, =_sidata
 80079d8:	0800c08c 	.word	0x0800c08c
	ldr	r0, =_sdata
 80079dc:	20000000 	.word	0x20000000
	ldr	r3, =_edata
 80079e0:	20000690 	.word	0x20000690
	ldr	r2, =_sbss
 80079e4:	20000690 	.word	0x20000690
	ldr	r3, = _ebss
 80079e8:	2000446c 	.word	0x2000446c

080079ec <ADC1_2_IRQHandler>:
 * @retval : None
*/
    .section	.text.Default_Handler,"ax",%progbits
Default_Handler:
Infinite_Loop:
	b	Infinite_Loop
 80079ec:	e7fe      	b.n	80079ec <ADC1_2_IRQHandler>
	...

080079f0 <__errno>:
 80079f0:	4b01      	ldr	r3, [pc, #4]	; (80079f8 <__errno+0x8>)
 80079f2:	6818      	ldr	r0, [r3, #0]
 80079f4:	4770      	bx	lr
 80079f6:	bf00      	nop
 80079f8:	20000020 	.word	0x20000020

080079fc <__sflush_r>:
 80079fc:	f9b1 200c 	ldrsh.w	r2, [r1, #12]
 8007a00:	b293      	uxth	r3, r2
 8007a02:	e92d 41f0 	stmdb	sp!, {r4, r5, r6, r7, r8, lr}
 8007a06:	4605      	mov	r5, r0
 8007a08:	0718      	lsls	r0, r3, #28
 8007a0a:	460c      	mov	r4, r1
 8007a0c:	d461      	bmi.n	8007ad2 <__sflush_r+0xd6>
 8007a0e:	684b      	ldr	r3, [r1, #4]
 8007a10:	f442 6200 	orr.w	r2, r2, #2048	; 0x800
 8007a14:	2b00      	cmp	r3, #0
 8007a16:	818a      	strh	r2, [r1, #12]
 8007a18:	dc05      	bgt.n	8007a26 <__sflush_r+0x2a>
 8007a1a:	6c0b      	ldr	r3, [r1, #64]	; 0x40
 8007a1c:	2b00      	cmp	r3, #0
 8007a1e:	dc02      	bgt.n	8007a26 <__sflush_r+0x2a>
 8007a20:	2000      	movs	r0, #0
 8007a22:	e8bd 81f0 	ldmia.w	sp!, {r4, r5, r6, r7, r8, pc}
 8007a26:	6ae6      	ldr	r6, [r4, #44]	; 0x2c
 8007a28:	2e00      	cmp	r6, #0
 8007a2a:	d0f9      	beq.n	8007a20 <__sflush_r+0x24>
 8007a2c:	2300      	movs	r3, #0
 8007a2e:	f412 5280 	ands.w	r2, r2, #4096	; 0x1000
 8007a32:	682f      	ldr	r7, [r5, #0]
 8007a34:	602b      	str	r3, [r5, #0]
 8007a36:	d037      	beq.n	8007aa8 <__sflush_r+0xac>
 8007a38:	6d60      	ldr	r0, [r4, #84]	; 0x54
 8007a3a:	89a3      	ldrh	r3, [r4, #12]
 8007a3c:	075a      	lsls	r2, r3, #29
 8007a3e:	d505      	bpl.n	8007a4c <__sflush_r+0x50>
 8007a40:	6863      	ldr	r3, [r4, #4]
 8007a42:	1ac0      	subs	r0, r0, r3
 8007a44:	6b63      	ldr	r3, [r4, #52]	; 0x34
 8007a46:	b10b      	cbz	r3, 8007a4c <__sflush_r+0x50>
 8007a48:	6c23      	ldr	r3, [r4, #64]	; 0x40
 8007a4a:	1ac0      	subs	r0, r0, r3
 8007a4c:	2300      	movs	r3, #0
 8007a4e:	4602      	mov	r2, r0
 8007a50:	6ae6      	ldr	r6, [r4, #44]	; 0x2c
 8007a52:	6a21      	ldr	r1, [r4, #32]
 8007a54:	4628      	mov	r0, r5
 8007a56:	47b0      	blx	r6
 8007a58:	1c43      	adds	r3, r0, #1
 8007a5a:	89a3      	ldrh	r3, [r4, #12]
 8007a5c:	d106      	bne.n	8007a6c <__sflush_r+0x70>
 8007a5e:	6829      	ldr	r1, [r5, #0]
 8007a60:	291d      	cmp	r1, #29
 8007a62:	d84f      	bhi.n	8007b04 <__sflush_r+0x108>
 8007a64:	4a2d      	ldr	r2, [pc, #180]	; (8007b1c <__sflush_r+0x120>)
 8007a66:	40ca      	lsrs	r2, r1
 8007a68:	07d6      	lsls	r6, r2, #31
 8007a6a:	d54b      	bpl.n	8007b04 <__sflush_r+0x108>
 8007a6c:	f423 6300 	bic.w	r3, r3, #2048	; 0x800
 8007a70:	b21b      	sxth	r3, r3
 8007a72:	2200      	movs	r2, #0
 8007a74:	6062      	str	r2, [r4, #4]
 8007a76:	04d9      	lsls	r1, r3, #19
 8007a78:	6922      	ldr	r2, [r4, #16]
 8007a7a:	81a3      	strh	r3, [r4, #12]
 8007a7c:	6022      	str	r2, [r4, #0]
 8007a7e:	d504      	bpl.n	8007a8a <__sflush_r+0x8e>
 8007a80:	1c42      	adds	r2, r0, #1
 8007a82:	d101      	bne.n	8007a88 <__sflush_r+0x8c>
 8007a84:	682b      	ldr	r3, [r5, #0]
 8007a86:	b903      	cbnz	r3, 8007a8a <__sflush_r+0x8e>
 8007a88:	6560      	str	r0, [r4, #84]	; 0x54
 8007a8a:	6b61      	ldr	r1, [r4, #52]	; 0x34
 8007a8c:	602f      	str	r7, [r5, #0]
 8007a8e:	2900      	cmp	r1, #0
 8007a90:	d0c6      	beq.n	8007a20 <__sflush_r+0x24>
 8007a92:	f104 0344 	add.w	r3, r4, #68	; 0x44
 8007a96:	4299      	cmp	r1, r3
 8007a98:	d002      	beq.n	8007aa0 <__sflush_r+0xa4>
 8007a9a:	4628      	mov	r0, r5
 8007a9c:	f000 f9bc 	bl	8007e18 <_free_r>
 8007aa0:	2000      	movs	r0, #0
 8007aa2:	6360      	str	r0, [r4, #52]	; 0x34
 8007aa4:	e8bd 81f0 	ldmia.w	sp!, {r4, r5, r6, r7, r8, pc}
 8007aa8:	6a21      	ldr	r1, [r4, #32]
 8007aaa:	2301      	movs	r3, #1
 8007aac:	4628      	mov	r0, r5
 8007aae:	47b0      	blx	r6
 8007ab0:	1c41      	adds	r1, r0, #1
 8007ab2:	d1c2      	bne.n	8007a3a <__sflush_r+0x3e>
 8007ab4:	682b      	ldr	r3, [r5, #0]
 8007ab6:	2b00      	cmp	r3, #0
 8007ab8:	d0bf      	beq.n	8007a3a <__sflush_r+0x3e>
 8007aba:	2b1d      	cmp	r3, #29
 8007abc:	d001      	beq.n	8007ac2 <__sflush_r+0xc6>
 8007abe:	2b16      	cmp	r3, #22
 8007ac0:	d101      	bne.n	8007ac6 <__sflush_r+0xca>
 8007ac2:	602f      	str	r7, [r5, #0]
 8007ac4:	e7ac      	b.n	8007a20 <__sflush_r+0x24>
 8007ac6:	89a3      	ldrh	r3, [r4, #12]
 8007ac8:	f043 0340 	orr.w	r3, r3, #64	; 0x40
 8007acc:	81a3      	strh	r3, [r4, #12]
 8007ace:	e8bd 81f0 	ldmia.w	sp!, {r4, r5, r6, r7, r8, pc}
 8007ad2:	690f      	ldr	r7, [r1, #16]
 8007ad4:	2f00      	cmp	r7, #0
 8007ad6:	d0a3      	beq.n	8007a20 <__sflush_r+0x24>
 8007ad8:	079b      	lsls	r3, r3, #30
 8007ada:	680e      	ldr	r6, [r1, #0]
 8007adc:	bf08      	it	eq
 8007ade:	694b      	ldreq	r3, [r1, #20]
 8007ae0:	600f      	str	r7, [r1, #0]
 8007ae2:	bf18      	it	ne
 8007ae4:	2300      	movne	r3, #0
 8007ae6:	eba6 0807 	sub.w	r8, r6, r7
 8007aea:	608b      	str	r3, [r1, #8]
 8007aec:	f1b8 0f00 	cmp.w	r8, #0
 8007af0:	dd96      	ble.n	8007a20 <__sflush_r+0x24>
 8007af2:	4643      	mov	r3, r8
 8007af4:	463a      	mov	r2, r7
 8007af6:	6a21      	ldr	r1, [r4, #32]
 8007af8:	6aa6      	ldr	r6, [r4, #40]	; 0x28
 8007afa:	4628      	mov	r0, r5
 8007afc:	47b0      	blx	r6
 8007afe:	2800      	cmp	r0, #0
 8007b00:	dc07      	bgt.n	8007b12 <__sflush_r+0x116>
 8007b02:	89a3      	ldrh	r3, [r4, #12]
 8007b04:	f043 0340 	orr.w	r3, r3, #64	; 0x40
 8007b08:	81a3      	strh	r3, [r4, #12]
 8007b0a:	f04f 30ff 	mov.w	r0, #4294967295
 8007b0e:	e8bd 81f0 	ldmia.w	sp!, {r4, r5, r6, r7, r8, pc}
 8007b12:	4407      	add	r7, r0
 8007b14:	eba8 0800 	sub.w	r8, r8, r0
 8007b18:	e7e8      	b.n	8007aec <__sflush_r+0xf0>
 8007b1a:	bf00      	nop
 8007b1c:	20400001 	.word	0x20400001

08007b20 <_fflush_r>:
 8007b20:	b538      	push	{r3, r4, r5, lr}
 8007b22:	690b      	ldr	r3, [r1, #16]
 8007b24:	4605      	mov	r5, r0
 8007b26:	460c      	mov	r4, r1
 8007b28:	b913      	cbnz	r3, 8007b30 <_fflush_r+0x10>
 8007b2a:	2500      	movs	r5, #0
 8007b2c:	4628      	mov	r0, r5
 8007b2e:	bd38      	pop	{r3, r4, r5, pc}
 8007b30:	b118      	cbz	r0, 8007b3a <_fflush_r+0x1a>
 8007b32:	6983      	ldr	r3, [r0, #24]
 8007b34:	b90b      	cbnz	r3, 8007b3a <_fflush_r+0x1a>
 8007b36:	f000 f899 	bl	8007c6c <__sinit>
 8007b3a:	4b14      	ldr	r3, [pc, #80]	; (8007b8c <_fflush_r+0x6c>)
 8007b3c:	429c      	cmp	r4, r3
 8007b3e:	d11b      	bne.n	8007b78 <_fflush_r+0x58>
 8007b40:	686c      	ldr	r4, [r5, #4]
 8007b42:	f9b4 300c 	ldrsh.w	r3, [r4, #12]
 8007b46:	2b00      	cmp	r3, #0
 8007b48:	d0ef      	beq.n	8007b2a <_fflush_r+0xa>
 8007b4a:	6e62      	ldr	r2, [r4, #100]	; 0x64
 8007b4c:	07d0      	lsls	r0, r2, #31
 8007b4e:	d404      	bmi.n	8007b5a <_fflush_r+0x3a>
 8007b50:	0599      	lsls	r1, r3, #22
 8007b52:	d402      	bmi.n	8007b5a <_fflush_r+0x3a>
 8007b54:	6da0      	ldr	r0, [r4, #88]	; 0x58
 8007b56:	f000 fa5f 	bl	8008018 <__retarget_lock_acquire_recursive>
 8007b5a:	4628      	mov	r0, r5
 8007b5c:	4621      	mov	r1, r4
 8007b5e:	f7ff ff4d 	bl	80079fc <__sflush_r>
 8007b62:	6e63      	ldr	r3, [r4, #100]	; 0x64
 8007b64:	07da      	lsls	r2, r3, #31
 8007b66:	4605      	mov	r5, r0
 8007b68:	d4e0      	bmi.n	8007b2c <_fflush_r+0xc>
 8007b6a:	89a3      	ldrh	r3, [r4, #12]
 8007b6c:	059b      	lsls	r3, r3, #22
 8007b6e:	d4dd      	bmi.n	8007b2c <_fflush_r+0xc>
 8007b70:	6da0      	ldr	r0, [r4, #88]	; 0x58
 8007b72:	f000 fa52 	bl	800801a <__retarget_lock_release_recursive>
 8007b76:	e7d9      	b.n	8007b2c <_fflush_r+0xc>
 8007b78:	4b05      	ldr	r3, [pc, #20]	; (8007b90 <_fflush_r+0x70>)
 8007b7a:	429c      	cmp	r4, r3
 8007b7c:	d101      	bne.n	8007b82 <_fflush_r+0x62>
 8007b7e:	68ac      	ldr	r4, [r5, #8]
 8007b80:	e7df      	b.n	8007b42 <_fflush_r+0x22>
 8007b82:	4b04      	ldr	r3, [pc, #16]	; (8007b94 <_fflush_r+0x74>)
 8007b84:	429c      	cmp	r4, r3
 8007b86:	bf08      	it	eq
 8007b88:	68ec      	ldreq	r4, [r5, #12]
 8007b8a:	e7da      	b.n	8007b42 <_fflush_r+0x22>
 8007b8c:	0800bc34 	.word	0x0800bc34
 8007b90:	0800bc54 	.word	0x0800bc54
 8007b94:	0800bc14 	.word	0x0800bc14

08007b98 <fflush>:
 8007b98:	4601      	mov	r1, r0
 8007b9a:	b920      	cbnz	r0, 8007ba6 <fflush+0xe>
 8007b9c:	4b04      	ldr	r3, [pc, #16]	; (8007bb0 <fflush+0x18>)
 8007b9e:	4905      	ldr	r1, [pc, #20]	; (8007bb4 <fflush+0x1c>)
 8007ba0:	6818      	ldr	r0, [r3, #0]
 8007ba2:	f000 b9f5 	b.w	8007f90 <_fwalk_reent>
 8007ba6:	4b04      	ldr	r3, [pc, #16]	; (8007bb8 <fflush+0x20>)
 8007ba8:	6818      	ldr	r0, [r3, #0]
 8007baa:	f7ff bfb9 	b.w	8007b20 <_fflush_r>
 8007bae:	bf00      	nop
 8007bb0:	0800bc74 	.word	0x0800bc74
 8007bb4:	08007b21 	.word	0x08007b21
 8007bb8:	20000020 	.word	0x20000020

08007bbc <_cleanup_r>:
 8007bbc:	4901      	ldr	r1, [pc, #4]	; (8007bc4 <_cleanup_r+0x8>)
 8007bbe:	f000 b9e7 	b.w	8007f90 <_fwalk_reent>
 8007bc2:	bf00      	nop
 8007bc4:	0800a515 	.word	0x0800a515

08007bc8 <std.isra.0>:
 8007bc8:	2300      	movs	r3, #0
 8007bca:	b510      	push	{r4, lr}
 8007bcc:	4604      	mov	r4, r0
 8007bce:	6003      	str	r3, [r0, #0]
 8007bd0:	6043      	str	r3, [r0, #4]
 8007bd2:	6083      	str	r3, [r0, #8]
 8007bd4:	8181      	strh	r1, [r0, #12]
 8007bd6:	6643      	str	r3, [r0, #100]	; 0x64
 8007bd8:	81c2      	strh	r2, [r0, #14]
 8007bda:	6103      	str	r3, [r0, #16]
 8007bdc:	6143      	str	r3, [r0, #20]
 8007bde:	6183      	str	r3, [r0, #24]
 8007be0:	4619      	mov	r1, r3
 8007be2:	2208      	movs	r2, #8
 8007be4:	305c      	adds	r0, #92	; 0x5c
 8007be6:	f000 fc32 	bl	800844e <memset>
 8007bea:	4b05      	ldr	r3, [pc, #20]	; (8007c00 <std.isra.0+0x38>)
 8007bec:	6263      	str	r3, [r4, #36]	; 0x24
 8007bee:	4b05      	ldr	r3, [pc, #20]	; (8007c04 <std.isra.0+0x3c>)
 8007bf0:	62a3      	str	r3, [r4, #40]	; 0x28
 8007bf2:	4b05      	ldr	r3, [pc, #20]	; (8007c08 <std.isra.0+0x40>)
 8007bf4:	62e3      	str	r3, [r4, #44]	; 0x2c
 8007bf6:	4b05      	ldr	r3, [pc, #20]	; (8007c0c <std.isra.0+0x44>)
 8007bf8:	6224      	str	r4, [r4, #32]
 8007bfa:	6323      	str	r3, [r4, #48]	; 0x30
 8007bfc:	bd10      	pop	{r4, pc}
 8007bfe:	bf00      	nop
 8007c00:	080085c1 	.word	0x080085c1
 8007c04:	080085e3 	.word	0x080085e3
 8007c08:	0800861b 	.word	0x0800861b
 8007c0c:	0800863f 	.word	0x0800863f

08007c10 <__sfmoreglue>:
 8007c10:	b570      	push	{r4, r5, r6, lr}
 8007c12:	1e4a      	subs	r2, r1, #1
 8007c14:	2568      	movs	r5, #104	; 0x68
 8007c16:	4355      	muls	r5, r2
 8007c18:	460e      	mov	r6, r1
 8007c1a:	f105 0174 	add.w	r1, r5, #116	; 0x74
 8007c1e:	f000 f9fd 	bl	800801c <_malloc_r>
 8007c22:	4604      	mov	r4, r0
 8007c24:	b140      	cbz	r0, 8007c38 <__sfmoreglue+0x28>
 8007c26:	2100      	movs	r1, #0
 8007c28:	e880 0042 	stmia.w	r0, {r1, r6}
 8007c2c:	300c      	adds	r0, #12
 8007c2e:	60a0      	str	r0, [r4, #8]
 8007c30:	f105 0268 	add.w	r2, r5, #104	; 0x68
 8007c34:	f000 fc0b 	bl	800844e <memset>
 8007c38:	4620      	mov	r0, r4
 8007c3a:	bd70      	pop	{r4, r5, r6, pc}

08007c3c <__sfp_lock_acquire>:
 8007c3c:	4801      	ldr	r0, [pc, #4]	; (8007c44 <__sfp_lock_acquire+0x8>)
 8007c3e:	f000 b9eb 	b.w	8008018 <__retarget_lock_acquire_recursive>
 8007c42:	bf00      	nop
 8007c44:	20004464 	.word	0x20004464

08007c48 <__sfp_lock_release>:
 8007c48:	4801      	ldr	r0, [pc, #4]	; (8007c50 <__sfp_lock_release+0x8>)
 8007c4a:	f000 b9e6 	b.w	800801a <__retarget_lock_release_recursive>
 8007c4e:	bf00      	nop
 8007c50:	20004464 	.word	0x20004464

08007c54 <__sinit_lock_acquire>:
 8007c54:	4801      	ldr	r0, [pc, #4]	; (8007c5c <__sinit_lock_acquire+0x8>)
 8007c56:	f000 b9df 	b.w	8008018 <__retarget_lock_acquire_recursive>
 8007c5a:	bf00      	nop
 8007c5c:	2000445f 	.word	0x2000445f

08007c60 <__sinit_lock_release>:
 8007c60:	4801      	ldr	r0, [pc, #4]	; (8007c68 <__sinit_lock_release+0x8>)
 8007c62:	f000 b9da 	b.w	800801a <__retarget_lock_release_recursive>
 8007c66:	bf00      	nop
 8007c68:	2000445f 	.word	0x2000445f

08007c6c <__sinit>:
 8007c6c:	b510      	push	{r4, lr}
 8007c6e:	4604      	mov	r4, r0
 8007c70:	f7ff fff0 	bl	8007c54 <__sinit_lock_acquire>
 8007c74:	69a3      	ldr	r3, [r4, #24]
 8007c76:	b11b      	cbz	r3, 8007c80 <__sinit+0x14>
 8007c78:	e8bd 4010 	ldmia.w	sp!, {r4, lr}
 8007c7c:	f7ff bff0 	b.w	8007c60 <__sinit_lock_release>
 8007c80:	f8c4 30d8 	str.w	r3, [r4, #216]	; 0xd8
 8007c84:	f8c4 30dc 	str.w	r3, [r4, #220]	; 0xdc
 8007c88:	f8c4 30e0 	str.w	r3, [r4, #224]	; 0xe0
 8007c8c:	4b12      	ldr	r3, [pc, #72]	; (8007cd8 <__sinit+0x6c>)
 8007c8e:	4a13      	ldr	r2, [pc, #76]	; (8007cdc <__sinit+0x70>)
 8007c90:	681b      	ldr	r3, [r3, #0]
 8007c92:	62a2      	str	r2, [r4, #40]	; 0x28
 8007c94:	429c      	cmp	r4, r3
 8007c96:	bf04      	itt	eq
 8007c98:	2301      	moveq	r3, #1
 8007c9a:	61a3      	streq	r3, [r4, #24]
 8007c9c:	4620      	mov	r0, r4
 8007c9e:	f000 f81f 	bl	8007ce0 <__sfp>
 8007ca2:	6060      	str	r0, [r4, #4]
 8007ca4:	4620      	mov	r0, r4
 8007ca6:	f000 f81b 	bl	8007ce0 <__sfp>
 8007caa:	60a0      	str	r0, [r4, #8]
 8007cac:	4620      	mov	r0, r4
 8007cae:	f000 f817 	bl	8007ce0 <__sfp>
 8007cb2:	2200      	movs	r2, #0
 8007cb4:	60e0      	str	r0, [r4, #12]
 8007cb6:	2104      	movs	r1, #4
 8007cb8:	6860      	ldr	r0, [r4, #4]
 8007cba:	f7ff ff85 	bl	8007bc8 <std.isra.0>
 8007cbe:	2201      	movs	r2, #1
 8007cc0:	2109      	movs	r1, #9
 8007cc2:	68a0      	ldr	r0, [r4, #8]
 8007cc4:	f7ff ff80 	bl	8007bc8 <std.isra.0>
 8007cc8:	2202      	movs	r2, #2
 8007cca:	2112      	movs	r1, #18
 8007ccc:	68e0      	ldr	r0, [r4, #12]
 8007cce:	f7ff ff7b 	bl	8007bc8 <std.isra.0>
 8007cd2:	2301      	movs	r3, #1
 8007cd4:	61a3      	str	r3, [r4, #24]
 8007cd6:	e7cf      	b.n	8007c78 <__sinit+0xc>
 8007cd8:	0800bc74 	.word	0x0800bc74
 8007cdc:	08007bbd 	.word	0x08007bbd

08007ce0 <__sfp>:
 8007ce0:	b5f8      	push	{r3, r4, r5, r6, r7, lr}
 8007ce2:	4607      	mov	r7, r0
 8007ce4:	f7ff ffaa 	bl	8007c3c <__sfp_lock_acquire>
 8007ce8:	4b1f      	ldr	r3, [pc, #124]	; (8007d68 <__sfp+0x88>)
 8007cea:	681e      	ldr	r6, [r3, #0]
 8007cec:	69b3      	ldr	r3, [r6, #24]
 8007cee:	b913      	cbnz	r3, 8007cf6 <__sfp+0x16>
 8007cf0:	4630      	mov	r0, r6
 8007cf2:	f7ff ffbb 	bl	8007c6c <__sinit>
 8007cf6:	36d8      	adds	r6, #216	; 0xd8
 8007cf8:	68b4      	ldr	r4, [r6, #8]
 8007cfa:	6873      	ldr	r3, [r6, #4]
 8007cfc:	3b01      	subs	r3, #1
 8007cfe:	d503      	bpl.n	8007d08 <__sfp+0x28>
 8007d00:	6833      	ldr	r3, [r6, #0]
 8007d02:	b133      	cbz	r3, 8007d12 <__sfp+0x32>
 8007d04:	6836      	ldr	r6, [r6, #0]
 8007d06:	e7f7      	b.n	8007cf8 <__sfp+0x18>
 8007d08:	f9b4 500c 	ldrsh.w	r5, [r4, #12]
 8007d0c:	b17d      	cbz	r5, 8007d2e <__sfp+0x4e>
 8007d0e:	3468      	adds	r4, #104	; 0x68
 8007d10:	e7f4      	b.n	8007cfc <__sfp+0x1c>
 8007d12:	2104      	movs	r1, #4
 8007d14:	4638      	mov	r0, r7
 8007d16:	f7ff ff7b 	bl	8007c10 <__sfmoreglue>
 8007d1a:	4604      	mov	r4, r0
 8007d1c:	6030      	str	r0, [r6, #0]
 8007d1e:	2800      	cmp	r0, #0
 8007d20:	d1f0      	bne.n	8007d04 <__sfp+0x24>
 8007d22:	f7ff ff91 	bl	8007c48 <__sfp_lock_release>
 8007d26:	230c      	movs	r3, #12
 8007d28:	603b      	str	r3, [r7, #0]
 8007d2a:	4620      	mov	r0, r4
 8007d2c:	bdf8      	pop	{r3, r4, r5, r6, r7, pc}
 8007d2e:	f64f 73ff 	movw	r3, #65535	; 0xffff
 8007d32:	81e3      	strh	r3, [r4, #14]
 8007d34:	2301      	movs	r3, #1
 8007d36:	81a3      	strh	r3, [r4, #12]
 8007d38:	f104 0058 	add.w	r0, r4, #88	; 0x58
 8007d3c:	6665      	str	r5, [r4, #100]	; 0x64
 8007d3e:	f000 f969 	bl	8008014 <__retarget_lock_init_recursive>
 8007d42:	f7ff ff81 	bl	8007c48 <__sfp_lock_release>
 8007d46:	6025      	str	r5, [r4, #0]
 8007d48:	60a5      	str	r5, [r4, #8]
 8007d4a:	6065      	str	r5, [r4, #4]
 8007d4c:	6125      	str	r5, [r4, #16]
 8007d4e:	6165      	str	r5, [r4, #20]
 8007d50:	61a5      	str	r5, [r4, #24]
 8007d52:	2208      	movs	r2, #8
 8007d54:	4629      	mov	r1, r5
 8007d56:	f104 005c 	add.w	r0, r4, #92	; 0x5c
 8007d5a:	f000 fb78 	bl	800844e <memset>
 8007d5e:	6365      	str	r5, [r4, #52]	; 0x34
 8007d60:	63a5      	str	r5, [r4, #56]	; 0x38
 8007d62:	64a5      	str	r5, [r4, #72]	; 0x48
 8007d64:	64e5      	str	r5, [r4, #76]	; 0x4c
 8007d66:	e7e0      	b.n	8007d2a <__sfp+0x4a>
 8007d68:	0800bc74 	.word	0x0800bc74

08007d6c <_malloc_trim_r>:
 8007d6c:	e92d 43f8 	stmdb	sp!, {r3, r4, r5, r6, r7, r8, r9, lr}
 8007d70:	4f25      	ldr	r7, [pc, #148]	; (8007e08 <_malloc_trim_r+0x9c>)
 8007d72:	f8df 80a0 	ldr.w	r8, [pc, #160]	; 8007e14 <_malloc_trim_r+0xa8>
 8007d76:	4689      	mov	r9, r1
 8007d78:	4606      	mov	r6, r0
 8007d7a:	f000 fb71 	bl	8008460 <__malloc_lock>
 8007d7e:	68bb      	ldr	r3, [r7, #8]
 8007d80:	685d      	ldr	r5, [r3, #4]
 8007d82:	f1a8 0411 	sub.w	r4, r8, #17
 8007d86:	f025 0503 	bic.w	r5, r5, #3
 8007d8a:	eba4 0409 	sub.w	r4, r4, r9
 8007d8e:	442c      	add	r4, r5
 8007d90:	fbb4 f4f8 	udiv	r4, r4, r8
 8007d94:	3c01      	subs	r4, #1
 8007d96:	fb08 f404 	mul.w	r4, r8, r4
 8007d9a:	4544      	cmp	r4, r8
 8007d9c:	da05      	bge.n	8007daa <_malloc_trim_r+0x3e>
 8007d9e:	4630      	mov	r0, r6
 8007da0:	f000 fb64 	bl	800846c <__malloc_unlock>
 8007da4:	2000      	movs	r0, #0
 8007da6:	e8bd 83f8 	ldmia.w	sp!, {r3, r4, r5, r6, r7, r8, r9, pc}
 8007daa:	2100      	movs	r1, #0
 8007dac:	4630      	mov	r0, r6
 8007dae:	f000 fbf7 	bl	80085a0 <_sbrk_r>
 8007db2:	68bb      	ldr	r3, [r7, #8]
 8007db4:	442b      	add	r3, r5
 8007db6:	4298      	cmp	r0, r3
 8007db8:	d1f1      	bne.n	8007d9e <_malloc_trim_r+0x32>
 8007dba:	4261      	negs	r1, r4
 8007dbc:	4630      	mov	r0, r6
 8007dbe:	f000 fbef 	bl	80085a0 <_sbrk_r>
 8007dc2:	3001      	adds	r0, #1
 8007dc4:	d110      	bne.n	8007de8 <_malloc_trim_r+0x7c>
 8007dc6:	2100      	movs	r1, #0
 8007dc8:	4630      	mov	r0, r6
 8007dca:	f000 fbe9 	bl	80085a0 <_sbrk_r>
 8007dce:	68ba      	ldr	r2, [r7, #8]
 8007dd0:	1a83      	subs	r3, r0, r2
 8007dd2:	2b0f      	cmp	r3, #15
 8007dd4:	dde3      	ble.n	8007d9e <_malloc_trim_r+0x32>
 8007dd6:	490d      	ldr	r1, [pc, #52]	; (8007e0c <_malloc_trim_r+0xa0>)
 8007dd8:	6809      	ldr	r1, [r1, #0]
 8007dda:	1a40      	subs	r0, r0, r1
 8007ddc:	490c      	ldr	r1, [pc, #48]	; (8007e10 <_malloc_trim_r+0xa4>)
 8007dde:	f043 0301 	orr.w	r3, r3, #1
 8007de2:	6008      	str	r0, [r1, #0]
 8007de4:	6053      	str	r3, [r2, #4]
 8007de6:	e7da      	b.n	8007d9e <_malloc_trim_r+0x32>
 8007de8:	68bb      	ldr	r3, [r7, #8]
 8007dea:	4a09      	ldr	r2, [pc, #36]	; (8007e10 <_malloc_trim_r+0xa4>)
 8007dec:	1b2d      	subs	r5, r5, r4
 8007dee:	f045 0501 	orr.w	r5, r5, #1
 8007df2:	605d      	str	r5, [r3, #4]
 8007df4:	6813      	ldr	r3, [r2, #0]
 8007df6:	4630      	mov	r0, r6
 8007df8:	1b1c      	subs	r4, r3, r4
 8007dfa:	6014      	str	r4, [r2, #0]
 8007dfc:	f000 fb36 	bl	800846c <__malloc_unlock>
 8007e00:	2001      	movs	r0, #1
 8007e02:	e8bd 83f8 	ldmia.w	sp!, {r3, r4, r5, r6, r7, r8, r9, pc}
 8007e06:	bf00      	nop
 8007e08:	20000114 	.word	0x20000114
 8007e0c:	2000051c 	.word	0x2000051c
 8007e10:	200042b8 	.word	0x200042b8
 8007e14:	00001000 	.word	0x00001000

08007e18 <_free_r>:
 8007e18:	e92d 41f0 	stmdb	sp!, {r4, r5, r6, r7, r8, lr}
 8007e1c:	4604      	mov	r4, r0
 8007e1e:	4688      	mov	r8, r1
 8007e20:	2900      	cmp	r1, #0
 8007e22:	f000 80ab 	beq.w	8007f7c <_free_r+0x164>
 8007e26:	f000 fb1b 	bl	8008460 <__malloc_lock>
 8007e2a:	f858 2c04 	ldr.w	r2, [r8, #-4]
 8007e2e:	4d54      	ldr	r5, [pc, #336]	; (8007f80 <_free_r+0x168>)
 8007e30:	f022 0001 	bic.w	r0, r2, #1
 8007e34:	f1a8 0308 	sub.w	r3, r8, #8
 8007e38:	181f      	adds	r7, r3, r0
 8007e3a:	68a9      	ldr	r1, [r5, #8]
 8007e3c:	687e      	ldr	r6, [r7, #4]
 8007e3e:	428f      	cmp	r7, r1
 8007e40:	f026 0603 	bic.w	r6, r6, #3
 8007e44:	f002 0201 	and.w	r2, r2, #1
 8007e48:	d11b      	bne.n	8007e82 <_free_r+0x6a>
 8007e4a:	4430      	add	r0, r6
 8007e4c:	b93a      	cbnz	r2, 8007e5e <_free_r+0x46>
 8007e4e:	f858 2c08 	ldr.w	r2, [r8, #-8]
 8007e52:	1a9b      	subs	r3, r3, r2
 8007e54:	4410      	add	r0, r2
 8007e56:	6899      	ldr	r1, [r3, #8]
 8007e58:	68da      	ldr	r2, [r3, #12]
 8007e5a:	60ca      	str	r2, [r1, #12]
 8007e5c:	6091      	str	r1, [r2, #8]
 8007e5e:	f040 0201 	orr.w	r2, r0, #1
 8007e62:	605a      	str	r2, [r3, #4]
 8007e64:	60ab      	str	r3, [r5, #8]
 8007e66:	4b47      	ldr	r3, [pc, #284]	; (8007f84 <_free_r+0x16c>)
 8007e68:	681b      	ldr	r3, [r3, #0]
 8007e6a:	4298      	cmp	r0, r3
 8007e6c:	d304      	bcc.n	8007e78 <_free_r+0x60>
 8007e6e:	4b46      	ldr	r3, [pc, #280]	; (8007f88 <_free_r+0x170>)
 8007e70:	4620      	mov	r0, r4
 8007e72:	6819      	ldr	r1, [r3, #0]
 8007e74:	f7ff ff7a 	bl	8007d6c <_malloc_trim_r>
 8007e78:	4620      	mov	r0, r4
 8007e7a:	e8bd 41f0 	ldmia.w	sp!, {r4, r5, r6, r7, r8, lr}
 8007e7e:	f000 baf5 	b.w	800846c <__malloc_unlock>
 8007e82:	607e      	str	r6, [r7, #4]
 8007e84:	2a00      	cmp	r2, #0
 8007e86:	d139      	bne.n	8007efc <_free_r+0xe4>
 8007e88:	f858 1c08 	ldr.w	r1, [r8, #-8]
 8007e8c:	1a5b      	subs	r3, r3, r1
 8007e8e:	4408      	add	r0, r1
 8007e90:	6899      	ldr	r1, [r3, #8]
 8007e92:	f105 0e08 	add.w	lr, r5, #8
 8007e96:	4571      	cmp	r1, lr
 8007e98:	d032      	beq.n	8007f00 <_free_r+0xe8>
 8007e9a:	f8d3 e00c 	ldr.w	lr, [r3, #12]
 8007e9e:	f8c1 e00c 	str.w	lr, [r1, #12]
 8007ea2:	f8ce 1008 	str.w	r1, [lr, #8]
 8007ea6:	19b9      	adds	r1, r7, r6
 8007ea8:	6849      	ldr	r1, [r1, #4]
 8007eaa:	07c9      	lsls	r1, r1, #31
 8007eac:	d40a      	bmi.n	8007ec4 <_free_r+0xac>
 8007eae:	4430      	add	r0, r6
 8007eb0:	68b9      	ldr	r1, [r7, #8]
 8007eb2:	bb3a      	cbnz	r2, 8007f04 <_free_r+0xec>
 8007eb4:	4e35      	ldr	r6, [pc, #212]	; (8007f8c <_free_r+0x174>)
 8007eb6:	42b1      	cmp	r1, r6
 8007eb8:	d124      	bne.n	8007f04 <_free_r+0xec>
 8007eba:	616b      	str	r3, [r5, #20]
 8007ebc:	612b      	str	r3, [r5, #16]
 8007ebe:	2201      	movs	r2, #1
 8007ec0:	60d9      	str	r1, [r3, #12]
 8007ec2:	6099      	str	r1, [r3, #8]
 8007ec4:	f040 0101 	orr.w	r1, r0, #1
 8007ec8:	6059      	str	r1, [r3, #4]
 8007eca:	5018      	str	r0, [r3, r0]
 8007ecc:	2a00      	cmp	r2, #0
 8007ece:	d1d3      	bne.n	8007e78 <_free_r+0x60>
 8007ed0:	f5b0 7f00 	cmp.w	r0, #512	; 0x200
 8007ed4:	d21a      	bcs.n	8007f0c <_free_r+0xf4>
 8007ed6:	08c0      	lsrs	r0, r0, #3
 8007ed8:	1081      	asrs	r1, r0, #2
 8007eda:	2201      	movs	r2, #1
 8007edc:	408a      	lsls	r2, r1
 8007ede:	6869      	ldr	r1, [r5, #4]
 8007ee0:	3001      	adds	r0, #1
 8007ee2:	430a      	orrs	r2, r1
 8007ee4:	606a      	str	r2, [r5, #4]
 8007ee6:	eb05 02c0 	add.w	r2, r5, r0, lsl #3
 8007eea:	f855 1030 	ldr.w	r1, [r5, r0, lsl #3]
 8007eee:	6099      	str	r1, [r3, #8]
 8007ef0:	3a08      	subs	r2, #8
 8007ef2:	60da      	str	r2, [r3, #12]
 8007ef4:	f845 3030 	str.w	r3, [r5, r0, lsl #3]
 8007ef8:	60cb      	str	r3, [r1, #12]
 8007efa:	e7bd      	b.n	8007e78 <_free_r+0x60>
 8007efc:	2200      	movs	r2, #0
 8007efe:	e7d2      	b.n	8007ea6 <_free_r+0x8e>
 8007f00:	2201      	movs	r2, #1
 8007f02:	e7d0      	b.n	8007ea6 <_free_r+0x8e>
 8007f04:	68fe      	ldr	r6, [r7, #12]
 8007f06:	60ce      	str	r6, [r1, #12]
 8007f08:	60b1      	str	r1, [r6, #8]
 8007f0a:	e7db      	b.n	8007ec4 <_free_r+0xac>
 8007f0c:	0a42      	lsrs	r2, r0, #9
 8007f0e:	2a04      	cmp	r2, #4
 8007f10:	d813      	bhi.n	8007f3a <_free_r+0x122>
 8007f12:	0982      	lsrs	r2, r0, #6
 8007f14:	3238      	adds	r2, #56	; 0x38
 8007f16:	1c51      	adds	r1, r2, #1
 8007f18:	eb05 06c2 	add.w	r6, r5, r2, lsl #3
 8007f1c:	f855 1031 	ldr.w	r1, [r5, r1, lsl #3]
 8007f20:	428e      	cmp	r6, r1
 8007f22:	d124      	bne.n	8007f6e <_free_r+0x156>
 8007f24:	2001      	movs	r0, #1
 8007f26:	1092      	asrs	r2, r2, #2
 8007f28:	fa00 f202 	lsl.w	r2, r0, r2
 8007f2c:	6868      	ldr	r0, [r5, #4]
 8007f2e:	4302      	orrs	r2, r0
 8007f30:	606a      	str	r2, [r5, #4]
 8007f32:	60de      	str	r6, [r3, #12]
 8007f34:	6099      	str	r1, [r3, #8]
 8007f36:	60b3      	str	r3, [r6, #8]
 8007f38:	e7de      	b.n	8007ef8 <_free_r+0xe0>
 8007f3a:	2a14      	cmp	r2, #20
 8007f3c:	d801      	bhi.n	8007f42 <_free_r+0x12a>
 8007f3e:	325b      	adds	r2, #91	; 0x5b
 8007f40:	e7e9      	b.n	8007f16 <_free_r+0xfe>
 8007f42:	2a54      	cmp	r2, #84	; 0x54
 8007f44:	d802      	bhi.n	8007f4c <_free_r+0x134>
 8007f46:	0b02      	lsrs	r2, r0, #12
 8007f48:	326e      	adds	r2, #110	; 0x6e
 8007f4a:	e7e4      	b.n	8007f16 <_free_r+0xfe>
 8007f4c:	f5b2 7faa 	cmp.w	r2, #340	; 0x154
 8007f50:	d802      	bhi.n	8007f58 <_free_r+0x140>
 8007f52:	0bc2      	lsrs	r2, r0, #15
 8007f54:	3277      	adds	r2, #119	; 0x77
 8007f56:	e7de      	b.n	8007f16 <_free_r+0xfe>
 8007f58:	f240 5154 	movw	r1, #1364	; 0x554
 8007f5c:	428a      	cmp	r2, r1
 8007f5e:	bf9a      	itte	ls
 8007f60:	0c82      	lsrls	r2, r0, #18
 8007f62:	327c      	addls	r2, #124	; 0x7c
 8007f64:	227e      	movhi	r2, #126	; 0x7e
 8007f66:	e7d6      	b.n	8007f16 <_free_r+0xfe>
 8007f68:	6889      	ldr	r1, [r1, #8]
 8007f6a:	428e      	cmp	r6, r1
 8007f6c:	d004      	beq.n	8007f78 <_free_r+0x160>
 8007f6e:	684a      	ldr	r2, [r1, #4]
 8007f70:	f022 0203 	bic.w	r2, r2, #3
 8007f74:	4290      	cmp	r0, r2
 8007f76:	d3f7      	bcc.n	8007f68 <_free_r+0x150>
 8007f78:	68ce      	ldr	r6, [r1, #12]
 8007f7a:	e7da      	b.n	8007f32 <_free_r+0x11a>
 8007f7c:	e8bd 81f0 	ldmia.w	sp!, {r4, r5, r6, r7, r8, pc}
 8007f80:	20000114 	.word	0x20000114
 8007f84:	20000520 	.word	0x20000520
 8007f88:	200042e8 	.word	0x200042e8
 8007f8c:	2000011c 	.word	0x2000011c

08007f90 <_fwalk_reent>:
 8007f90:	e92d 43f8 	stmdb	sp!, {r3, r4, r5, r6, r7, r8, r9, lr}
 8007f94:	4680      	mov	r8, r0
 8007f96:	4689      	mov	r9, r1
 8007f98:	f100 04d8 	add.w	r4, r0, #216	; 0xd8
 8007f9c:	2600      	movs	r6, #0
 8007f9e:	b914      	cbnz	r4, 8007fa6 <_fwalk_reent+0x16>
 8007fa0:	4630      	mov	r0, r6
 8007fa2:	e8bd 83f8 	ldmia.w	sp!, {r3, r4, r5, r6, r7, r8, r9, pc}
 8007fa6:	68a5      	ldr	r5, [r4, #8]
 8007fa8:	6867      	ldr	r7, [r4, #4]
 8007faa:	3f01      	subs	r7, #1
 8007fac:	d501      	bpl.n	8007fb2 <_fwalk_reent+0x22>
 8007fae:	6824      	ldr	r4, [r4, #0]
 8007fb0:	e7f5      	b.n	8007f9e <_fwalk_reent+0xe>
 8007fb2:	89ab      	ldrh	r3, [r5, #12]
 8007fb4:	2b01      	cmp	r3, #1
 8007fb6:	d907      	bls.n	8007fc8 <_fwalk_reent+0x38>
 8007fb8:	f9b5 300e 	ldrsh.w	r3, [r5, #14]
 8007fbc:	3301      	adds	r3, #1
 8007fbe:	d003      	beq.n	8007fc8 <_fwalk_reent+0x38>
 8007fc0:	4629      	mov	r1, r5
 8007fc2:	4640      	mov	r0, r8
 8007fc4:	47c8      	blx	r9
 8007fc6:	4306      	orrs	r6, r0
 8007fc8:	3568      	adds	r5, #104	; 0x68
 8007fca:	e7ee      	b.n	8007faa <_fwalk_reent+0x1a>

08007fcc <__libc_init_array>:
 8007fcc:	b570      	push	{r4, r5, r6, lr}
 8007fce:	4e0d      	ldr	r6, [pc, #52]	; (8008004 <__libc_init_array+0x38>)
 8007fd0:	4c0d      	ldr	r4, [pc, #52]	; (8008008 <__libc_init_array+0x3c>)
 8007fd2:	1ba4      	subs	r4, r4, r6
 8007fd4:	10a4      	asrs	r4, r4, #2
 8007fd6:	2500      	movs	r5, #0
 8007fd8:	42a5      	cmp	r5, r4
 8007fda:	d109      	bne.n	8007ff0 <__libc_init_array+0x24>
 8007fdc:	4e0b      	ldr	r6, [pc, #44]	; (800800c <__libc_init_array+0x40>)
 8007fde:	4c0c      	ldr	r4, [pc, #48]	; (8008010 <__libc_init_array+0x44>)
 8007fe0:	f003 fb98 	bl	800b714 <_init>
 8007fe4:	1ba4      	subs	r4, r4, r6
 8007fe6:	10a4      	asrs	r4, r4, #2
 8007fe8:	2500      	movs	r5, #0
 8007fea:	42a5      	cmp	r5, r4
 8007fec:	d105      	bne.n	8007ffa <__libc_init_array+0x2e>
 8007fee:	bd70      	pop	{r4, r5, r6, pc}
 8007ff0:	f856 3025 	ldr.w	r3, [r6, r5, lsl #2]
 8007ff4:	4798      	blx	r3
 8007ff6:	3501      	adds	r5, #1
 8007ff8:	e7ee      	b.n	8007fd8 <__libc_init_array+0xc>
 8007ffa:	f856 3025 	ldr.w	r3, [r6, r5, lsl #2]
 8007ffe:	4798      	blx	r3
 8008000:	3501      	adds	r5, #1
 8008002:	e7f2      	b.n	8007fea <__libc_init_array+0x1e>
 8008004:	0800c084 	.word	0x0800c084
 8008008:	0800c084 	.word	0x0800c084
 800800c:	0800c084 	.word	0x0800c084
 8008010:	0800c088 	.word	0x0800c088

08008014 <__retarget_lock_init_recursive>:
 8008014:	4770      	bx	lr

08008016 <__retarget_lock_close_recursive>:
 8008016:	4770      	bx	lr

08008018 <__retarget_lock_acquire_recursive>:
 8008018:	4770      	bx	lr

0800801a <__retarget_lock_release_recursive>:
 800801a:	4770      	bx	lr

0800801c <_malloc_r>:
 800801c:	e92d 4ff7 	stmdb	sp!, {r0, r1, r2, r4, r5, r6, r7, r8, r9, sl, fp, lr}
 8008020:	f101 040b 	add.w	r4, r1, #11
 8008024:	2c16      	cmp	r4, #22
 8008026:	4681      	mov	r9, r0
 8008028:	d907      	bls.n	800803a <_malloc_r+0x1e>
 800802a:	f034 0407 	bics.w	r4, r4, #7
 800802e:	d505      	bpl.n	800803c <_malloc_r+0x20>
 8008030:	230c      	movs	r3, #12
 8008032:	f8c9 3000 	str.w	r3, [r9]
 8008036:	2600      	movs	r6, #0
 8008038:	e131      	b.n	800829e <_malloc_r+0x282>
 800803a:	2410      	movs	r4, #16
 800803c:	428c      	cmp	r4, r1
 800803e:	d3f7      	bcc.n	8008030 <_malloc_r+0x14>
 8008040:	4648      	mov	r0, r9
 8008042:	f000 fa0d 	bl	8008460 <__malloc_lock>
 8008046:	f5b4 7ffc 	cmp.w	r4, #504	; 0x1f8
 800804a:	4d9c      	ldr	r5, [pc, #624]	; (80082bc <_malloc_r+0x2a0>)
 800804c:	d236      	bcs.n	80080bc <_malloc_r+0xa0>
 800804e:	f104 0208 	add.w	r2, r4, #8
 8008052:	442a      	add	r2, r5
 8008054:	f1a2 0108 	sub.w	r1, r2, #8
 8008058:	6856      	ldr	r6, [r2, #4]
 800805a:	428e      	cmp	r6, r1
 800805c:	ea4f 03d4 	mov.w	r3, r4, lsr #3
 8008060:	d102      	bne.n	8008068 <_malloc_r+0x4c>
 8008062:	68d6      	ldr	r6, [r2, #12]
 8008064:	42b2      	cmp	r2, r6
 8008066:	d010      	beq.n	800808a <_malloc_r+0x6e>
 8008068:	6873      	ldr	r3, [r6, #4]
 800806a:	68f2      	ldr	r2, [r6, #12]
 800806c:	68b1      	ldr	r1, [r6, #8]
 800806e:	f023 0303 	bic.w	r3, r3, #3
 8008072:	60ca      	str	r2, [r1, #12]
 8008074:	4433      	add	r3, r6
 8008076:	6091      	str	r1, [r2, #8]
 8008078:	685a      	ldr	r2, [r3, #4]
 800807a:	f042 0201 	orr.w	r2, r2, #1
 800807e:	605a      	str	r2, [r3, #4]
 8008080:	4648      	mov	r0, r9
 8008082:	f000 f9f3 	bl	800846c <__malloc_unlock>
 8008086:	3608      	adds	r6, #8
 8008088:	e109      	b.n	800829e <_malloc_r+0x282>
 800808a:	3302      	adds	r3, #2
 800808c:	4a8c      	ldr	r2, [pc, #560]	; (80082c0 <_malloc_r+0x2a4>)
 800808e:	692e      	ldr	r6, [r5, #16]
 8008090:	4296      	cmp	r6, r2
 8008092:	4611      	mov	r1, r2
 8008094:	d06d      	beq.n	8008172 <_malloc_r+0x156>
 8008096:	6870      	ldr	r0, [r6, #4]
 8008098:	f020 0003 	bic.w	r0, r0, #3
 800809c:	1b07      	subs	r7, r0, r4
 800809e:	2f0f      	cmp	r7, #15
 80080a0:	dd47      	ble.n	8008132 <_malloc_r+0x116>
 80080a2:	1933      	adds	r3, r6, r4
 80080a4:	f044 0401 	orr.w	r4, r4, #1
 80080a8:	6074      	str	r4, [r6, #4]
 80080aa:	616b      	str	r3, [r5, #20]
 80080ac:	612b      	str	r3, [r5, #16]
 80080ae:	60da      	str	r2, [r3, #12]
 80080b0:	609a      	str	r2, [r3, #8]
 80080b2:	f047 0201 	orr.w	r2, r7, #1
 80080b6:	605a      	str	r2, [r3, #4]
 80080b8:	5037      	str	r7, [r6, r0]
 80080ba:	e7e1      	b.n	8008080 <_malloc_r+0x64>
 80080bc:	0a63      	lsrs	r3, r4, #9
 80080be:	d02a      	beq.n	8008116 <_malloc_r+0xfa>
 80080c0:	2b04      	cmp	r3, #4
 80080c2:	d812      	bhi.n	80080ea <_malloc_r+0xce>
 80080c4:	09a3      	lsrs	r3, r4, #6
 80080c6:	3338      	adds	r3, #56	; 0x38
 80080c8:	1c5a      	adds	r2, r3, #1
 80080ca:	eb05 02c2 	add.w	r2, r5, r2, lsl #3
 80080ce:	f1a2 0008 	sub.w	r0, r2, #8
 80080d2:	6856      	ldr	r6, [r2, #4]
 80080d4:	4286      	cmp	r6, r0
 80080d6:	d006      	beq.n	80080e6 <_malloc_r+0xca>
 80080d8:	6872      	ldr	r2, [r6, #4]
 80080da:	f022 0203 	bic.w	r2, r2, #3
 80080de:	1b11      	subs	r1, r2, r4
 80080e0:	290f      	cmp	r1, #15
 80080e2:	dd1c      	ble.n	800811e <_malloc_r+0x102>
 80080e4:	3b01      	subs	r3, #1
 80080e6:	3301      	adds	r3, #1
 80080e8:	e7d0      	b.n	800808c <_malloc_r+0x70>
 80080ea:	2b14      	cmp	r3, #20
 80080ec:	d801      	bhi.n	80080f2 <_malloc_r+0xd6>
 80080ee:	335b      	adds	r3, #91	; 0x5b
 80080f0:	e7ea      	b.n	80080c8 <_malloc_r+0xac>
 80080f2:	2b54      	cmp	r3, #84	; 0x54
 80080f4:	d802      	bhi.n	80080fc <_malloc_r+0xe0>
 80080f6:	0b23      	lsrs	r3, r4, #12
 80080f8:	336e      	adds	r3, #110	; 0x6e
 80080fa:	e7e5      	b.n	80080c8 <_malloc_r+0xac>
 80080fc:	f5b3 7faa 	cmp.w	r3, #340	; 0x154
 8008100:	d802      	bhi.n	8008108 <_malloc_r+0xec>
 8008102:	0be3      	lsrs	r3, r4, #15
 8008104:	3377      	adds	r3, #119	; 0x77
 8008106:	e7df      	b.n	80080c8 <_malloc_r+0xac>
 8008108:	f240 5254 	movw	r2, #1364	; 0x554
 800810c:	4293      	cmp	r3, r2
 800810e:	d804      	bhi.n	800811a <_malloc_r+0xfe>
 8008110:	0ca3      	lsrs	r3, r4, #18
 8008112:	337c      	adds	r3, #124	; 0x7c
 8008114:	e7d8      	b.n	80080c8 <_malloc_r+0xac>
 8008116:	233f      	movs	r3, #63	; 0x3f
 8008118:	e7d6      	b.n	80080c8 <_malloc_r+0xac>
 800811a:	237e      	movs	r3, #126	; 0x7e
 800811c:	e7d4      	b.n	80080c8 <_malloc_r+0xac>
 800811e:	2900      	cmp	r1, #0
 8008120:	68f1      	ldr	r1, [r6, #12]
 8008122:	db04      	blt.n	800812e <_malloc_r+0x112>
 8008124:	68b3      	ldr	r3, [r6, #8]
 8008126:	60d9      	str	r1, [r3, #12]
 8008128:	608b      	str	r3, [r1, #8]
 800812a:	18b3      	adds	r3, r6, r2
 800812c:	e7a4      	b.n	8008078 <_malloc_r+0x5c>
 800812e:	460e      	mov	r6, r1
 8008130:	e7d0      	b.n	80080d4 <_malloc_r+0xb8>
 8008132:	2f00      	cmp	r7, #0
 8008134:	616a      	str	r2, [r5, #20]
 8008136:	612a      	str	r2, [r5, #16]
 8008138:	db05      	blt.n	8008146 <_malloc_r+0x12a>
 800813a:	4430      	add	r0, r6
 800813c:	6843      	ldr	r3, [r0, #4]
 800813e:	f043 0301 	orr.w	r3, r3, #1
 8008142:	6043      	str	r3, [r0, #4]
 8008144:	e79c      	b.n	8008080 <_malloc_r+0x64>
 8008146:	f5b0 7f00 	cmp.w	r0, #512	; 0x200
 800814a:	d244      	bcs.n	80081d6 <_malloc_r+0x1ba>
 800814c:	08c0      	lsrs	r0, r0, #3
 800814e:	1087      	asrs	r7, r0, #2
 8008150:	2201      	movs	r2, #1
 8008152:	fa02 f707 	lsl.w	r7, r2, r7
 8008156:	686a      	ldr	r2, [r5, #4]
 8008158:	3001      	adds	r0, #1
 800815a:	433a      	orrs	r2, r7
 800815c:	606a      	str	r2, [r5, #4]
 800815e:	eb05 02c0 	add.w	r2, r5, r0, lsl #3
 8008162:	f855 7030 	ldr.w	r7, [r5, r0, lsl #3]
 8008166:	60b7      	str	r7, [r6, #8]
 8008168:	3a08      	subs	r2, #8
 800816a:	60f2      	str	r2, [r6, #12]
 800816c:	f845 6030 	str.w	r6, [r5, r0, lsl #3]
 8008170:	60fe      	str	r6, [r7, #12]
 8008172:	2001      	movs	r0, #1
 8008174:	109a      	asrs	r2, r3, #2
 8008176:	fa00 f202 	lsl.w	r2, r0, r2
 800817a:	6868      	ldr	r0, [r5, #4]
 800817c:	4282      	cmp	r2, r0
 800817e:	f200 80a1 	bhi.w	80082c4 <_malloc_r+0x2a8>
 8008182:	4202      	tst	r2, r0
 8008184:	d106      	bne.n	8008194 <_malloc_r+0x178>
 8008186:	f023 0303 	bic.w	r3, r3, #3
 800818a:	0052      	lsls	r2, r2, #1
 800818c:	4202      	tst	r2, r0
 800818e:	f103 0304 	add.w	r3, r3, #4
 8008192:	d0fa      	beq.n	800818a <_malloc_r+0x16e>
 8008194:	eb05 0cc3 	add.w	ip, r5, r3, lsl #3
 8008198:	46e0      	mov	r8, ip
 800819a:	469e      	mov	lr, r3
 800819c:	f8d8 600c 	ldr.w	r6, [r8, #12]
 80081a0:	4546      	cmp	r6, r8
 80081a2:	d153      	bne.n	800824c <_malloc_r+0x230>
 80081a4:	f10e 0e01 	add.w	lr, lr, #1
 80081a8:	f01e 0f03 	tst.w	lr, #3
 80081ac:	f108 0808 	add.w	r8, r8, #8
 80081b0:	d1f4      	bne.n	800819c <_malloc_r+0x180>
 80081b2:	0798      	lsls	r0, r3, #30
 80081b4:	d179      	bne.n	80082aa <_malloc_r+0x28e>
 80081b6:	686b      	ldr	r3, [r5, #4]
 80081b8:	ea23 0302 	bic.w	r3, r3, r2
 80081bc:	606b      	str	r3, [r5, #4]
 80081be:	6868      	ldr	r0, [r5, #4]
 80081c0:	0052      	lsls	r2, r2, #1
 80081c2:	4282      	cmp	r2, r0
 80081c4:	d87e      	bhi.n	80082c4 <_malloc_r+0x2a8>
 80081c6:	2a00      	cmp	r2, #0
 80081c8:	d07c      	beq.n	80082c4 <_malloc_r+0x2a8>
 80081ca:	4673      	mov	r3, lr
 80081cc:	4202      	tst	r2, r0
 80081ce:	d1e1      	bne.n	8008194 <_malloc_r+0x178>
 80081d0:	3304      	adds	r3, #4
 80081d2:	0052      	lsls	r2, r2, #1
 80081d4:	e7fa      	b.n	80081cc <_malloc_r+0x1b0>
 80081d6:	0a42      	lsrs	r2, r0, #9
 80081d8:	2a04      	cmp	r2, #4
 80081da:	d815      	bhi.n	8008208 <_malloc_r+0x1ec>
 80081dc:	0982      	lsrs	r2, r0, #6
 80081de:	3238      	adds	r2, #56	; 0x38
 80081e0:	1c57      	adds	r7, r2, #1
 80081e2:	eb05 0ec2 	add.w	lr, r5, r2, lsl #3
 80081e6:	f855 7037 	ldr.w	r7, [r5, r7, lsl #3]
 80081ea:	45be      	cmp	lr, r7
 80081ec:	d126      	bne.n	800823c <_malloc_r+0x220>
 80081ee:	2001      	movs	r0, #1
 80081f0:	1092      	asrs	r2, r2, #2
 80081f2:	fa00 f202 	lsl.w	r2, r0, r2
 80081f6:	6868      	ldr	r0, [r5, #4]
 80081f8:	4310      	orrs	r0, r2
 80081fa:	6068      	str	r0, [r5, #4]
 80081fc:	f8c6 e00c 	str.w	lr, [r6, #12]
 8008200:	60b7      	str	r7, [r6, #8]
 8008202:	f8ce 6008 	str.w	r6, [lr, #8]
 8008206:	e7b3      	b.n	8008170 <_malloc_r+0x154>
 8008208:	2a14      	cmp	r2, #20
 800820a:	d801      	bhi.n	8008210 <_malloc_r+0x1f4>
 800820c:	325b      	adds	r2, #91	; 0x5b
 800820e:	e7e7      	b.n	80081e0 <_malloc_r+0x1c4>
 8008210:	2a54      	cmp	r2, #84	; 0x54
 8008212:	d802      	bhi.n	800821a <_malloc_r+0x1fe>
 8008214:	0b02      	lsrs	r2, r0, #12
 8008216:	326e      	adds	r2, #110	; 0x6e
 8008218:	e7e2      	b.n	80081e0 <_malloc_r+0x1c4>
 800821a:	f5b2 7faa 	cmp.w	r2, #340	; 0x154
 800821e:	d802      	bhi.n	8008226 <_malloc_r+0x20a>
 8008220:	0bc2      	lsrs	r2, r0, #15
 8008222:	3277      	adds	r2, #119	; 0x77
 8008224:	e7dc      	b.n	80081e0 <_malloc_r+0x1c4>
 8008226:	f240 5754 	movw	r7, #1364	; 0x554
 800822a:	42ba      	cmp	r2, r7
 800822c:	bf9a      	itte	ls
 800822e:	0c82      	lsrls	r2, r0, #18
 8008230:	327c      	addls	r2, #124	; 0x7c
 8008232:	227e      	movhi	r2, #126	; 0x7e
 8008234:	e7d4      	b.n	80081e0 <_malloc_r+0x1c4>
 8008236:	68bf      	ldr	r7, [r7, #8]
 8008238:	45be      	cmp	lr, r7
 800823a:	d004      	beq.n	8008246 <_malloc_r+0x22a>
 800823c:	687a      	ldr	r2, [r7, #4]
 800823e:	f022 0203 	bic.w	r2, r2, #3
 8008242:	4290      	cmp	r0, r2
 8008244:	d3f7      	bcc.n	8008236 <_malloc_r+0x21a>
 8008246:	f8d7 e00c 	ldr.w	lr, [r7, #12]
 800824a:	e7d7      	b.n	80081fc <_malloc_r+0x1e0>
 800824c:	6870      	ldr	r0, [r6, #4]
 800824e:	68f7      	ldr	r7, [r6, #12]
 8008250:	f020 0003 	bic.w	r0, r0, #3
 8008254:	eba0 0a04 	sub.w	sl, r0, r4
 8008258:	f1ba 0f0f 	cmp.w	sl, #15
 800825c:	dd10      	ble.n	8008280 <_malloc_r+0x264>
 800825e:	68b2      	ldr	r2, [r6, #8]
 8008260:	1933      	adds	r3, r6, r4
 8008262:	f044 0401 	orr.w	r4, r4, #1
 8008266:	6074      	str	r4, [r6, #4]
 8008268:	60d7      	str	r7, [r2, #12]
 800826a:	60ba      	str	r2, [r7, #8]
 800826c:	f04a 0201 	orr.w	r2, sl, #1
 8008270:	616b      	str	r3, [r5, #20]
 8008272:	612b      	str	r3, [r5, #16]
 8008274:	60d9      	str	r1, [r3, #12]
 8008276:	6099      	str	r1, [r3, #8]
 8008278:	605a      	str	r2, [r3, #4]
 800827a:	f846 a000 	str.w	sl, [r6, r0]
 800827e:	e6ff      	b.n	8008080 <_malloc_r+0x64>
 8008280:	f1ba 0f00 	cmp.w	sl, #0
 8008284:	db0f      	blt.n	80082a6 <_malloc_r+0x28a>
 8008286:	4430      	add	r0, r6
 8008288:	6843      	ldr	r3, [r0, #4]
 800828a:	f043 0301 	orr.w	r3, r3, #1
 800828e:	6043      	str	r3, [r0, #4]
 8008290:	f856 3f08 	ldr.w	r3, [r6, #8]!
 8008294:	4648      	mov	r0, r9
 8008296:	60df      	str	r7, [r3, #12]
 8008298:	60bb      	str	r3, [r7, #8]
 800829a:	f000 f8e7 	bl	800846c <__malloc_unlock>
 800829e:	4630      	mov	r0, r6
 80082a0:	b003      	add	sp, #12
 80082a2:	e8bd 8ff0 	ldmia.w	sp!, {r4, r5, r6, r7, r8, r9, sl, fp, pc}
 80082a6:	463e      	mov	r6, r7
 80082a8:	e77a      	b.n	80081a0 <_malloc_r+0x184>
 80082aa:	f85c 0908 	ldr.w	r0, [ip], #-8
 80082ae:	4584      	cmp	ip, r0
 80082b0:	f103 33ff 	add.w	r3, r3, #4294967295
 80082b4:	f43f af7d 	beq.w	80081b2 <_malloc_r+0x196>
 80082b8:	e781      	b.n	80081be <_malloc_r+0x1a2>
 80082ba:	bf00      	nop
 80082bc:	20000114 	.word	0x20000114
 80082c0:	2000011c 	.word	0x2000011c
 80082c4:	f8d5 b008 	ldr.w	fp, [r5, #8]
 80082c8:	f8db 6004 	ldr.w	r6, [fp, #4]
 80082cc:	f026 0603 	bic.w	r6, r6, #3
 80082d0:	42b4      	cmp	r4, r6
 80082d2:	d803      	bhi.n	80082dc <_malloc_r+0x2c0>
 80082d4:	1b33      	subs	r3, r6, r4
 80082d6:	2b0f      	cmp	r3, #15
 80082d8:	f300 8096 	bgt.w	8008408 <_malloc_r+0x3ec>
 80082dc:	4a4f      	ldr	r2, [pc, #316]	; (800841c <_malloc_r+0x400>)
 80082de:	6817      	ldr	r7, [r2, #0]
 80082e0:	4a4f      	ldr	r2, [pc, #316]	; (8008420 <_malloc_r+0x404>)
 80082e2:	6811      	ldr	r1, [r2, #0]
 80082e4:	3710      	adds	r7, #16
 80082e6:	3101      	adds	r1, #1
 80082e8:	eb0b 0306 	add.w	r3, fp, r6
 80082ec:	4427      	add	r7, r4
 80082ee:	d005      	beq.n	80082fc <_malloc_r+0x2e0>
 80082f0:	494c      	ldr	r1, [pc, #304]	; (8008424 <_malloc_r+0x408>)
 80082f2:	3901      	subs	r1, #1
 80082f4:	440f      	add	r7, r1
 80082f6:	3101      	adds	r1, #1
 80082f8:	4249      	negs	r1, r1
 80082fa:	400f      	ands	r7, r1
 80082fc:	4639      	mov	r1, r7
 80082fe:	4648      	mov	r0, r9
 8008300:	9201      	str	r2, [sp, #4]
 8008302:	9300      	str	r3, [sp, #0]
 8008304:	f000 f94c 	bl	80085a0 <_sbrk_r>
 8008308:	f1b0 3fff 	cmp.w	r0, #4294967295
 800830c:	4680      	mov	r8, r0
 800830e:	d056      	beq.n	80083be <_malloc_r+0x3a2>
 8008310:	9b00      	ldr	r3, [sp, #0]
 8008312:	9a01      	ldr	r2, [sp, #4]
 8008314:	4283      	cmp	r3, r0
 8008316:	d901      	bls.n	800831c <_malloc_r+0x300>
 8008318:	45ab      	cmp	fp, r5
 800831a:	d150      	bne.n	80083be <_malloc_r+0x3a2>
 800831c:	4842      	ldr	r0, [pc, #264]	; (8008428 <_malloc_r+0x40c>)
 800831e:	6801      	ldr	r1, [r0, #0]
 8008320:	4543      	cmp	r3, r8
 8008322:	eb07 0e01 	add.w	lr, r7, r1
 8008326:	f8c0 e000 	str.w	lr, [r0]
 800832a:	4940      	ldr	r1, [pc, #256]	; (800842c <_malloc_r+0x410>)
 800832c:	4682      	mov	sl, r0
 800832e:	d113      	bne.n	8008358 <_malloc_r+0x33c>
 8008330:	420b      	tst	r3, r1
 8008332:	d111      	bne.n	8008358 <_malloc_r+0x33c>
 8008334:	68ab      	ldr	r3, [r5, #8]
 8008336:	443e      	add	r6, r7
 8008338:	f046 0601 	orr.w	r6, r6, #1
 800833c:	605e      	str	r6, [r3, #4]
 800833e:	4a3c      	ldr	r2, [pc, #240]	; (8008430 <_malloc_r+0x414>)
 8008340:	f8da 3000 	ldr.w	r3, [sl]
 8008344:	6811      	ldr	r1, [r2, #0]
 8008346:	428b      	cmp	r3, r1
 8008348:	bf88      	it	hi
 800834a:	6013      	strhi	r3, [r2, #0]
 800834c:	4a39      	ldr	r2, [pc, #228]	; (8008434 <_malloc_r+0x418>)
 800834e:	6811      	ldr	r1, [r2, #0]
 8008350:	428b      	cmp	r3, r1
 8008352:	bf88      	it	hi
 8008354:	6013      	strhi	r3, [r2, #0]
 8008356:	e032      	b.n	80083be <_malloc_r+0x3a2>
 8008358:	6810      	ldr	r0, [r2, #0]
 800835a:	3001      	adds	r0, #1
 800835c:	bf1b      	ittet	ne
 800835e:	eba8 0303 	subne.w	r3, r8, r3
 8008362:	4473      	addne	r3, lr
 8008364:	f8c2 8000 	streq.w	r8, [r2]
 8008368:	f8ca 3000 	strne.w	r3, [sl]
 800836c:	f018 0007 	ands.w	r0, r8, #7
 8008370:	bf1c      	itt	ne
 8008372:	f1c0 0008 	rsbne	r0, r0, #8
 8008376:	4480      	addne	r8, r0
 8008378:	4b2a      	ldr	r3, [pc, #168]	; (8008424 <_malloc_r+0x408>)
 800837a:	4447      	add	r7, r8
 800837c:	4418      	add	r0, r3
 800837e:	400f      	ands	r7, r1
 8008380:	1bc7      	subs	r7, r0, r7
 8008382:	4639      	mov	r1, r7
 8008384:	4648      	mov	r0, r9
 8008386:	f000 f90b 	bl	80085a0 <_sbrk_r>
 800838a:	1c43      	adds	r3, r0, #1
 800838c:	bf08      	it	eq
 800838e:	4640      	moveq	r0, r8
 8008390:	f8da 3000 	ldr.w	r3, [sl]
 8008394:	f8c5 8008 	str.w	r8, [r5, #8]
 8008398:	bf08      	it	eq
 800839a:	2700      	moveq	r7, #0
 800839c:	eba0 0008 	sub.w	r0, r0, r8
 80083a0:	443b      	add	r3, r7
 80083a2:	4407      	add	r7, r0
 80083a4:	f047 0701 	orr.w	r7, r7, #1
 80083a8:	45ab      	cmp	fp, r5
 80083aa:	f8ca 3000 	str.w	r3, [sl]
 80083ae:	f8c8 7004 	str.w	r7, [r8, #4]
 80083b2:	d0c4      	beq.n	800833e <_malloc_r+0x322>
 80083b4:	2e0f      	cmp	r6, #15
 80083b6:	d810      	bhi.n	80083da <_malloc_r+0x3be>
 80083b8:	2301      	movs	r3, #1
 80083ba:	f8c8 3004 	str.w	r3, [r8, #4]
 80083be:	68ab      	ldr	r3, [r5, #8]
 80083c0:	685a      	ldr	r2, [r3, #4]
 80083c2:	f022 0203 	bic.w	r2, r2, #3
 80083c6:	4294      	cmp	r4, r2
 80083c8:	eba2 0304 	sub.w	r3, r2, r4
 80083cc:	d801      	bhi.n	80083d2 <_malloc_r+0x3b6>
 80083ce:	2b0f      	cmp	r3, #15
 80083d0:	dc1a      	bgt.n	8008408 <_malloc_r+0x3ec>
 80083d2:	4648      	mov	r0, r9
 80083d4:	f000 f84a 	bl	800846c <__malloc_unlock>
 80083d8:	e62d      	b.n	8008036 <_malloc_r+0x1a>
 80083da:	f8db 3004 	ldr.w	r3, [fp, #4]
 80083de:	3e0c      	subs	r6, #12
 80083e0:	f026 0607 	bic.w	r6, r6, #7
 80083e4:	f003 0301 	and.w	r3, r3, #1
 80083e8:	4333      	orrs	r3, r6
 80083ea:	f8cb 3004 	str.w	r3, [fp, #4]
 80083ee:	eb0b 0306 	add.w	r3, fp, r6
 80083f2:	2205      	movs	r2, #5
 80083f4:	2e0f      	cmp	r6, #15
 80083f6:	605a      	str	r2, [r3, #4]
 80083f8:	609a      	str	r2, [r3, #8]
 80083fa:	d9a0      	bls.n	800833e <_malloc_r+0x322>
 80083fc:	f10b 0108 	add.w	r1, fp, #8
 8008400:	4648      	mov	r0, r9
 8008402:	f7ff fd09 	bl	8007e18 <_free_r>
 8008406:	e79a      	b.n	800833e <_malloc_r+0x322>
 8008408:	68ae      	ldr	r6, [r5, #8]
 800840a:	f044 0201 	orr.w	r2, r4, #1
 800840e:	4434      	add	r4, r6
 8008410:	f043 0301 	orr.w	r3, r3, #1
 8008414:	6072      	str	r2, [r6, #4]
 8008416:	60ac      	str	r4, [r5, #8]
 8008418:	6063      	str	r3, [r4, #4]
 800841a:	e631      	b.n	8008080 <_malloc_r+0x64>
 800841c:	200042e8 	.word	0x200042e8
 8008420:	2000051c 	.word	0x2000051c
 8008424:	00001000 	.word	0x00001000
 8008428:	200042b8 	.word	0x200042b8
 800842c:	00000fff 	.word	0x00000fff
 8008430:	200042e0 	.word	0x200042e0
 8008434:	200042e4 	.word	0x200042e4

08008438 <memcpy>:
 8008438:	b510      	push	{r4, lr}
 800843a:	1e43      	subs	r3, r0, #1
 800843c:	440a      	add	r2, r1
 800843e:	4291      	cmp	r1, r2
 8008440:	d100      	bne.n	8008444 <memcpy+0xc>
 8008442:	bd10      	pop	{r4, pc}
 8008444:	f811 4b01 	ldrb.w	r4, [r1], #1
 8008448:	f803 4f01 	strb.w	r4, [r3, #1]!
 800844c:	e7f7      	b.n	800843e <memcpy+0x6>

0800844e <memset>:
 800844e:	4402      	add	r2, r0
 8008450:	4603      	mov	r3, r0
 8008452:	4293      	cmp	r3, r2
 8008454:	d100      	bne.n	8008458 <memset+0xa>
 8008456:	4770      	bx	lr
 8008458:	f803 1b01 	strb.w	r1, [r3], #1
 800845c:	e7f9      	b.n	8008452 <memset+0x4>
	...

08008460 <__malloc_lock>:
 8008460:	4801      	ldr	r0, [pc, #4]	; (8008468 <__malloc_lock+0x8>)
 8008462:	f7ff bdd9 	b.w	8008018 <__retarget_lock_acquire_recursive>
 8008466:	bf00      	nop
 8008468:	20004460 	.word	0x20004460

0800846c <__malloc_unlock>:
 800846c:	4801      	ldr	r0, [pc, #4]	; (8008474 <__malloc_unlock+0x8>)
 800846e:	f7ff bdd4 	b.w	800801a <__retarget_lock_release_recursive>
 8008472:	bf00      	nop
 8008474:	20004460 	.word	0x20004460

08008478 <printf>:
 8008478:	b40f      	push	{r0, r1, r2, r3}
 800847a:	4b0a      	ldr	r3, [pc, #40]	; (80084a4 <printf+0x2c>)
 800847c:	b513      	push	{r0, r1, r4, lr}
 800847e:	681c      	ldr	r4, [r3, #0]
 8008480:	b124      	cbz	r4, 800848c <printf+0x14>
 8008482:	69a3      	ldr	r3, [r4, #24]
 8008484:	b913      	cbnz	r3, 800848c <printf+0x14>
 8008486:	4620      	mov	r0, r4
 8008488:	f7ff fbf0 	bl	8007c6c <__sinit>
 800848c:	ab05      	add	r3, sp, #20
 800848e:	9a04      	ldr	r2, [sp, #16]
 8008490:	68a1      	ldr	r1, [r4, #8]
 8008492:	9301      	str	r3, [sp, #4]
 8008494:	4620      	mov	r0, r4
 8008496:	f000 f8d7 	bl	8008648 <_vfprintf_r>
 800849a:	b002      	add	sp, #8
 800849c:	e8bd 4010 	ldmia.w	sp!, {r4, lr}
 80084a0:	b004      	add	sp, #16
 80084a2:	4770      	bx	lr
 80084a4:	20000020 	.word	0x20000020

080084a8 <putchar>:
 80084a8:	b538      	push	{r3, r4, r5, lr}
 80084aa:	4b08      	ldr	r3, [pc, #32]	; (80084cc <putchar+0x24>)
 80084ac:	681c      	ldr	r4, [r3, #0]
 80084ae:	4605      	mov	r5, r0
 80084b0:	b124      	cbz	r4, 80084bc <putchar+0x14>
 80084b2:	69a3      	ldr	r3, [r4, #24]
 80084b4:	b913      	cbnz	r3, 80084bc <putchar+0x14>
 80084b6:	4620      	mov	r0, r4
 80084b8:	f7ff fbd8 	bl	8007c6c <__sinit>
 80084bc:	68a2      	ldr	r2, [r4, #8]
 80084be:	4629      	mov	r1, r5
 80084c0:	4620      	mov	r0, r4
 80084c2:	e8bd 4038 	ldmia.w	sp!, {r3, r4, r5, lr}
 80084c6:	f002 bd5d 	b.w	800af84 <_putc_r>
 80084ca:	bf00      	nop
 80084cc:	20000020 	.word	0x20000020

080084d0 <_puts_r>:
 80084d0:	b530      	push	{r4, r5, lr}
 80084d2:	4605      	mov	r5, r0
 80084d4:	b089      	sub	sp, #36	; 0x24
 80084d6:	4608      	mov	r0, r1
 80084d8:	460c      	mov	r4, r1
 80084da:	f7f7 fe83 	bl	80001e4 <strlen>
 80084de:	4b28      	ldr	r3, [pc, #160]	; (8008580 <_puts_r+0xb0>)
 80084e0:	9306      	str	r3, [sp, #24]
 80084e2:	2301      	movs	r3, #1
 80084e4:	9005      	str	r0, [sp, #20]
 80084e6:	9307      	str	r3, [sp, #28]
 80084e8:	4418      	add	r0, r3
 80084ea:	ab04      	add	r3, sp, #16
 80084ec:	9301      	str	r3, [sp, #4]
 80084ee:	2302      	movs	r3, #2
 80084f0:	9404      	str	r4, [sp, #16]
 80084f2:	9003      	str	r0, [sp, #12]
 80084f4:	9302      	str	r3, [sp, #8]
 80084f6:	b125      	cbz	r5, 8008502 <_puts_r+0x32>
 80084f8:	69ab      	ldr	r3, [r5, #24]
 80084fa:	b913      	cbnz	r3, 8008502 <_puts_r+0x32>
 80084fc:	4628      	mov	r0, r5
 80084fe:	f7ff fbb5 	bl	8007c6c <__sinit>
 8008502:	69ab      	ldr	r3, [r5, #24]
 8008504:	68ac      	ldr	r4, [r5, #8]
 8008506:	b913      	cbnz	r3, 800850e <_puts_r+0x3e>
 8008508:	4628      	mov	r0, r5
 800850a:	f7ff fbaf 	bl	8007c6c <__sinit>
 800850e:	4b1d      	ldr	r3, [pc, #116]	; (8008584 <_puts_r+0xb4>)
 8008510:	429c      	cmp	r4, r3
 8008512:	d12a      	bne.n	800856a <_puts_r+0x9a>
 8008514:	686c      	ldr	r4, [r5, #4]
 8008516:	6e63      	ldr	r3, [r4, #100]	; 0x64
 8008518:	07db      	lsls	r3, r3, #31
 800851a:	d405      	bmi.n	8008528 <_puts_r+0x58>
 800851c:	89a3      	ldrh	r3, [r4, #12]
 800851e:	0598      	lsls	r0, r3, #22
 8008520:	d402      	bmi.n	8008528 <_puts_r+0x58>
 8008522:	6da0      	ldr	r0, [r4, #88]	; 0x58
 8008524:	f7ff fd78 	bl	8008018 <__retarget_lock_acquire_recursive>
 8008528:	f9b4 300c 	ldrsh.w	r3, [r4, #12]
 800852c:	0499      	lsls	r1, r3, #18
 800852e:	d406      	bmi.n	800853e <_puts_r+0x6e>
 8008530:	f443 5300 	orr.w	r3, r3, #8192	; 0x2000
 8008534:	81a3      	strh	r3, [r4, #12]
 8008536:	6e63      	ldr	r3, [r4, #100]	; 0x64
 8008538:	f423 5300 	bic.w	r3, r3, #8192	; 0x2000
 800853c:	6663      	str	r3, [r4, #100]	; 0x64
 800853e:	4628      	mov	r0, r5
 8008540:	aa01      	add	r2, sp, #4
 8008542:	4621      	mov	r1, r4
 8008544:	f002 f852 	bl	800a5ec <__sfvwrite_r>
 8008548:	6e63      	ldr	r3, [r4, #100]	; 0x64
 800854a:	2800      	cmp	r0, #0
 800854c:	bf14      	ite	ne
 800854e:	f04f 35ff 	movne.w	r5, #4294967295
 8008552:	250a      	moveq	r5, #10
 8008554:	07da      	lsls	r2, r3, #31
 8008556:	d405      	bmi.n	8008564 <_puts_r+0x94>
 8008558:	89a3      	ldrh	r3, [r4, #12]
 800855a:	059b      	lsls	r3, r3, #22
 800855c:	d402      	bmi.n	8008564 <_puts_r+0x94>
 800855e:	6da0      	ldr	r0, [r4, #88]	; 0x58
 8008560:	f7ff fd5b 	bl	800801a <__retarget_lock_release_recursive>
 8008564:	4628      	mov	r0, r5
 8008566:	b009      	add	sp, #36	; 0x24
 8008568:	bd30      	pop	{r4, r5, pc}
 800856a:	4b07      	ldr	r3, [pc, #28]	; (8008588 <_puts_r+0xb8>)
 800856c:	429c      	cmp	r4, r3
 800856e:	d101      	bne.n	8008574 <_puts_r+0xa4>
 8008570:	68ac      	ldr	r4, [r5, #8]
 8008572:	e7d0      	b.n	8008516 <_puts_r+0x46>
 8008574:	4b05      	ldr	r3, [pc, #20]	; (800858c <_puts_r+0xbc>)
 8008576:	429c      	cmp	r4, r3
 8008578:	bf08      	it	eq
 800857a:	68ec      	ldreq	r4, [r5, #12]
 800857c:	e7cb      	b.n	8008516 <_puts_r+0x46>
 800857e:	bf00      	nop
 8008580:	0800ba98 	.word	0x0800ba98
 8008584:	0800bc34 	.word	0x0800bc34
 8008588:	0800bc54 	.word	0x0800bc54
 800858c:	0800bc14 	.word	0x0800bc14

08008590 <puts>:
 8008590:	4b02      	ldr	r3, [pc, #8]	; (800859c <puts+0xc>)
 8008592:	4601      	mov	r1, r0
 8008594:	6818      	ldr	r0, [r3, #0]
 8008596:	f7ff bf9b 	b.w	80084d0 <_puts_r>
 800859a:	bf00      	nop
 800859c:	20000020 	.word	0x20000020

080085a0 <_sbrk_r>:
 80085a0:	b538      	push	{r3, r4, r5, lr}
 80085a2:	4c06      	ldr	r4, [pc, #24]	; (80085bc <_sbrk_r+0x1c>)
 80085a4:	2300      	movs	r3, #0
 80085a6:	4605      	mov	r5, r0
 80085a8:	4608      	mov	r0, r1
 80085aa:	6023      	str	r3, [r4, #0]
 80085ac:	f7ff f9ac 	bl	8007908 <_sbrk>
 80085b0:	1c43      	adds	r3, r0, #1
 80085b2:	d102      	bne.n	80085ba <_sbrk_r+0x1a>
 80085b4:	6823      	ldr	r3, [r4, #0]
 80085b6:	b103      	cbz	r3, 80085ba <_sbrk_r+0x1a>
 80085b8:	602b      	str	r3, [r5, #0]
 80085ba:	bd38      	pop	{r3, r4, r5, pc}
 80085bc:	20004468 	.word	0x20004468

080085c0 <__sread>:
 80085c0:	b510      	push	{r4, lr}
 80085c2:	460c      	mov	r4, r1
 80085c4:	f9b1 100e 	ldrsh.w	r1, [r1, #14]
 80085c8:	f002 fd24 	bl	800b014 <_read_r>
 80085cc:	2800      	cmp	r0, #0
 80085ce:	bfab      	itete	ge
 80085d0:	6d63      	ldrge	r3, [r4, #84]	; 0x54
 80085d2:	89a3      	ldrhlt	r3, [r4, #12]
 80085d4:	181b      	addge	r3, r3, r0
 80085d6:	f423 5380 	biclt.w	r3, r3, #4096	; 0x1000
 80085da:	bfac      	ite	ge
 80085dc:	6563      	strge	r3, [r4, #84]	; 0x54
 80085de:	81a3      	strhlt	r3, [r4, #12]
 80085e0:	bd10      	pop	{r4, pc}

080085e2 <__swrite>:
 80085e2:	e92d 41f0 	stmdb	sp!, {r4, r5, r6, r7, r8, lr}
 80085e6:	461f      	mov	r7, r3
 80085e8:	898b      	ldrh	r3, [r1, #12]
 80085ea:	05db      	lsls	r3, r3, #23
 80085ec:	4605      	mov	r5, r0
 80085ee:	460c      	mov	r4, r1
 80085f0:	4616      	mov	r6, r2
 80085f2:	d505      	bpl.n	8008600 <__swrite+0x1e>
 80085f4:	2302      	movs	r3, #2
 80085f6:	2200      	movs	r2, #0
 80085f8:	f9b1 100e 	ldrsh.w	r1, [r1, #14]
 80085fc:	f002 f952 	bl	800a8a4 <_lseek_r>
 8008600:	89a3      	ldrh	r3, [r4, #12]
 8008602:	f9b4 100e 	ldrsh.w	r1, [r4, #14]
 8008606:	f423 5380 	bic.w	r3, r3, #4096	; 0x1000
 800860a:	81a3      	strh	r3, [r4, #12]
 800860c:	4632      	mov	r2, r6
 800860e:	463b      	mov	r3, r7
 8008610:	4628      	mov	r0, r5
 8008612:	e8bd 41f0 	ldmia.w	sp!, {r4, r5, r6, r7, r8, lr}
 8008616:	f001 b893 	b.w	8009740 <_write_r>

0800861a <__sseek>:
 800861a:	b510      	push	{r4, lr}
 800861c:	460c      	mov	r4, r1
 800861e:	f9b1 100e 	ldrsh.w	r1, [r1, #14]
 8008622:	f002 f93f 	bl	800a8a4 <_lseek_r>
 8008626:	1c43      	adds	r3, r0, #1
 8008628:	89a3      	ldrh	r3, [r4, #12]
 800862a:	bf15      	itete	ne
 800862c:	6560      	strne	r0, [r4, #84]	; 0x54
 800862e:	f423 5380 	biceq.w	r3, r3, #4096	; 0x1000
 8008632:	f443 5380 	orrne.w	r3, r3, #4096	; 0x1000
 8008636:	81a3      	strheq	r3, [r4, #12]
 8008638:	bf18      	it	ne
 800863a:	81a3      	strhne	r3, [r4, #12]
 800863c:	bd10      	pop	{r4, pc}

0800863e <__sclose>:
 800863e:	f9b1 100e 	ldrsh.w	r1, [r1, #14]
 8008642:	f001 b8fd 	b.w	8009840 <_close_r>
	...

08008648 <_vfprintf_r>:
 8008648:	e92d 4ff0 	stmdb	sp!, {r4, r5, r6, r7, r8, r9, sl, fp, lr}
 800864c:	b0bd      	sub	sp, #244	; 0xf4
 800864e:	4688      	mov	r8, r1
 8008650:	4615      	mov	r5, r2
 8008652:	461c      	mov	r4, r3
 8008654:	461f      	mov	r7, r3
 8008656:	4683      	mov	fp, r0
 8008658:	f002 f916 	bl	800a888 <_localeconv_r>
 800865c:	6803      	ldr	r3, [r0, #0]
 800865e:	930d      	str	r3, [sp, #52]	; 0x34
 8008660:	4618      	mov	r0, r3
 8008662:	f7f7 fdbf 	bl	80001e4 <strlen>
 8008666:	9009      	str	r0, [sp, #36]	; 0x24
 8008668:	f1bb 0f00 	cmp.w	fp, #0
 800866c:	d005      	beq.n	800867a <_vfprintf_r+0x32>
 800866e:	f8db 3018 	ldr.w	r3, [fp, #24]
 8008672:	b913      	cbnz	r3, 800867a <_vfprintf_r+0x32>
 8008674:	4658      	mov	r0, fp
 8008676:	f7ff faf9 	bl	8007c6c <__sinit>
 800867a:	4b99      	ldr	r3, [pc, #612]	; (80088e0 <_vfprintf_r+0x298>)
 800867c:	4598      	cmp	r8, r3
 800867e:	d137      	bne.n	80086f0 <_vfprintf_r+0xa8>
 8008680:	f8db 8004 	ldr.w	r8, [fp, #4]
 8008684:	f8d8 3064 	ldr.w	r3, [r8, #100]	; 0x64
 8008688:	07d8      	lsls	r0, r3, #31
 800868a:	d407      	bmi.n	800869c <_vfprintf_r+0x54>
 800868c:	f8b8 300c 	ldrh.w	r3, [r8, #12]
 8008690:	0599      	lsls	r1, r3, #22
 8008692:	d403      	bmi.n	800869c <_vfprintf_r+0x54>
 8008694:	f8d8 0058 	ldr.w	r0, [r8, #88]	; 0x58
 8008698:	f7ff fcbe 	bl	8008018 <__retarget_lock_acquire_recursive>
 800869c:	f9b8 300c 	ldrsh.w	r3, [r8, #12]
 80086a0:	049a      	lsls	r2, r3, #18
 80086a2:	d409      	bmi.n	80086b8 <_vfprintf_r+0x70>
 80086a4:	f443 5300 	orr.w	r3, r3, #8192	; 0x2000
 80086a8:	f8a8 300c 	strh.w	r3, [r8, #12]
 80086ac:	f8d8 3064 	ldr.w	r3, [r8, #100]	; 0x64
 80086b0:	f423 5300 	bic.w	r3, r3, #8192	; 0x2000
 80086b4:	f8c8 3064 	str.w	r3, [r8, #100]	; 0x64
 80086b8:	f8b8 300c 	ldrh.w	r3, [r8, #12]
 80086bc:	071e      	lsls	r6, r3, #28
 80086be:	d502      	bpl.n	80086c6 <_vfprintf_r+0x7e>
 80086c0:	f8d8 3010 	ldr.w	r3, [r8, #16]
 80086c4:	bb03      	cbnz	r3, 8008708 <_vfprintf_r+0xc0>
 80086c6:	4641      	mov	r1, r8
 80086c8:	4658      	mov	r0, fp
 80086ca:	f001 f84b 	bl	8009764 <__swsetup_r>
 80086ce:	b1d8      	cbz	r0, 8008708 <_vfprintf_r+0xc0>
 80086d0:	f8d8 3064 	ldr.w	r3, [r8, #100]	; 0x64
 80086d4:	07dd      	lsls	r5, r3, #31
 80086d6:	d407      	bmi.n	80086e8 <_vfprintf_r+0xa0>
 80086d8:	f8b8 300c 	ldrh.w	r3, [r8, #12]
 80086dc:	059c      	lsls	r4, r3, #22
 80086de:	d403      	bmi.n	80086e8 <_vfprintf_r+0xa0>
 80086e0:	f8d8 0058 	ldr.w	r0, [r8, #88]	; 0x58
 80086e4:	f7ff fc99 	bl	800801a <__retarget_lock_release_recursive>
 80086e8:	f04f 33ff 	mov.w	r3, #4294967295
 80086ec:	930a      	str	r3, [sp, #40]	; 0x28
 80086ee:	e026      	b.n	800873e <_vfprintf_r+0xf6>
 80086f0:	4b7c      	ldr	r3, [pc, #496]	; (80088e4 <_vfprintf_r+0x29c>)
 80086f2:	4598      	cmp	r8, r3
 80086f4:	d102      	bne.n	80086fc <_vfprintf_r+0xb4>
 80086f6:	f8db 8008 	ldr.w	r8, [fp, #8]
 80086fa:	e7c3      	b.n	8008684 <_vfprintf_r+0x3c>
 80086fc:	4b7a      	ldr	r3, [pc, #488]	; (80088e8 <_vfprintf_r+0x2a0>)
 80086fe:	4598      	cmp	r8, r3
 8008700:	bf08      	it	eq
 8008702:	f8db 800c 	ldreq.w	r8, [fp, #12]
 8008706:	e7bd      	b.n	8008684 <_vfprintf_r+0x3c>
 8008708:	f8b8 300c 	ldrh.w	r3, [r8, #12]
 800870c:	f003 021a 	and.w	r2, r3, #26
 8008710:	2a0a      	cmp	r2, #10
 8008712:	d118      	bne.n	8008746 <_vfprintf_r+0xfe>
 8008714:	f9b8 200e 	ldrsh.w	r2, [r8, #14]
 8008718:	2a00      	cmp	r2, #0
 800871a:	db14      	blt.n	8008746 <_vfprintf_r+0xfe>
 800871c:	f8d8 2064 	ldr.w	r2, [r8, #100]	; 0x64
 8008720:	07d0      	lsls	r0, r2, #31
 8008722:	d405      	bmi.n	8008730 <_vfprintf_r+0xe8>
 8008724:	0599      	lsls	r1, r3, #22
 8008726:	d403      	bmi.n	8008730 <_vfprintf_r+0xe8>
 8008728:	f8d8 0058 	ldr.w	r0, [r8, #88]	; 0x58
 800872c:	f7ff fc75 	bl	800801a <__retarget_lock_release_recursive>
 8008730:	4623      	mov	r3, r4
 8008732:	462a      	mov	r2, r5
 8008734:	4641      	mov	r1, r8
 8008736:	4658      	mov	r0, fp
 8008738:	f000 ffc2 	bl	80096c0 <__sbprintf>
 800873c:	900a      	str	r0, [sp, #40]	; 0x28
 800873e:	980a      	ldr	r0, [sp, #40]	; 0x28
 8008740:	b03d      	add	sp, #244	; 0xf4
 8008742:	e8bd 8ff0 	ldmia.w	sp!, {r4, r5, r6, r7, r8, r9, sl, fp, pc}
 8008746:	ed9f 7b64 	vldr	d7, [pc, #400]	; 80088d8 <_vfprintf_r+0x290>
 800874a:	ed8d 7b06 	vstr	d7, [sp, #24]
 800874e:	2300      	movs	r3, #0
 8008750:	ac2c      	add	r4, sp, #176	; 0xb0
 8008752:	941f      	str	r4, [sp, #124]	; 0x7c
 8008754:	9321      	str	r3, [sp, #132]	; 0x84
 8008756:	9320      	str	r3, [sp, #128]	; 0x80
 8008758:	9505      	str	r5, [sp, #20]
 800875a:	9303      	str	r3, [sp, #12]
 800875c:	9311      	str	r3, [sp, #68]	; 0x44
 800875e:	9310      	str	r3, [sp, #64]	; 0x40
 8008760:	930a      	str	r3, [sp, #40]	; 0x28
 8008762:	9d05      	ldr	r5, [sp, #20]
 8008764:	462b      	mov	r3, r5
 8008766:	f813 2b01 	ldrb.w	r2, [r3], #1
 800876a:	b112      	cbz	r2, 8008772 <_vfprintf_r+0x12a>
 800876c:	2a25      	cmp	r2, #37	; 0x25
 800876e:	f040 8083 	bne.w	8008878 <_vfprintf_r+0x230>
 8008772:	9b05      	ldr	r3, [sp, #20]
 8008774:	1aee      	subs	r6, r5, r3
 8008776:	d00d      	beq.n	8008794 <_vfprintf_r+0x14c>
 8008778:	e884 0048 	stmia.w	r4, {r3, r6}
 800877c:	9b21      	ldr	r3, [sp, #132]	; 0x84
 800877e:	4433      	add	r3, r6
 8008780:	9321      	str	r3, [sp, #132]	; 0x84
 8008782:	9b20      	ldr	r3, [sp, #128]	; 0x80
 8008784:	3301      	adds	r3, #1
 8008786:	2b07      	cmp	r3, #7
 8008788:	9320      	str	r3, [sp, #128]	; 0x80
 800878a:	dc77      	bgt.n	800887c <_vfprintf_r+0x234>
 800878c:	3408      	adds	r4, #8
 800878e:	9b0a      	ldr	r3, [sp, #40]	; 0x28
 8008790:	4433      	add	r3, r6
 8008792:	930a      	str	r3, [sp, #40]	; 0x28
 8008794:	782b      	ldrb	r3, [r5, #0]
 8008796:	2b00      	cmp	r3, #0
 8008798:	f000 8739 	beq.w	800960e <_vfprintf_r+0xfc6>
 800879c:	2300      	movs	r3, #0
 800879e:	1c69      	adds	r1, r5, #1
 80087a0:	f88d 305f 	strb.w	r3, [sp, #95]	; 0x5f
 80087a4:	461a      	mov	r2, r3
 80087a6:	f04f 3aff 	mov.w	sl, #4294967295
 80087aa:	930b      	str	r3, [sp, #44]	; 0x2c
 80087ac:	461d      	mov	r5, r3
 80087ae:	200a      	movs	r0, #10
 80087b0:	1c4e      	adds	r6, r1, #1
 80087b2:	7809      	ldrb	r1, [r1, #0]
 80087b4:	9605      	str	r6, [sp, #20]
 80087b6:	9102      	str	r1, [sp, #8]
 80087b8:	9902      	ldr	r1, [sp, #8]
 80087ba:	3920      	subs	r1, #32
 80087bc:	2958      	cmp	r1, #88	; 0x58
 80087be:	f200 841d 	bhi.w	8008ffc <_vfprintf_r+0x9b4>
 80087c2:	e8df f011 	tbh	[pc, r1, lsl #1]
 80087c6:	00b3      	.short	0x00b3
 80087c8:	041b041b 	.word	0x041b041b
 80087cc:	041b00b8 	.word	0x041b00b8
 80087d0:	041b041b 	.word	0x041b041b
 80087d4:	041b041b 	.word	0x041b041b
 80087d8:	00bb041b 	.word	0x00bb041b
 80087dc:	041b0065 	.word	0x041b0065
 80087e0:	00c700c4 	.word	0x00c700c4
 80087e4:	00e4041b 	.word	0x00e4041b
 80087e8:	00e700e7 	.word	0x00e700e7
 80087ec:	00e700e7 	.word	0x00e700e7
 80087f0:	00e700e7 	.word	0x00e700e7
 80087f4:	00e700e7 	.word	0x00e700e7
 80087f8:	041b00e7 	.word	0x041b00e7
 80087fc:	041b041b 	.word	0x041b041b
 8008800:	041b041b 	.word	0x041b041b
 8008804:	041b041b 	.word	0x041b041b
 8008808:	041b041b 	.word	0x041b041b
 800880c:	011b041b 	.word	0x011b041b
 8008810:	041b0131 	.word	0x041b0131
 8008814:	041b0131 	.word	0x041b0131
 8008818:	041b041b 	.word	0x041b041b
 800881c:	00fa041b 	.word	0x00fa041b
 8008820:	041b041b 	.word	0x041b041b
 8008824:	041b0346 	.word	0x041b0346
 8008828:	041b041b 	.word	0x041b041b
 800882c:	041b041b 	.word	0x041b041b
 8008830:	041b03ad 	.word	0x041b03ad
 8008834:	0093041b 	.word	0x0093041b
 8008838:	041b041b 	.word	0x041b041b
 800883c:	041b041b 	.word	0x041b041b
 8008840:	041b041b 	.word	0x041b041b
 8008844:	041b041b 	.word	0x041b041b
 8008848:	041b041b 	.word	0x041b041b
 800884c:	006b010d 	.word	0x006b010d
 8008850:	01310131 	.word	0x01310131
 8008854:	00fd0131 	.word	0x00fd0131
 8008858:	041b006b 	.word	0x041b006b
 800885c:	0100041b 	.word	0x0100041b
 8008860:	0328041b 	.word	0x0328041b
 8008864:	037c0348 	.word	0x037c0348
 8008868:	041b0107 	.word	0x041b0107
 800886c:	041b038d 	.word	0x041b038d
 8008870:	041b03af 	.word	0x041b03af
 8008874:	03c7041b 	.word	0x03c7041b
 8008878:	461d      	mov	r5, r3
 800887a:	e773      	b.n	8008764 <_vfprintf_r+0x11c>
 800887c:	aa1f      	add	r2, sp, #124	; 0x7c
 800887e:	4641      	mov	r1, r8
 8008880:	4658      	mov	r0, fp
 8008882:	f002 fd59 	bl	800b338 <__sprint_r>
 8008886:	2800      	cmp	r0, #0
 8008888:	f040 8699 	bne.w	80095be <_vfprintf_r+0xf76>
 800888c:	ac2c      	add	r4, sp, #176	; 0xb0
 800888e:	e77e      	b.n	800878e <_vfprintf_r+0x146>
 8008890:	2301      	movs	r3, #1
 8008892:	222b      	movs	r2, #43	; 0x2b
 8008894:	9905      	ldr	r1, [sp, #20]
 8008896:	e78b      	b.n	80087b0 <_vfprintf_r+0x168>
 8008898:	460f      	mov	r7, r1
 800889a:	e7fb      	b.n	8008894 <_vfprintf_r+0x24c>
 800889c:	b10b      	cbz	r3, 80088a2 <_vfprintf_r+0x25a>
 800889e:	f88d 205f 	strb.w	r2, [sp, #95]	; 0x5f
 80088a2:	06aa      	lsls	r2, r5, #26
 80088a4:	f140 80b0 	bpl.w	8008a08 <_vfprintf_r+0x3c0>
 80088a8:	3707      	adds	r7, #7
 80088aa:	f027 0707 	bic.w	r7, r7, #7
 80088ae:	f107 0308 	add.w	r3, r7, #8
 80088b2:	e9d7 6700 	ldrd	r6, r7, [r7]
 80088b6:	9304      	str	r3, [sp, #16]
 80088b8:	2e00      	cmp	r6, #0
 80088ba:	f177 0300 	sbcs.w	r3, r7, #0
 80088be:	da06      	bge.n	80088ce <_vfprintf_r+0x286>
 80088c0:	4276      	negs	r6, r6
 80088c2:	f04f 032d 	mov.w	r3, #45	; 0x2d
 80088c6:	eb67 0747 	sbc.w	r7, r7, r7, lsl #1
 80088ca:	f88d 305f 	strb.w	r3, [sp, #95]	; 0x5f
 80088ce:	2301      	movs	r3, #1
 80088d0:	e2d0      	b.n	8008e74 <_vfprintf_r+0x82c>
 80088d2:	bf00      	nop
 80088d4:	f3af 8000 	nop.w
	...
 80088e0:	0800bc34 	.word	0x0800bc34
 80088e4:	0800bc54 	.word	0x0800bc54
 80088e8:	0800bc14 	.word	0x0800bc14
 80088ec:	b10b      	cbz	r3, 80088f2 <_vfprintf_r+0x2aa>
 80088ee:	f88d 205f 	strb.w	r2, [sp, #95]	; 0x5f
 80088f2:	4ba2      	ldr	r3, [pc, #648]	; (8008b7c <_vfprintf_r+0x534>)
 80088f4:	9311      	str	r3, [sp, #68]	; 0x44
 80088f6:	06a9      	lsls	r1, r5, #26
 80088f8:	f140 8331 	bpl.w	8008f5e <_vfprintf_r+0x916>
 80088fc:	3707      	adds	r7, #7
 80088fe:	f027 0707 	bic.w	r7, r7, #7
 8008902:	f107 0308 	add.w	r3, r7, #8
 8008906:	e9d7 6700 	ldrd	r6, r7, [r7]
 800890a:	9304      	str	r3, [sp, #16]
 800890c:	07eb      	lsls	r3, r5, #31
 800890e:	d50b      	bpl.n	8008928 <_vfprintf_r+0x2e0>
 8008910:	ea56 0307 	orrs.w	r3, r6, r7
 8008914:	d008      	beq.n	8008928 <_vfprintf_r+0x2e0>
 8008916:	2330      	movs	r3, #48	; 0x30
 8008918:	f88d 3060 	strb.w	r3, [sp, #96]	; 0x60
 800891c:	f89d 3008 	ldrb.w	r3, [sp, #8]
 8008920:	f88d 3061 	strb.w	r3, [sp, #97]	; 0x61
 8008924:	f045 0502 	orr.w	r5, r5, #2
 8008928:	2302      	movs	r3, #2
 800892a:	e2a0      	b.n	8008e6e <_vfprintf_r+0x826>
 800892c:	2a00      	cmp	r2, #0
 800892e:	d1b1      	bne.n	8008894 <_vfprintf_r+0x24c>
 8008930:	2301      	movs	r3, #1
 8008932:	2220      	movs	r2, #32
 8008934:	e7ae      	b.n	8008894 <_vfprintf_r+0x24c>
 8008936:	f045 0501 	orr.w	r5, r5, #1
 800893a:	e7ab      	b.n	8008894 <_vfprintf_r+0x24c>
 800893c:	683e      	ldr	r6, [r7, #0]
 800893e:	960b      	str	r6, [sp, #44]	; 0x2c
 8008940:	2e00      	cmp	r6, #0
 8008942:	f107 0104 	add.w	r1, r7, #4
 8008946:	daa7      	bge.n	8008898 <_vfprintf_r+0x250>
 8008948:	4276      	negs	r6, r6
 800894a:	960b      	str	r6, [sp, #44]	; 0x2c
 800894c:	460f      	mov	r7, r1
 800894e:	f045 0504 	orr.w	r5, r5, #4
 8008952:	e79f      	b.n	8008894 <_vfprintf_r+0x24c>
 8008954:	9905      	ldr	r1, [sp, #20]
 8008956:	1c4e      	adds	r6, r1, #1
 8008958:	7809      	ldrb	r1, [r1, #0]
 800895a:	9102      	str	r1, [sp, #8]
 800895c:	292a      	cmp	r1, #42	; 0x2a
 800895e:	d010      	beq.n	8008982 <_vfprintf_r+0x33a>
 8008960:	f04f 0a00 	mov.w	sl, #0
 8008964:	9605      	str	r6, [sp, #20]
 8008966:	9902      	ldr	r1, [sp, #8]
 8008968:	3930      	subs	r1, #48	; 0x30
 800896a:	2909      	cmp	r1, #9
 800896c:	f63f af24 	bhi.w	80087b8 <_vfprintf_r+0x170>
 8008970:	fb00 1a0a 	mla	sl, r0, sl, r1
 8008974:	9905      	ldr	r1, [sp, #20]
 8008976:	460e      	mov	r6, r1
 8008978:	f816 1b01 	ldrb.w	r1, [r6], #1
 800897c:	9102      	str	r1, [sp, #8]
 800897e:	9605      	str	r6, [sp, #20]
 8008980:	e7f1      	b.n	8008966 <_vfprintf_r+0x31e>
 8008982:	6839      	ldr	r1, [r7, #0]
 8008984:	9605      	str	r6, [sp, #20]
 8008986:	ea41 7ae1 	orr.w	sl, r1, r1, asr #31
 800898a:	3704      	adds	r7, #4
 800898c:	e782      	b.n	8008894 <_vfprintf_r+0x24c>
 800898e:	f045 0580 	orr.w	r5, r5, #128	; 0x80
 8008992:	e77f      	b.n	8008894 <_vfprintf_r+0x24c>
 8008994:	2100      	movs	r1, #0
 8008996:	910b      	str	r1, [sp, #44]	; 0x2c
 8008998:	9902      	ldr	r1, [sp, #8]
 800899a:	9e0b      	ldr	r6, [sp, #44]	; 0x2c
 800899c:	3930      	subs	r1, #48	; 0x30
 800899e:	fb00 1106 	mla	r1, r0, r6, r1
 80089a2:	910b      	str	r1, [sp, #44]	; 0x2c
 80089a4:	9905      	ldr	r1, [sp, #20]
 80089a6:	460e      	mov	r6, r1
 80089a8:	f816 1b01 	ldrb.w	r1, [r6], #1
 80089ac:	9102      	str	r1, [sp, #8]
 80089ae:	9902      	ldr	r1, [sp, #8]
 80089b0:	9605      	str	r6, [sp, #20]
 80089b2:	3930      	subs	r1, #48	; 0x30
 80089b4:	2909      	cmp	r1, #9
 80089b6:	d9ef      	bls.n	8008998 <_vfprintf_r+0x350>
 80089b8:	e6fe      	b.n	80087b8 <_vfprintf_r+0x170>
 80089ba:	f045 0508 	orr.w	r5, r5, #8
 80089be:	e769      	b.n	8008894 <_vfprintf_r+0x24c>
 80089c0:	f045 0540 	orr.w	r5, r5, #64	; 0x40
 80089c4:	e766      	b.n	8008894 <_vfprintf_r+0x24c>
 80089c6:	9905      	ldr	r1, [sp, #20]
 80089c8:	7809      	ldrb	r1, [r1, #0]
 80089ca:	296c      	cmp	r1, #108	; 0x6c
 80089cc:	d105      	bne.n	80089da <_vfprintf_r+0x392>
 80089ce:	9905      	ldr	r1, [sp, #20]
 80089d0:	3101      	adds	r1, #1
 80089d2:	9105      	str	r1, [sp, #20]
 80089d4:	f045 0520 	orr.w	r5, r5, #32
 80089d8:	e75c      	b.n	8008894 <_vfprintf_r+0x24c>
 80089da:	f045 0510 	orr.w	r5, r5, #16
 80089de:	e759      	b.n	8008894 <_vfprintf_r+0x24c>
 80089e0:	1d3b      	adds	r3, r7, #4
 80089e2:	9304      	str	r3, [sp, #16]
 80089e4:	2600      	movs	r6, #0
 80089e6:	683b      	ldr	r3, [r7, #0]
 80089e8:	f88d 3088 	strb.w	r3, [sp, #136]	; 0x88
 80089ec:	f88d 605f 	strb.w	r6, [sp, #95]	; 0x5f
 80089f0:	f04f 0a01 	mov.w	sl, #1
 80089f4:	9608      	str	r6, [sp, #32]
 80089f6:	f10d 0988 	add.w	r9, sp, #136	; 0x88
 80089fa:	e11e      	b.n	8008c3a <_vfprintf_r+0x5f2>
 80089fc:	b10b      	cbz	r3, 8008a02 <_vfprintf_r+0x3ba>
 80089fe:	f88d 205f 	strb.w	r2, [sp, #95]	; 0x5f
 8008a02:	f045 0510 	orr.w	r5, r5, #16
 8008a06:	e74c      	b.n	80088a2 <_vfprintf_r+0x25a>
 8008a08:	f015 0f10 	tst.w	r5, #16
 8008a0c:	f107 0304 	add.w	r3, r7, #4
 8008a10:	d003      	beq.n	8008a1a <_vfprintf_r+0x3d2>
 8008a12:	683e      	ldr	r6, [r7, #0]
 8008a14:	9304      	str	r3, [sp, #16]
 8008a16:	17f7      	asrs	r7, r6, #31
 8008a18:	e74e      	b.n	80088b8 <_vfprintf_r+0x270>
 8008a1a:	683e      	ldr	r6, [r7, #0]
 8008a1c:	9304      	str	r3, [sp, #16]
 8008a1e:	f015 0f40 	tst.w	r5, #64	; 0x40
 8008a22:	bf18      	it	ne
 8008a24:	b236      	sxthne	r6, r6
 8008a26:	e7f6      	b.n	8008a16 <_vfprintf_r+0x3ce>
 8008a28:	b10b      	cbz	r3, 8008a2e <_vfprintf_r+0x3e6>
 8008a2a:	f88d 205f 	strb.w	r2, [sp, #95]	; 0x5f
 8008a2e:	3707      	adds	r7, #7
 8008a30:	f027 0707 	bic.w	r7, r7, #7
 8008a34:	f107 0308 	add.w	r3, r7, #8
 8008a38:	9304      	str	r3, [sp, #16]
 8008a3a:	ed97 7b00 	vldr	d7, [r7]
 8008a3e:	ed8d 7b06 	vstr	d7, [sp, #24]
 8008a42:	9b06      	ldr	r3, [sp, #24]
 8008a44:	9312      	str	r3, [sp, #72]	; 0x48
 8008a46:	9b07      	ldr	r3, [sp, #28]
 8008a48:	f023 4300 	bic.w	r3, r3, #2147483648	; 0x80000000
 8008a4c:	9313      	str	r3, [sp, #76]	; 0x4c
 8008a4e:	f04f 32ff 	mov.w	r2, #4294967295
 8008a52:	4b4b      	ldr	r3, [pc, #300]	; (8008b80 <_vfprintf_r+0x538>)
 8008a54:	e9dd 0112 	ldrd	r0, r1, [sp, #72]	; 0x48
 8008a58:	f7f8 f874 	bl	8000b44 <__aeabi_dcmpun>
 8008a5c:	2800      	cmp	r0, #0
 8008a5e:	f040 85e3 	bne.w	8009628 <_vfprintf_r+0xfe0>
 8008a62:	f04f 32ff 	mov.w	r2, #4294967295
 8008a66:	4b46      	ldr	r3, [pc, #280]	; (8008b80 <_vfprintf_r+0x538>)
 8008a68:	e9dd 0112 	ldrd	r0, r1, [sp, #72]	; 0x48
 8008a6c:	f7f8 f84c 	bl	8000b08 <__aeabi_dcmple>
 8008a70:	2800      	cmp	r0, #0
 8008a72:	f040 85d9 	bne.w	8009628 <_vfprintf_r+0xfe0>
 8008a76:	2200      	movs	r2, #0
 8008a78:	2300      	movs	r3, #0
 8008a7a:	e9dd 0106 	ldrd	r0, r1, [sp, #24]
 8008a7e:	f7f8 f839 	bl	8000af4 <__aeabi_dcmplt>
 8008a82:	b110      	cbz	r0, 8008a8a <_vfprintf_r+0x442>
 8008a84:	232d      	movs	r3, #45	; 0x2d
 8008a86:	f88d 305f 	strb.w	r3, [sp, #95]	; 0x5f
 8008a8a:	4b3e      	ldr	r3, [pc, #248]	; (8008b84 <_vfprintf_r+0x53c>)
 8008a8c:	4a3e      	ldr	r2, [pc, #248]	; (8008b88 <_vfprintf_r+0x540>)
 8008a8e:	9902      	ldr	r1, [sp, #8]
 8008a90:	f025 0580 	bic.w	r5, r5, #128	; 0x80
 8008a94:	2947      	cmp	r1, #71	; 0x47
 8008a96:	bfcc      	ite	gt
 8008a98:	4691      	movgt	r9, r2
 8008a9a:	4699      	movle	r9, r3
 8008a9c:	f04f 0a03 	mov.w	sl, #3
 8008aa0:	2600      	movs	r6, #0
 8008aa2:	9608      	str	r6, [sp, #32]
 8008aa4:	e0c9      	b.n	8008c3a <_vfprintf_r+0x5f2>
 8008aa6:	f1ba 3fff 	cmp.w	sl, #4294967295
 8008aaa:	d022      	beq.n	8008af2 <_vfprintf_r+0x4aa>
 8008aac:	9b02      	ldr	r3, [sp, #8]
 8008aae:	f023 0320 	bic.w	r3, r3, #32
 8008ab2:	2b47      	cmp	r3, #71	; 0x47
 8008ab4:	d104      	bne.n	8008ac0 <_vfprintf_r+0x478>
 8008ab6:	f1ba 0f00 	cmp.w	sl, #0
 8008aba:	bf08      	it	eq
 8008abc:	f04f 0a01 	moveq.w	sl, #1
 8008ac0:	f445 7380 	orr.w	r3, r5, #256	; 0x100
 8008ac4:	9314      	str	r3, [sp, #80]	; 0x50
 8008ac6:	9b07      	ldr	r3, [sp, #28]
 8008ac8:	2b00      	cmp	r3, #0
 8008aca:	da15      	bge.n	8008af8 <_vfprintf_r+0x4b0>
 8008acc:	9b06      	ldr	r3, [sp, #24]
 8008ace:	930e      	str	r3, [sp, #56]	; 0x38
 8008ad0:	9b07      	ldr	r3, [sp, #28]
 8008ad2:	f103 4300 	add.w	r3, r3, #2147483648	; 0x80000000
 8008ad6:	930f      	str	r3, [sp, #60]	; 0x3c
 8008ad8:	232d      	movs	r3, #45	; 0x2d
 8008ada:	930c      	str	r3, [sp, #48]	; 0x30
 8008adc:	9b02      	ldr	r3, [sp, #8]
 8008ade:	f023 0720 	bic.w	r7, r3, #32
 8008ae2:	2f46      	cmp	r7, #70	; 0x46
 8008ae4:	d00e      	beq.n	8008b04 <_vfprintf_r+0x4bc>
 8008ae6:	2f45      	cmp	r7, #69	; 0x45
 8008ae8:	d146      	bne.n	8008b78 <_vfprintf_r+0x530>
 8008aea:	f10a 0601 	add.w	r6, sl, #1
 8008aee:	2102      	movs	r1, #2
 8008af0:	e00a      	b.n	8008b08 <_vfprintf_r+0x4c0>
 8008af2:	f04f 0a06 	mov.w	sl, #6
 8008af6:	e7e3      	b.n	8008ac0 <_vfprintf_r+0x478>
 8008af8:	ed9d 7b06 	vldr	d7, [sp, #24]
 8008afc:	2300      	movs	r3, #0
 8008afe:	ed8d 7b0e 	vstr	d7, [sp, #56]	; 0x38
 8008b02:	e7ea      	b.n	8008ada <_vfprintf_r+0x492>
 8008b04:	4656      	mov	r6, sl
 8008b06:	2103      	movs	r1, #3
 8008b08:	ab1d      	add	r3, sp, #116	; 0x74
 8008b0a:	9301      	str	r3, [sp, #4]
 8008b0c:	ab1a      	add	r3, sp, #104	; 0x68
 8008b0e:	9300      	str	r3, [sp, #0]
 8008b10:	4632      	mov	r2, r6
 8008b12:	ab19      	add	r3, sp, #100	; 0x64
 8008b14:	ed9d 0b0e 	vldr	d0, [sp, #56]	; 0x38
 8008b18:	4658      	mov	r0, fp
 8008b1a:	f000 ff2d 	bl	8009978 <_dtoa_r>
 8008b1e:	2f47      	cmp	r7, #71	; 0x47
 8008b20:	4681      	mov	r9, r0
 8008b22:	d102      	bne.n	8008b2a <_vfprintf_r+0x4e2>
 8008b24:	07eb      	lsls	r3, r5, #31
 8008b26:	f140 858c 	bpl.w	8009642 <_vfprintf_r+0xffa>
 8008b2a:	eb09 0306 	add.w	r3, r9, r6
 8008b2e:	2f46      	cmp	r7, #70	; 0x46
 8008b30:	9303      	str	r3, [sp, #12]
 8008b32:	d111      	bne.n	8008b58 <_vfprintf_r+0x510>
 8008b34:	f899 3000 	ldrb.w	r3, [r9]
 8008b38:	2b30      	cmp	r3, #48	; 0x30
 8008b3a:	d109      	bne.n	8008b50 <_vfprintf_r+0x508>
 8008b3c:	2200      	movs	r2, #0
 8008b3e:	2300      	movs	r3, #0
 8008b40:	e9dd 010e 	ldrd	r0, r1, [sp, #56]	; 0x38
 8008b44:	f7f7 ffcc 	bl	8000ae0 <__aeabi_dcmpeq>
 8008b48:	b910      	cbnz	r0, 8008b50 <_vfprintf_r+0x508>
 8008b4a:	f1c6 0601 	rsb	r6, r6, #1
 8008b4e:	9619      	str	r6, [sp, #100]	; 0x64
 8008b50:	9a03      	ldr	r2, [sp, #12]
 8008b52:	9b19      	ldr	r3, [sp, #100]	; 0x64
 8008b54:	441a      	add	r2, r3
 8008b56:	9203      	str	r2, [sp, #12]
 8008b58:	2200      	movs	r2, #0
 8008b5a:	2300      	movs	r3, #0
 8008b5c:	e9dd 010e 	ldrd	r0, r1, [sp, #56]	; 0x38
 8008b60:	f7f7 ffbe 	bl	8000ae0 <__aeabi_dcmpeq>
 8008b64:	b990      	cbnz	r0, 8008b8c <_vfprintf_r+0x544>
 8008b66:	2230      	movs	r2, #48	; 0x30
 8008b68:	9b1d      	ldr	r3, [sp, #116]	; 0x74
 8008b6a:	9903      	ldr	r1, [sp, #12]
 8008b6c:	4299      	cmp	r1, r3
 8008b6e:	d90f      	bls.n	8008b90 <_vfprintf_r+0x548>
 8008b70:	1c59      	adds	r1, r3, #1
 8008b72:	911d      	str	r1, [sp, #116]	; 0x74
 8008b74:	701a      	strb	r2, [r3, #0]
 8008b76:	e7f7      	b.n	8008b68 <_vfprintf_r+0x520>
 8008b78:	4656      	mov	r6, sl
 8008b7a:	e7b8      	b.n	8008aee <_vfprintf_r+0x4a6>
 8008b7c:	0800bc88 	.word	0x0800bc88
 8008b80:	7fefffff 	.word	0x7fefffff
 8008b84:	0800bc78 	.word	0x0800bc78
 8008b88:	0800bc7c 	.word	0x0800bc7c
 8008b8c:	9b03      	ldr	r3, [sp, #12]
 8008b8e:	931d      	str	r3, [sp, #116]	; 0x74
 8008b90:	9b1d      	ldr	r3, [sp, #116]	; 0x74
 8008b92:	2f47      	cmp	r7, #71	; 0x47
 8008b94:	eba3 0309 	sub.w	r3, r3, r9
 8008b98:	9303      	str	r3, [sp, #12]
 8008b9a:	f040 80f8 	bne.w	8008d8e <_vfprintf_r+0x746>
 8008b9e:	9b19      	ldr	r3, [sp, #100]	; 0x64
 8008ba0:	1cdf      	adds	r7, r3, #3
 8008ba2:	db02      	blt.n	8008baa <_vfprintf_r+0x562>
 8008ba4:	459a      	cmp	sl, r3
 8008ba6:	f280 811f 	bge.w	8008de8 <_vfprintf_r+0x7a0>
 8008baa:	9b02      	ldr	r3, [sp, #8]
 8008bac:	3b02      	subs	r3, #2
 8008bae:	9302      	str	r3, [sp, #8]
 8008bb0:	9a19      	ldr	r2, [sp, #100]	; 0x64
 8008bb2:	f89d 1008 	ldrb.w	r1, [sp, #8]
 8008bb6:	f88d 106c 	strb.w	r1, [sp, #108]	; 0x6c
 8008bba:	1e53      	subs	r3, r2, #1
 8008bbc:	2b00      	cmp	r3, #0
 8008bbe:	9319      	str	r3, [sp, #100]	; 0x64
 8008bc0:	bfb6      	itet	lt
 8008bc2:	f1c2 0301 	rsblt	r3, r2, #1
 8008bc6:	222b      	movge	r2, #43	; 0x2b
 8008bc8:	222d      	movlt	r2, #45	; 0x2d
 8008bca:	2b09      	cmp	r3, #9
 8008bcc:	f88d 206d 	strb.w	r2, [sp, #109]	; 0x6d
 8008bd0:	f340 80fa 	ble.w	8008dc8 <_vfprintf_r+0x780>
 8008bd4:	f10d 027b 	add.w	r2, sp, #123	; 0x7b
 8008bd8:	260a      	movs	r6, #10
 8008bda:	fb93 f0f6 	sdiv	r0, r3, r6
 8008bde:	fb06 3310 	mls	r3, r6, r0, r3
 8008be2:	3330      	adds	r3, #48	; 0x30
 8008be4:	2809      	cmp	r0, #9
 8008be6:	f802 3c01 	strb.w	r3, [r2, #-1]
 8008bea:	f102 31ff 	add.w	r1, r2, #4294967295
 8008bee:	4603      	mov	r3, r0
 8008bf0:	f300 80e3 	bgt.w	8008dba <_vfprintf_r+0x772>
 8008bf4:	3330      	adds	r3, #48	; 0x30
 8008bf6:	f801 3c01 	strb.w	r3, [r1, #-1]
 8008bfa:	3a02      	subs	r2, #2
 8008bfc:	f10d 036e 	add.w	r3, sp, #110	; 0x6e
 8008c00:	f10d 007b 	add.w	r0, sp, #123	; 0x7b
 8008c04:	4282      	cmp	r2, r0
 8008c06:	4619      	mov	r1, r3
 8008c08:	f0c0 80d9 	bcc.w	8008dbe <_vfprintf_r+0x776>
 8008c0c:	9a03      	ldr	r2, [sp, #12]
 8008c0e:	ab1b      	add	r3, sp, #108	; 0x6c
 8008c10:	1acb      	subs	r3, r1, r3
 8008c12:	2a01      	cmp	r2, #1
 8008c14:	9310      	str	r3, [sp, #64]	; 0x40
 8008c16:	eb03 0a02 	add.w	sl, r3, r2
 8008c1a:	dc03      	bgt.n	8008c24 <_vfprintf_r+0x5dc>
 8008c1c:	f015 0301 	ands.w	r3, r5, #1
 8008c20:	9308      	str	r3, [sp, #32]
 8008c22:	d003      	beq.n	8008c2c <_vfprintf_r+0x5e4>
 8008c24:	9b09      	ldr	r3, [sp, #36]	; 0x24
 8008c26:	449a      	add	sl, r3
 8008c28:	2300      	movs	r3, #0
 8008c2a:	9308      	str	r3, [sp, #32]
 8008c2c:	9b0c      	ldr	r3, [sp, #48]	; 0x30
 8008c2e:	b113      	cbz	r3, 8008c36 <_vfprintf_r+0x5ee>
 8008c30:	232d      	movs	r3, #45	; 0x2d
 8008c32:	f88d 305f 	strb.w	r3, [sp, #95]	; 0x5f
 8008c36:	9d14      	ldr	r5, [sp, #80]	; 0x50
 8008c38:	2600      	movs	r6, #0
 8008c3a:	4556      	cmp	r6, sl
 8008c3c:	4633      	mov	r3, r6
 8008c3e:	bfb8      	it	lt
 8008c40:	4653      	movlt	r3, sl
 8008c42:	930c      	str	r3, [sp, #48]	; 0x30
 8008c44:	f89d 305f 	ldrb.w	r3, [sp, #95]	; 0x5f
 8008c48:	b113      	cbz	r3, 8008c50 <_vfprintf_r+0x608>
 8008c4a:	9b0c      	ldr	r3, [sp, #48]	; 0x30
 8008c4c:	3301      	adds	r3, #1
 8008c4e:	930c      	str	r3, [sp, #48]	; 0x30
 8008c50:	f015 0302 	ands.w	r3, r5, #2
 8008c54:	9314      	str	r3, [sp, #80]	; 0x50
 8008c56:	bf1e      	ittt	ne
 8008c58:	9b0c      	ldrne	r3, [sp, #48]	; 0x30
 8008c5a:	3302      	addne	r3, #2
 8008c5c:	930c      	strne	r3, [sp, #48]	; 0x30
 8008c5e:	f015 0384 	ands.w	r3, r5, #132	; 0x84
 8008c62:	9315      	str	r3, [sp, #84]	; 0x54
 8008c64:	d114      	bne.n	8008c90 <_vfprintf_r+0x648>
 8008c66:	9b0b      	ldr	r3, [sp, #44]	; 0x2c
 8008c68:	9a0c      	ldr	r2, [sp, #48]	; 0x30
 8008c6a:	1a9f      	subs	r7, r3, r2
 8008c6c:	2f00      	cmp	r7, #0
 8008c6e:	dd0f      	ble.n	8008c90 <_vfprintf_r+0x648>
 8008c70:	4ba8      	ldr	r3, [pc, #672]	; (8008f14 <_vfprintf_r+0x8cc>)
 8008c72:	6023      	str	r3, [r4, #0]
 8008c74:	2f10      	cmp	r7, #16
 8008c76:	f300 81d3 	bgt.w	8009020 <_vfprintf_r+0x9d8>
 8008c7a:	9b21      	ldr	r3, [sp, #132]	; 0x84
 8008c7c:	6067      	str	r7, [r4, #4]
 8008c7e:	441f      	add	r7, r3
 8008c80:	9b20      	ldr	r3, [sp, #128]	; 0x80
 8008c82:	9721      	str	r7, [sp, #132]	; 0x84
 8008c84:	3301      	adds	r3, #1
 8008c86:	2b07      	cmp	r3, #7
 8008c88:	9320      	str	r3, [sp, #128]	; 0x80
 8008c8a:	f300 81e0 	bgt.w	800904e <_vfprintf_r+0xa06>
 8008c8e:	3408      	adds	r4, #8
 8008c90:	f89d 305f 	ldrb.w	r3, [sp, #95]	; 0x5f
 8008c94:	b173      	cbz	r3, 8008cb4 <_vfprintf_r+0x66c>
 8008c96:	f10d 035f 	add.w	r3, sp, #95	; 0x5f
 8008c9a:	6023      	str	r3, [r4, #0]
 8008c9c:	2301      	movs	r3, #1
 8008c9e:	6063      	str	r3, [r4, #4]
 8008ca0:	9b21      	ldr	r3, [sp, #132]	; 0x84
 8008ca2:	3301      	adds	r3, #1
 8008ca4:	9321      	str	r3, [sp, #132]	; 0x84
 8008ca6:	9b20      	ldr	r3, [sp, #128]	; 0x80
 8008ca8:	3301      	adds	r3, #1
 8008caa:	2b07      	cmp	r3, #7
 8008cac:	9320      	str	r3, [sp, #128]	; 0x80
 8008cae:	f300 81d8 	bgt.w	8009062 <_vfprintf_r+0xa1a>
 8008cb2:	3408      	adds	r4, #8
 8008cb4:	9b14      	ldr	r3, [sp, #80]	; 0x50
 8008cb6:	b16b      	cbz	r3, 8008cd4 <_vfprintf_r+0x68c>
 8008cb8:	ab18      	add	r3, sp, #96	; 0x60
 8008cba:	6023      	str	r3, [r4, #0]
 8008cbc:	2302      	movs	r3, #2
 8008cbe:	6063      	str	r3, [r4, #4]
 8008cc0:	9b21      	ldr	r3, [sp, #132]	; 0x84
 8008cc2:	3302      	adds	r3, #2
 8008cc4:	9321      	str	r3, [sp, #132]	; 0x84
 8008cc6:	9b20      	ldr	r3, [sp, #128]	; 0x80
 8008cc8:	3301      	adds	r3, #1
 8008cca:	2b07      	cmp	r3, #7
 8008ccc:	9320      	str	r3, [sp, #128]	; 0x80
 8008cce:	f300 81d2 	bgt.w	8009076 <_vfprintf_r+0xa2e>
 8008cd2:	3408      	adds	r4, #8
 8008cd4:	9b15      	ldr	r3, [sp, #84]	; 0x54
 8008cd6:	2b80      	cmp	r3, #128	; 0x80
 8008cd8:	d114      	bne.n	8008d04 <_vfprintf_r+0x6bc>
 8008cda:	9b0b      	ldr	r3, [sp, #44]	; 0x2c
 8008cdc:	9a0c      	ldr	r2, [sp, #48]	; 0x30
 8008cde:	1a9f      	subs	r7, r3, r2
 8008ce0:	2f00      	cmp	r7, #0
 8008ce2:	dd0f      	ble.n	8008d04 <_vfprintf_r+0x6bc>
 8008ce4:	4b8c      	ldr	r3, [pc, #560]	; (8008f18 <_vfprintf_r+0x8d0>)
 8008ce6:	6023      	str	r3, [r4, #0]
 8008ce8:	2f10      	cmp	r7, #16
 8008cea:	f300 81ce 	bgt.w	800908a <_vfprintf_r+0xa42>
 8008cee:	9b21      	ldr	r3, [sp, #132]	; 0x84
 8008cf0:	6067      	str	r7, [r4, #4]
 8008cf2:	441f      	add	r7, r3
 8008cf4:	9b20      	ldr	r3, [sp, #128]	; 0x80
 8008cf6:	9721      	str	r7, [sp, #132]	; 0x84
 8008cf8:	3301      	adds	r3, #1
 8008cfa:	2b07      	cmp	r3, #7
 8008cfc:	9320      	str	r3, [sp, #128]	; 0x80
 8008cfe:	f300 81dd 	bgt.w	80090bc <_vfprintf_r+0xa74>
 8008d02:	3408      	adds	r4, #8
 8008d04:	eba6 060a 	sub.w	r6, r6, sl
 8008d08:	2e00      	cmp	r6, #0
 8008d0a:	dd0f      	ble.n	8008d2c <_vfprintf_r+0x6e4>
 8008d0c:	4f82      	ldr	r7, [pc, #520]	; (8008f18 <_vfprintf_r+0x8d0>)
 8008d0e:	6027      	str	r7, [r4, #0]
 8008d10:	2e10      	cmp	r6, #16
 8008d12:	f300 81dd 	bgt.w	80090d0 <_vfprintf_r+0xa88>
 8008d16:	9b20      	ldr	r3, [sp, #128]	; 0x80
 8008d18:	9821      	ldr	r0, [sp, #132]	; 0x84
 8008d1a:	6066      	str	r6, [r4, #4]
 8008d1c:	3301      	adds	r3, #1
 8008d1e:	4406      	add	r6, r0
 8008d20:	2b07      	cmp	r3, #7
 8008d22:	9621      	str	r6, [sp, #132]	; 0x84
 8008d24:	9320      	str	r3, [sp, #128]	; 0x80
 8008d26:	f300 81ea 	bgt.w	80090fe <_vfprintf_r+0xab6>
 8008d2a:	3408      	adds	r4, #8
 8008d2c:	05e9      	lsls	r1, r5, #23
 8008d2e:	f100 81f0 	bmi.w	8009112 <_vfprintf_r+0xaca>
 8008d32:	9b21      	ldr	r3, [sp, #132]	; 0x84
 8008d34:	e884 0600 	stmia.w	r4, {r9, sl}
 8008d38:	4453      	add	r3, sl
 8008d3a:	9321      	str	r3, [sp, #132]	; 0x84
 8008d3c:	9b20      	ldr	r3, [sp, #128]	; 0x80
 8008d3e:	3301      	adds	r3, #1
 8008d40:	2b07      	cmp	r3, #7
 8008d42:	9320      	str	r3, [sp, #128]	; 0x80
 8008d44:	f340 841b 	ble.w	800957e <_vfprintf_r+0xf36>
 8008d48:	aa1f      	add	r2, sp, #124	; 0x7c
 8008d4a:	4641      	mov	r1, r8
 8008d4c:	4658      	mov	r0, fp
 8008d4e:	f002 faf3 	bl	800b338 <__sprint_r>
 8008d52:	2800      	cmp	r0, #0
 8008d54:	f040 8433 	bne.w	80095be <_vfprintf_r+0xf76>
 8008d58:	ac2c      	add	r4, sp, #176	; 0xb0
 8008d5a:	0768      	lsls	r0, r5, #29
 8008d5c:	f100 8412 	bmi.w	8009584 <_vfprintf_r+0xf3c>
 8008d60:	9b0a      	ldr	r3, [sp, #40]	; 0x28
 8008d62:	9a0b      	ldr	r2, [sp, #44]	; 0x2c
 8008d64:	990c      	ldr	r1, [sp, #48]	; 0x30
 8008d66:	428a      	cmp	r2, r1
 8008d68:	bfac      	ite	ge
 8008d6a:	189b      	addge	r3, r3, r2
 8008d6c:	185b      	addlt	r3, r3, r1
 8008d6e:	930a      	str	r3, [sp, #40]	; 0x28
 8008d70:	9b21      	ldr	r3, [sp, #132]	; 0x84
 8008d72:	b13b      	cbz	r3, 8008d84 <_vfprintf_r+0x73c>
 8008d74:	aa1f      	add	r2, sp, #124	; 0x7c
 8008d76:	4641      	mov	r1, r8
 8008d78:	4658      	mov	r0, fp
 8008d7a:	f002 fadd 	bl	800b338 <__sprint_r>
 8008d7e:	2800      	cmp	r0, #0
 8008d80:	f040 841d 	bne.w	80095be <_vfprintf_r+0xf76>
 8008d84:	2300      	movs	r3, #0
 8008d86:	9320      	str	r3, [sp, #128]	; 0x80
 8008d88:	9f04      	ldr	r7, [sp, #16]
 8008d8a:	ac2c      	add	r4, sp, #176	; 0xb0
 8008d8c:	e4e9      	b.n	8008762 <_vfprintf_r+0x11a>
 8008d8e:	9b02      	ldr	r3, [sp, #8]
 8008d90:	2b65      	cmp	r3, #101	; 0x65
 8008d92:	f77f af0d 	ble.w	8008bb0 <_vfprintf_r+0x568>
 8008d96:	9b02      	ldr	r3, [sp, #8]
 8008d98:	2b66      	cmp	r3, #102	; 0x66
 8008d9a:	d125      	bne.n	8008de8 <_vfprintf_r+0x7a0>
 8008d9c:	9b19      	ldr	r3, [sp, #100]	; 0x64
 8008d9e:	2b00      	cmp	r3, #0
 8008da0:	dd1a      	ble.n	8008dd8 <_vfprintf_r+0x790>
 8008da2:	f1ba 0f00 	cmp.w	sl, #0
 8008da6:	d101      	bne.n	8008dac <_vfprintf_r+0x764>
 8008da8:	07ee      	lsls	r6, r5, #31
 8008daa:	d502      	bpl.n	8008db2 <_vfprintf_r+0x76a>
 8008dac:	9a09      	ldr	r2, [sp, #36]	; 0x24
 8008dae:	4413      	add	r3, r2
 8008db0:	4453      	add	r3, sl
 8008db2:	9a19      	ldr	r2, [sp, #100]	; 0x64
 8008db4:	9208      	str	r2, [sp, #32]
 8008db6:	469a      	mov	sl, r3
 8008db8:	e738      	b.n	8008c2c <_vfprintf_r+0x5e4>
 8008dba:	460a      	mov	r2, r1
 8008dbc:	e70d      	b.n	8008bda <_vfprintf_r+0x592>
 8008dbe:	f812 1b01 	ldrb.w	r1, [r2], #1
 8008dc2:	f803 1b01 	strb.w	r1, [r3], #1
 8008dc6:	e71d      	b.n	8008c04 <_vfprintf_r+0x5bc>
 8008dc8:	2230      	movs	r2, #48	; 0x30
 8008dca:	4413      	add	r3, r2
 8008dcc:	f88d 206e 	strb.w	r2, [sp, #110]	; 0x6e
 8008dd0:	f88d 306f 	strb.w	r3, [sp, #111]	; 0x6f
 8008dd4:	a91c      	add	r1, sp, #112	; 0x70
 8008dd6:	e719      	b.n	8008c0c <_vfprintf_r+0x5c4>
 8008dd8:	f1ba 0f00 	cmp.w	sl, #0
 8008ddc:	d101      	bne.n	8008de2 <_vfprintf_r+0x79a>
 8008dde:	07ed      	lsls	r5, r5, #31
 8008de0:	d515      	bpl.n	8008e0e <_vfprintf_r+0x7c6>
 8008de2:	9b09      	ldr	r3, [sp, #36]	; 0x24
 8008de4:	3301      	adds	r3, #1
 8008de6:	e7e3      	b.n	8008db0 <_vfprintf_r+0x768>
 8008de8:	9a19      	ldr	r2, [sp, #100]	; 0x64
 8008dea:	9b03      	ldr	r3, [sp, #12]
 8008dec:	429a      	cmp	r2, r3
 8008dee:	db06      	blt.n	8008dfe <_vfprintf_r+0x7b6>
 8008df0:	07e8      	lsls	r0, r5, #31
 8008df2:	d50e      	bpl.n	8008e12 <_vfprintf_r+0x7ca>
 8008df4:	9b09      	ldr	r3, [sp, #36]	; 0x24
 8008df6:	4413      	add	r3, r2
 8008df8:	2267      	movs	r2, #103	; 0x67
 8008dfa:	9202      	str	r2, [sp, #8]
 8008dfc:	e7d9      	b.n	8008db2 <_vfprintf_r+0x76a>
 8008dfe:	9b03      	ldr	r3, [sp, #12]
 8008e00:	9909      	ldr	r1, [sp, #36]	; 0x24
 8008e02:	2a00      	cmp	r2, #0
 8008e04:	440b      	add	r3, r1
 8008e06:	dcf7      	bgt.n	8008df8 <_vfprintf_r+0x7b0>
 8008e08:	f1c2 0201 	rsb	r2, r2, #1
 8008e0c:	e7f3      	b.n	8008df6 <_vfprintf_r+0x7ae>
 8008e0e:	2301      	movs	r3, #1
 8008e10:	e7cf      	b.n	8008db2 <_vfprintf_r+0x76a>
 8008e12:	4613      	mov	r3, r2
 8008e14:	e7f0      	b.n	8008df8 <_vfprintf_r+0x7b0>
 8008e16:	b10b      	cbz	r3, 8008e1c <_vfprintf_r+0x7d4>
 8008e18:	f88d 205f 	strb.w	r2, [sp, #95]	; 0x5f
 8008e1c:	f015 0f20 	tst.w	r5, #32
 8008e20:	f107 0304 	add.w	r3, r7, #4
 8008e24:	d008      	beq.n	8008e38 <_vfprintf_r+0x7f0>
 8008e26:	990a      	ldr	r1, [sp, #40]	; 0x28
 8008e28:	683a      	ldr	r2, [r7, #0]
 8008e2a:	17ce      	asrs	r6, r1, #31
 8008e2c:	4608      	mov	r0, r1
 8008e2e:	4631      	mov	r1, r6
 8008e30:	e9c2 0100 	strd	r0, r1, [r2]
 8008e34:	461f      	mov	r7, r3
 8008e36:	e494      	b.n	8008762 <_vfprintf_r+0x11a>
 8008e38:	06e9      	lsls	r1, r5, #27
 8008e3a:	d503      	bpl.n	8008e44 <_vfprintf_r+0x7fc>
 8008e3c:	683a      	ldr	r2, [r7, #0]
 8008e3e:	990a      	ldr	r1, [sp, #40]	; 0x28
 8008e40:	6011      	str	r1, [r2, #0]
 8008e42:	e7f7      	b.n	8008e34 <_vfprintf_r+0x7ec>
 8008e44:	066a      	lsls	r2, r5, #25
 8008e46:	d5f9      	bpl.n	8008e3c <_vfprintf_r+0x7f4>
 8008e48:	683a      	ldr	r2, [r7, #0]
 8008e4a:	f8bd 1028 	ldrh.w	r1, [sp, #40]	; 0x28
 8008e4e:	8011      	strh	r1, [r2, #0]
 8008e50:	e7f0      	b.n	8008e34 <_vfprintf_r+0x7ec>
 8008e52:	f045 0510 	orr.w	r5, r5, #16
 8008e56:	f015 0320 	ands.w	r3, r5, #32
 8008e5a:	d022      	beq.n	8008ea2 <_vfprintf_r+0x85a>
 8008e5c:	3707      	adds	r7, #7
 8008e5e:	f027 0707 	bic.w	r7, r7, #7
 8008e62:	f107 0308 	add.w	r3, r7, #8
 8008e66:	e9d7 6700 	ldrd	r6, r7, [r7]
 8008e6a:	9304      	str	r3, [sp, #16]
 8008e6c:	2300      	movs	r3, #0
 8008e6e:	2200      	movs	r2, #0
 8008e70:	f88d 205f 	strb.w	r2, [sp, #95]	; 0x5f
 8008e74:	f1ba 3fff 	cmp.w	sl, #4294967295
 8008e78:	f000 83e8 	beq.w	800964c <_vfprintf_r+0x1004>
 8008e7c:	f025 0280 	bic.w	r2, r5, #128	; 0x80
 8008e80:	9208      	str	r2, [sp, #32]
 8008e82:	ea56 0207 	orrs.w	r2, r6, r7
 8008e86:	f040 83e6 	bne.w	8009656 <_vfprintf_r+0x100e>
 8008e8a:	f1ba 0f00 	cmp.w	sl, #0
 8008e8e:	f000 80a9 	beq.w	8008fe4 <_vfprintf_r+0x99c>
 8008e92:	2b01      	cmp	r3, #1
 8008e94:	d075      	beq.n	8008f82 <_vfprintf_r+0x93a>
 8008e96:	2b02      	cmp	r3, #2
 8008e98:	f000 8090 	beq.w	8008fbc <_vfprintf_r+0x974>
 8008e9c:	2600      	movs	r6, #0
 8008e9e:	2700      	movs	r7, #0
 8008ea0:	e3df      	b.n	8009662 <_vfprintf_r+0x101a>
 8008ea2:	1d3a      	adds	r2, r7, #4
 8008ea4:	f015 0110 	ands.w	r1, r5, #16
 8008ea8:	9204      	str	r2, [sp, #16]
 8008eaa:	d002      	beq.n	8008eb2 <_vfprintf_r+0x86a>
 8008eac:	683e      	ldr	r6, [r7, #0]
 8008eae:	2700      	movs	r7, #0
 8008eb0:	e7dd      	b.n	8008e6e <_vfprintf_r+0x826>
 8008eb2:	f015 0340 	ands.w	r3, r5, #64	; 0x40
 8008eb6:	d0f9      	beq.n	8008eac <_vfprintf_r+0x864>
 8008eb8:	883e      	ldrh	r6, [r7, #0]
 8008eba:	2700      	movs	r7, #0
 8008ebc:	e7d6      	b.n	8008e6c <_vfprintf_r+0x824>
 8008ebe:	1d3b      	adds	r3, r7, #4
 8008ec0:	9304      	str	r3, [sp, #16]
 8008ec2:	2330      	movs	r3, #48	; 0x30
 8008ec4:	2278      	movs	r2, #120	; 0x78
 8008ec6:	f88d 3060 	strb.w	r3, [sp, #96]	; 0x60
 8008eca:	4b14      	ldr	r3, [pc, #80]	; (8008f1c <_vfprintf_r+0x8d4>)
 8008ecc:	683e      	ldr	r6, [r7, #0]
 8008ece:	9311      	str	r3, [sp, #68]	; 0x44
 8008ed0:	2700      	movs	r7, #0
 8008ed2:	f045 0502 	orr.w	r5, r5, #2
 8008ed6:	f88d 2061 	strb.w	r2, [sp, #97]	; 0x61
 8008eda:	2302      	movs	r3, #2
 8008edc:	9202      	str	r2, [sp, #8]
 8008ede:	e7c6      	b.n	8008e6e <_vfprintf_r+0x826>
 8008ee0:	1d3b      	adds	r3, r7, #4
 8008ee2:	2600      	movs	r6, #0
 8008ee4:	f1ba 3fff 	cmp.w	sl, #4294967295
 8008ee8:	9304      	str	r3, [sp, #16]
 8008eea:	f8d7 9000 	ldr.w	r9, [r7]
 8008eee:	f88d 605f 	strb.w	r6, [sp, #95]	; 0x5f
 8008ef2:	d00a      	beq.n	8008f0a <_vfprintf_r+0x8c2>
 8008ef4:	4652      	mov	r2, sl
 8008ef6:	4631      	mov	r1, r6
 8008ef8:	4648      	mov	r0, r9
 8008efa:	f7f7 f981 	bl	8000200 <memchr>
 8008efe:	2800      	cmp	r0, #0
 8008f00:	f000 808c 	beq.w	800901c <_vfprintf_r+0x9d4>
 8008f04:	eba0 0a09 	sub.w	sl, r0, r9
 8008f08:	e5cb      	b.n	8008aa2 <_vfprintf_r+0x45a>
 8008f0a:	4648      	mov	r0, r9
 8008f0c:	f7f7 f96a 	bl	80001e4 <strlen>
 8008f10:	4682      	mov	sl, r0
 8008f12:	e5c6      	b.n	8008aa2 <_vfprintf_r+0x45a>
 8008f14:	0800bcac 	.word	0x0800bcac
 8008f18:	0800bcbc 	.word	0x0800bcbc
 8008f1c:	0800bc99 	.word	0x0800bc99
 8008f20:	f045 0510 	orr.w	r5, r5, #16
 8008f24:	06ae      	lsls	r6, r5, #26
 8008f26:	d509      	bpl.n	8008f3c <_vfprintf_r+0x8f4>
 8008f28:	3707      	adds	r7, #7
 8008f2a:	f027 0707 	bic.w	r7, r7, #7
 8008f2e:	f107 0308 	add.w	r3, r7, #8
 8008f32:	e9d7 6700 	ldrd	r6, r7, [r7]
 8008f36:	9304      	str	r3, [sp, #16]
 8008f38:	2301      	movs	r3, #1
 8008f3a:	e798      	b.n	8008e6e <_vfprintf_r+0x826>
 8008f3c:	1d3b      	adds	r3, r7, #4
 8008f3e:	f015 0f10 	tst.w	r5, #16
 8008f42:	9304      	str	r3, [sp, #16]
 8008f44:	d001      	beq.n	8008f4a <_vfprintf_r+0x902>
 8008f46:	683e      	ldr	r6, [r7, #0]
 8008f48:	e002      	b.n	8008f50 <_vfprintf_r+0x908>
 8008f4a:	0668      	lsls	r0, r5, #25
 8008f4c:	d5fb      	bpl.n	8008f46 <_vfprintf_r+0x8fe>
 8008f4e:	883e      	ldrh	r6, [r7, #0]
 8008f50:	2700      	movs	r7, #0
 8008f52:	e7f1      	b.n	8008f38 <_vfprintf_r+0x8f0>
 8008f54:	b10b      	cbz	r3, 8008f5a <_vfprintf_r+0x912>
 8008f56:	f88d 205f 	strb.w	r2, [sp, #95]	; 0x5f
 8008f5a:	4ba2      	ldr	r3, [pc, #648]	; (80091e4 <_vfprintf_r+0xb9c>)
 8008f5c:	e4ca      	b.n	80088f4 <_vfprintf_r+0x2ac>
 8008f5e:	1d3b      	adds	r3, r7, #4
 8008f60:	f015 0f10 	tst.w	r5, #16
 8008f64:	9304      	str	r3, [sp, #16]
 8008f66:	d001      	beq.n	8008f6c <_vfprintf_r+0x924>
 8008f68:	683e      	ldr	r6, [r7, #0]
 8008f6a:	e002      	b.n	8008f72 <_vfprintf_r+0x92a>
 8008f6c:	066a      	lsls	r2, r5, #25
 8008f6e:	d5fb      	bpl.n	8008f68 <_vfprintf_r+0x920>
 8008f70:	883e      	ldrh	r6, [r7, #0]
 8008f72:	2700      	movs	r7, #0
 8008f74:	e4ca      	b.n	800890c <_vfprintf_r+0x2c4>
 8008f76:	464b      	mov	r3, r9
 8008f78:	e374      	b.n	8009664 <_vfprintf_r+0x101c>
 8008f7a:	2f00      	cmp	r7, #0
 8008f7c:	bf08      	it	eq
 8008f7e:	2e0a      	cmpeq	r6, #10
 8008f80:	d205      	bcs.n	8008f8e <_vfprintf_r+0x946>
 8008f82:	f10d 09f0 	add.w	r9, sp, #240	; 0xf0
 8008f86:	3630      	adds	r6, #48	; 0x30
 8008f88:	f809 6d41 	strb.w	r6, [r9, #-65]!
 8008f8c:	e385      	b.n	800969a <_vfprintf_r+0x1052>
 8008f8e:	f10d 09b0 	add.w	r9, sp, #176	; 0xb0
 8008f92:	4630      	mov	r0, r6
 8008f94:	4639      	mov	r1, r7
 8008f96:	220a      	movs	r2, #10
 8008f98:	2300      	movs	r3, #0
 8008f9a:	f7f7 fe11 	bl	8000bc0 <__aeabi_uldivmod>
 8008f9e:	3230      	adds	r2, #48	; 0x30
 8008fa0:	f809 2d01 	strb.w	r2, [r9, #-1]!
 8008fa4:	2300      	movs	r3, #0
 8008fa6:	4630      	mov	r0, r6
 8008fa8:	4639      	mov	r1, r7
 8008faa:	220a      	movs	r2, #10
 8008fac:	f7f7 fe08 	bl	8000bc0 <__aeabi_uldivmod>
 8008fb0:	4606      	mov	r6, r0
 8008fb2:	460f      	mov	r7, r1
 8008fb4:	ea56 0307 	orrs.w	r3, r6, r7
 8008fb8:	d1eb      	bne.n	8008f92 <_vfprintf_r+0x94a>
 8008fba:	e36e      	b.n	800969a <_vfprintf_r+0x1052>
 8008fbc:	2600      	movs	r6, #0
 8008fbe:	2700      	movs	r7, #0
 8008fc0:	f10d 09b0 	add.w	r9, sp, #176	; 0xb0
 8008fc4:	f006 030f 	and.w	r3, r6, #15
 8008fc8:	9a11      	ldr	r2, [sp, #68]	; 0x44
 8008fca:	5cd3      	ldrb	r3, [r2, r3]
 8008fcc:	f809 3d01 	strb.w	r3, [r9, #-1]!
 8008fd0:	0933      	lsrs	r3, r6, #4
 8008fd2:	ea43 7307 	orr.w	r3, r3, r7, lsl #28
 8008fd6:	093a      	lsrs	r2, r7, #4
 8008fd8:	461e      	mov	r6, r3
 8008fda:	4617      	mov	r7, r2
 8008fdc:	ea56 0307 	orrs.w	r3, r6, r7
 8008fe0:	d1f0      	bne.n	8008fc4 <_vfprintf_r+0x97c>
 8008fe2:	e35a      	b.n	800969a <_vfprintf_r+0x1052>
 8008fe4:	b93b      	cbnz	r3, 8008ff6 <_vfprintf_r+0x9ae>
 8008fe6:	07e8      	lsls	r0, r5, #31
 8008fe8:	d505      	bpl.n	8008ff6 <_vfprintf_r+0x9ae>
 8008fea:	f10d 09f0 	add.w	r9, sp, #240	; 0xf0
 8008fee:	2330      	movs	r3, #48	; 0x30
 8008ff0:	f809 3d41 	strb.w	r3, [r9, #-65]!
 8008ff4:	e351      	b.n	800969a <_vfprintf_r+0x1052>
 8008ff6:	f10d 09b0 	add.w	r9, sp, #176	; 0xb0
 8008ffa:	e34e      	b.n	800969a <_vfprintf_r+0x1052>
 8008ffc:	b10b      	cbz	r3, 8009002 <_vfprintf_r+0x9ba>
 8008ffe:	f88d 205f 	strb.w	r2, [sp, #95]	; 0x5f
 8009002:	9b02      	ldr	r3, [sp, #8]
 8009004:	2b00      	cmp	r3, #0
 8009006:	f000 8302 	beq.w	800960e <_vfprintf_r+0xfc6>
 800900a:	f89d 3008 	ldrb.w	r3, [sp, #8]
 800900e:	f88d 3088 	strb.w	r3, [sp, #136]	; 0x88
 8009012:	2600      	movs	r6, #0
 8009014:	f88d 605f 	strb.w	r6, [sp, #95]	; 0x5f
 8009018:	9704      	str	r7, [sp, #16]
 800901a:	e4e9      	b.n	80089f0 <_vfprintf_r+0x3a8>
 800901c:	4606      	mov	r6, r0
 800901e:	e540      	b.n	8008aa2 <_vfprintf_r+0x45a>
 8009020:	2310      	movs	r3, #16
 8009022:	6063      	str	r3, [r4, #4]
 8009024:	9b21      	ldr	r3, [sp, #132]	; 0x84
 8009026:	3310      	adds	r3, #16
 8009028:	9321      	str	r3, [sp, #132]	; 0x84
 800902a:	9b20      	ldr	r3, [sp, #128]	; 0x80
 800902c:	3301      	adds	r3, #1
 800902e:	2b07      	cmp	r3, #7
 8009030:	9320      	str	r3, [sp, #128]	; 0x80
 8009032:	dc02      	bgt.n	800903a <_vfprintf_r+0x9f2>
 8009034:	3408      	adds	r4, #8
 8009036:	3f10      	subs	r7, #16
 8009038:	e61a      	b.n	8008c70 <_vfprintf_r+0x628>
 800903a:	aa1f      	add	r2, sp, #124	; 0x7c
 800903c:	4641      	mov	r1, r8
 800903e:	4658      	mov	r0, fp
 8009040:	f002 f97a 	bl	800b338 <__sprint_r>
 8009044:	2800      	cmp	r0, #0
 8009046:	f040 82ba 	bne.w	80095be <_vfprintf_r+0xf76>
 800904a:	ac2c      	add	r4, sp, #176	; 0xb0
 800904c:	e7f3      	b.n	8009036 <_vfprintf_r+0x9ee>
 800904e:	aa1f      	add	r2, sp, #124	; 0x7c
 8009050:	4641      	mov	r1, r8
 8009052:	4658      	mov	r0, fp
 8009054:	f002 f970 	bl	800b338 <__sprint_r>
 8009058:	2800      	cmp	r0, #0
 800905a:	f040 82b0 	bne.w	80095be <_vfprintf_r+0xf76>
 800905e:	ac2c      	add	r4, sp, #176	; 0xb0
 8009060:	e616      	b.n	8008c90 <_vfprintf_r+0x648>
 8009062:	aa1f      	add	r2, sp, #124	; 0x7c
 8009064:	4641      	mov	r1, r8
 8009066:	4658      	mov	r0, fp
 8009068:	f002 f966 	bl	800b338 <__sprint_r>
 800906c:	2800      	cmp	r0, #0
 800906e:	f040 82a6 	bne.w	80095be <_vfprintf_r+0xf76>
 8009072:	ac2c      	add	r4, sp, #176	; 0xb0
 8009074:	e61e      	b.n	8008cb4 <_vfprintf_r+0x66c>
 8009076:	aa1f      	add	r2, sp, #124	; 0x7c
 8009078:	4641      	mov	r1, r8
 800907a:	4658      	mov	r0, fp
 800907c:	f002 f95c 	bl	800b338 <__sprint_r>
 8009080:	2800      	cmp	r0, #0
 8009082:	f040 829c 	bne.w	80095be <_vfprintf_r+0xf76>
 8009086:	ac2c      	add	r4, sp, #176	; 0xb0
 8009088:	e624      	b.n	8008cd4 <_vfprintf_r+0x68c>
 800908a:	2210      	movs	r2, #16
 800908c:	6062      	str	r2, [r4, #4]
 800908e:	9a21      	ldr	r2, [sp, #132]	; 0x84
 8009090:	3210      	adds	r2, #16
 8009092:	9221      	str	r2, [sp, #132]	; 0x84
 8009094:	9a20      	ldr	r2, [sp, #128]	; 0x80
 8009096:	3201      	adds	r2, #1
 8009098:	2a07      	cmp	r2, #7
 800909a:	9220      	str	r2, [sp, #128]	; 0x80
 800909c:	dc02      	bgt.n	80090a4 <_vfprintf_r+0xa5c>
 800909e:	3408      	adds	r4, #8
 80090a0:	3f10      	subs	r7, #16
 80090a2:	e620      	b.n	8008ce6 <_vfprintf_r+0x69e>
 80090a4:	aa1f      	add	r2, sp, #124	; 0x7c
 80090a6:	4641      	mov	r1, r8
 80090a8:	4658      	mov	r0, fp
 80090aa:	9314      	str	r3, [sp, #80]	; 0x50
 80090ac:	f002 f944 	bl	800b338 <__sprint_r>
 80090b0:	2800      	cmp	r0, #0
 80090b2:	f040 8284 	bne.w	80095be <_vfprintf_r+0xf76>
 80090b6:	ac2c      	add	r4, sp, #176	; 0xb0
 80090b8:	9b14      	ldr	r3, [sp, #80]	; 0x50
 80090ba:	e7f1      	b.n	80090a0 <_vfprintf_r+0xa58>
 80090bc:	aa1f      	add	r2, sp, #124	; 0x7c
 80090be:	4641      	mov	r1, r8
 80090c0:	4658      	mov	r0, fp
 80090c2:	f002 f939 	bl	800b338 <__sprint_r>
 80090c6:	2800      	cmp	r0, #0
 80090c8:	f040 8279 	bne.w	80095be <_vfprintf_r+0xf76>
 80090cc:	ac2c      	add	r4, sp, #176	; 0xb0
 80090ce:	e619      	b.n	8008d04 <_vfprintf_r+0x6bc>
 80090d0:	2310      	movs	r3, #16
 80090d2:	6063      	str	r3, [r4, #4]
 80090d4:	9b21      	ldr	r3, [sp, #132]	; 0x84
 80090d6:	3310      	adds	r3, #16
 80090d8:	9321      	str	r3, [sp, #132]	; 0x84
 80090da:	9b20      	ldr	r3, [sp, #128]	; 0x80
 80090dc:	3301      	adds	r3, #1
 80090de:	2b07      	cmp	r3, #7
 80090e0:	9320      	str	r3, [sp, #128]	; 0x80
 80090e2:	dc02      	bgt.n	80090ea <_vfprintf_r+0xaa2>
 80090e4:	3408      	adds	r4, #8
 80090e6:	3e10      	subs	r6, #16
 80090e8:	e611      	b.n	8008d0e <_vfprintf_r+0x6c6>
 80090ea:	aa1f      	add	r2, sp, #124	; 0x7c
 80090ec:	4641      	mov	r1, r8
 80090ee:	4658      	mov	r0, fp
 80090f0:	f002 f922 	bl	800b338 <__sprint_r>
 80090f4:	2800      	cmp	r0, #0
 80090f6:	f040 8262 	bne.w	80095be <_vfprintf_r+0xf76>
 80090fa:	ac2c      	add	r4, sp, #176	; 0xb0
 80090fc:	e7f3      	b.n	80090e6 <_vfprintf_r+0xa9e>
 80090fe:	aa1f      	add	r2, sp, #124	; 0x7c
 8009100:	4641      	mov	r1, r8
 8009102:	4658      	mov	r0, fp
 8009104:	f002 f918 	bl	800b338 <__sprint_r>
 8009108:	2800      	cmp	r0, #0
 800910a:	f040 8258 	bne.w	80095be <_vfprintf_r+0xf76>
 800910e:	ac2c      	add	r4, sp, #176	; 0xb0
 8009110:	e60c      	b.n	8008d2c <_vfprintf_r+0x6e4>
 8009112:	9b02      	ldr	r3, [sp, #8]
 8009114:	2b65      	cmp	r3, #101	; 0x65
 8009116:	f340 81ad 	ble.w	8009474 <_vfprintf_r+0xe2c>
 800911a:	2200      	movs	r2, #0
 800911c:	2300      	movs	r3, #0
 800911e:	e9dd 0106 	ldrd	r0, r1, [sp, #24]
 8009122:	f7f7 fcdd 	bl	8000ae0 <__aeabi_dcmpeq>
 8009126:	2800      	cmp	r0, #0
 8009128:	d062      	beq.n	80091f0 <_vfprintf_r+0xba8>
 800912a:	4b2f      	ldr	r3, [pc, #188]	; (80091e8 <_vfprintf_r+0xba0>)
 800912c:	6023      	str	r3, [r4, #0]
 800912e:	2301      	movs	r3, #1
 8009130:	6063      	str	r3, [r4, #4]
 8009132:	9b21      	ldr	r3, [sp, #132]	; 0x84
 8009134:	3301      	adds	r3, #1
 8009136:	9321      	str	r3, [sp, #132]	; 0x84
 8009138:	9b20      	ldr	r3, [sp, #128]	; 0x80
 800913a:	3301      	adds	r3, #1
 800913c:	2b07      	cmp	r3, #7
 800913e:	9320      	str	r3, [sp, #128]	; 0x80
 8009140:	dc25      	bgt.n	800918e <_vfprintf_r+0xb46>
 8009142:	3408      	adds	r4, #8
 8009144:	9b19      	ldr	r3, [sp, #100]	; 0x64
 8009146:	9a03      	ldr	r2, [sp, #12]
 8009148:	4293      	cmp	r3, r2
 800914a:	db02      	blt.n	8009152 <_vfprintf_r+0xb0a>
 800914c:	07ea      	lsls	r2, r5, #31
 800914e:	f57f ae04 	bpl.w	8008d5a <_vfprintf_r+0x712>
 8009152:	9b0d      	ldr	r3, [sp, #52]	; 0x34
 8009154:	6023      	str	r3, [r4, #0]
 8009156:	9b09      	ldr	r3, [sp, #36]	; 0x24
 8009158:	6063      	str	r3, [r4, #4]
 800915a:	9a09      	ldr	r2, [sp, #36]	; 0x24
 800915c:	9b21      	ldr	r3, [sp, #132]	; 0x84
 800915e:	4413      	add	r3, r2
 8009160:	9321      	str	r3, [sp, #132]	; 0x84
 8009162:	9b20      	ldr	r3, [sp, #128]	; 0x80
 8009164:	3301      	adds	r3, #1
 8009166:	2b07      	cmp	r3, #7
 8009168:	9320      	str	r3, [sp, #128]	; 0x80
 800916a:	dc1a      	bgt.n	80091a2 <_vfprintf_r+0xb5a>
 800916c:	3408      	adds	r4, #8
 800916e:	9b03      	ldr	r3, [sp, #12]
 8009170:	1e5e      	subs	r6, r3, #1
 8009172:	2e00      	cmp	r6, #0
 8009174:	f77f adf1 	ble.w	8008d5a <_vfprintf_r+0x712>
 8009178:	4f1c      	ldr	r7, [pc, #112]	; (80091ec <_vfprintf_r+0xba4>)
 800917a:	f04f 0910 	mov.w	r9, #16
 800917e:	2e10      	cmp	r6, #16
 8009180:	6027      	str	r7, [r4, #0]
 8009182:	dc18      	bgt.n	80091b6 <_vfprintf_r+0xb6e>
 8009184:	6066      	str	r6, [r4, #4]
 8009186:	9b21      	ldr	r3, [sp, #132]	; 0x84
 8009188:	441e      	add	r6, r3
 800918a:	9621      	str	r6, [sp, #132]	; 0x84
 800918c:	e5d6      	b.n	8008d3c <_vfprintf_r+0x6f4>
 800918e:	aa1f      	add	r2, sp, #124	; 0x7c
 8009190:	4641      	mov	r1, r8
 8009192:	4658      	mov	r0, fp
 8009194:	f002 f8d0 	bl	800b338 <__sprint_r>
 8009198:	2800      	cmp	r0, #0
 800919a:	f040 8210 	bne.w	80095be <_vfprintf_r+0xf76>
 800919e:	ac2c      	add	r4, sp, #176	; 0xb0
 80091a0:	e7d0      	b.n	8009144 <_vfprintf_r+0xafc>
 80091a2:	aa1f      	add	r2, sp, #124	; 0x7c
 80091a4:	4641      	mov	r1, r8
 80091a6:	4658      	mov	r0, fp
 80091a8:	f002 f8c6 	bl	800b338 <__sprint_r>
 80091ac:	2800      	cmp	r0, #0
 80091ae:	f040 8206 	bne.w	80095be <_vfprintf_r+0xf76>
 80091b2:	ac2c      	add	r4, sp, #176	; 0xb0
 80091b4:	e7db      	b.n	800916e <_vfprintf_r+0xb26>
 80091b6:	9b21      	ldr	r3, [sp, #132]	; 0x84
 80091b8:	f8c4 9004 	str.w	r9, [r4, #4]
 80091bc:	3310      	adds	r3, #16
 80091be:	9321      	str	r3, [sp, #132]	; 0x84
 80091c0:	9b20      	ldr	r3, [sp, #128]	; 0x80
 80091c2:	3301      	adds	r3, #1
 80091c4:	2b07      	cmp	r3, #7
 80091c6:	9320      	str	r3, [sp, #128]	; 0x80
 80091c8:	dc02      	bgt.n	80091d0 <_vfprintf_r+0xb88>
 80091ca:	3408      	adds	r4, #8
 80091cc:	3e10      	subs	r6, #16
 80091ce:	e7d6      	b.n	800917e <_vfprintf_r+0xb36>
 80091d0:	aa1f      	add	r2, sp, #124	; 0x7c
 80091d2:	4641      	mov	r1, r8
 80091d4:	4658      	mov	r0, fp
 80091d6:	f002 f8af 	bl	800b338 <__sprint_r>
 80091da:	2800      	cmp	r0, #0
 80091dc:	f040 81ef 	bne.w	80095be <_vfprintf_r+0xf76>
 80091e0:	ac2c      	add	r4, sp, #176	; 0xb0
 80091e2:	e7f3      	b.n	80091cc <_vfprintf_r+0xb84>
 80091e4:	0800bc99 	.word	0x0800bc99
 80091e8:	0800bcaa 	.word	0x0800bcaa
 80091ec:	0800bcbc 	.word	0x0800bcbc
 80091f0:	9b19      	ldr	r3, [sp, #100]	; 0x64
 80091f2:	2b00      	cmp	r3, #0
 80091f4:	dc7a      	bgt.n	80092ec <_vfprintf_r+0xca4>
 80091f6:	4b9d      	ldr	r3, [pc, #628]	; (800946c <_vfprintf_r+0xe24>)
 80091f8:	6023      	str	r3, [r4, #0]
 80091fa:	2301      	movs	r3, #1
 80091fc:	6063      	str	r3, [r4, #4]
 80091fe:	9b21      	ldr	r3, [sp, #132]	; 0x84
 8009200:	3301      	adds	r3, #1
 8009202:	9321      	str	r3, [sp, #132]	; 0x84
 8009204:	9b20      	ldr	r3, [sp, #128]	; 0x80
 8009206:	3301      	adds	r3, #1
 8009208:	2b07      	cmp	r3, #7
 800920a:	9320      	str	r3, [sp, #128]	; 0x80
 800920c:	dc44      	bgt.n	8009298 <_vfprintf_r+0xc50>
 800920e:	3408      	adds	r4, #8
 8009210:	9b19      	ldr	r3, [sp, #100]	; 0x64
 8009212:	b923      	cbnz	r3, 800921e <_vfprintf_r+0xbd6>
 8009214:	9b03      	ldr	r3, [sp, #12]
 8009216:	b913      	cbnz	r3, 800921e <_vfprintf_r+0xbd6>
 8009218:	07eb      	lsls	r3, r5, #31
 800921a:	f57f ad9e 	bpl.w	8008d5a <_vfprintf_r+0x712>
 800921e:	9b0d      	ldr	r3, [sp, #52]	; 0x34
 8009220:	6023      	str	r3, [r4, #0]
 8009222:	9b09      	ldr	r3, [sp, #36]	; 0x24
 8009224:	6063      	str	r3, [r4, #4]
 8009226:	9a09      	ldr	r2, [sp, #36]	; 0x24
 8009228:	9b21      	ldr	r3, [sp, #132]	; 0x84
 800922a:	4413      	add	r3, r2
 800922c:	9321      	str	r3, [sp, #132]	; 0x84
 800922e:	9b20      	ldr	r3, [sp, #128]	; 0x80
 8009230:	3301      	adds	r3, #1
 8009232:	2b07      	cmp	r3, #7
 8009234:	9320      	str	r3, [sp, #128]	; 0x80
 8009236:	dc39      	bgt.n	80092ac <_vfprintf_r+0xc64>
 8009238:	f104 0308 	add.w	r3, r4, #8
 800923c:	9e19      	ldr	r6, [sp, #100]	; 0x64
 800923e:	2e00      	cmp	r6, #0
 8009240:	da19      	bge.n	8009276 <_vfprintf_r+0xc2e>
 8009242:	4f8b      	ldr	r7, [pc, #556]	; (8009470 <_vfprintf_r+0xe28>)
 8009244:	4276      	negs	r6, r6
 8009246:	2410      	movs	r4, #16
 8009248:	2e10      	cmp	r6, #16
 800924a:	601f      	str	r7, [r3, #0]
 800924c:	dc38      	bgt.n	80092c0 <_vfprintf_r+0xc78>
 800924e:	9a21      	ldr	r2, [sp, #132]	; 0x84
 8009250:	605e      	str	r6, [r3, #4]
 8009252:	4416      	add	r6, r2
 8009254:	9a20      	ldr	r2, [sp, #128]	; 0x80
 8009256:	9621      	str	r6, [sp, #132]	; 0x84
 8009258:	3201      	adds	r2, #1
 800925a:	2a07      	cmp	r2, #7
 800925c:	f103 0308 	add.w	r3, r3, #8
 8009260:	9220      	str	r2, [sp, #128]	; 0x80
 8009262:	dd08      	ble.n	8009276 <_vfprintf_r+0xc2e>
 8009264:	aa1f      	add	r2, sp, #124	; 0x7c
 8009266:	4641      	mov	r1, r8
 8009268:	4658      	mov	r0, fp
 800926a:	f002 f865 	bl	800b338 <__sprint_r>
 800926e:	2800      	cmp	r0, #0
 8009270:	f040 81a5 	bne.w	80095be <_vfprintf_r+0xf76>
 8009274:	ab2c      	add	r3, sp, #176	; 0xb0
 8009276:	9a03      	ldr	r2, [sp, #12]
 8009278:	605a      	str	r2, [r3, #4]
 800927a:	9903      	ldr	r1, [sp, #12]
 800927c:	9a21      	ldr	r2, [sp, #132]	; 0x84
 800927e:	f8c3 9000 	str.w	r9, [r3]
 8009282:	440a      	add	r2, r1
 8009284:	9221      	str	r2, [sp, #132]	; 0x84
 8009286:	9a20      	ldr	r2, [sp, #128]	; 0x80
 8009288:	3201      	adds	r2, #1
 800928a:	2a07      	cmp	r2, #7
 800928c:	9220      	str	r2, [sp, #128]	; 0x80
 800928e:	f73f ad5b 	bgt.w	8008d48 <_vfprintf_r+0x700>
 8009292:	f103 0408 	add.w	r4, r3, #8
 8009296:	e560      	b.n	8008d5a <_vfprintf_r+0x712>
 8009298:	aa1f      	add	r2, sp, #124	; 0x7c
 800929a:	4641      	mov	r1, r8
 800929c:	4658      	mov	r0, fp
 800929e:	f002 f84b 	bl	800b338 <__sprint_r>
 80092a2:	2800      	cmp	r0, #0
 80092a4:	f040 818b 	bne.w	80095be <_vfprintf_r+0xf76>
 80092a8:	ac2c      	add	r4, sp, #176	; 0xb0
 80092aa:	e7b1      	b.n	8009210 <_vfprintf_r+0xbc8>
 80092ac:	aa1f      	add	r2, sp, #124	; 0x7c
 80092ae:	4641      	mov	r1, r8
 80092b0:	4658      	mov	r0, fp
 80092b2:	f002 f841 	bl	800b338 <__sprint_r>
 80092b6:	2800      	cmp	r0, #0
 80092b8:	f040 8181 	bne.w	80095be <_vfprintf_r+0xf76>
 80092bc:	ab2c      	add	r3, sp, #176	; 0xb0
 80092be:	e7bd      	b.n	800923c <_vfprintf_r+0xbf4>
 80092c0:	9a21      	ldr	r2, [sp, #132]	; 0x84
 80092c2:	605c      	str	r4, [r3, #4]
 80092c4:	3210      	adds	r2, #16
 80092c6:	9221      	str	r2, [sp, #132]	; 0x84
 80092c8:	9a20      	ldr	r2, [sp, #128]	; 0x80
 80092ca:	3201      	adds	r2, #1
 80092cc:	2a07      	cmp	r2, #7
 80092ce:	9220      	str	r2, [sp, #128]	; 0x80
 80092d0:	dc02      	bgt.n	80092d8 <_vfprintf_r+0xc90>
 80092d2:	3308      	adds	r3, #8
 80092d4:	3e10      	subs	r6, #16
 80092d6:	e7b7      	b.n	8009248 <_vfprintf_r+0xc00>
 80092d8:	aa1f      	add	r2, sp, #124	; 0x7c
 80092da:	4641      	mov	r1, r8
 80092dc:	4658      	mov	r0, fp
 80092de:	f002 f82b 	bl	800b338 <__sprint_r>
 80092e2:	2800      	cmp	r0, #0
 80092e4:	f040 816b 	bne.w	80095be <_vfprintf_r+0xf76>
 80092e8:	ab2c      	add	r3, sp, #176	; 0xb0
 80092ea:	e7f3      	b.n	80092d4 <_vfprintf_r+0xc8c>
 80092ec:	9b08      	ldr	r3, [sp, #32]
 80092ee:	9a03      	ldr	r2, [sp, #12]
 80092f0:	4293      	cmp	r3, r2
 80092f2:	bfa8      	it	ge
 80092f4:	4613      	movge	r3, r2
 80092f6:	2b00      	cmp	r3, #0
 80092f8:	461e      	mov	r6, r3
 80092fa:	dd0b      	ble.n	8009314 <_vfprintf_r+0xccc>
 80092fc:	6063      	str	r3, [r4, #4]
 80092fe:	9b21      	ldr	r3, [sp, #132]	; 0x84
 8009300:	f8c4 9000 	str.w	r9, [r4]
 8009304:	4433      	add	r3, r6
 8009306:	9321      	str	r3, [sp, #132]	; 0x84
 8009308:	9b20      	ldr	r3, [sp, #128]	; 0x80
 800930a:	3301      	adds	r3, #1
 800930c:	2b07      	cmp	r3, #7
 800930e:	9320      	str	r3, [sp, #128]	; 0x80
 8009310:	dc62      	bgt.n	80093d8 <_vfprintf_r+0xd90>
 8009312:	3408      	adds	r4, #8
 8009314:	9b08      	ldr	r3, [sp, #32]
 8009316:	2e00      	cmp	r6, #0
 8009318:	bfa8      	it	ge
 800931a:	1b9b      	subge	r3, r3, r6
 800931c:	2b00      	cmp	r3, #0
 800931e:	461e      	mov	r6, r3
 8009320:	dd0f      	ble.n	8009342 <_vfprintf_r+0xcfa>
 8009322:	4f53      	ldr	r7, [pc, #332]	; (8009470 <_vfprintf_r+0xe28>)
 8009324:	f04f 0a10 	mov.w	sl, #16
 8009328:	2e10      	cmp	r6, #16
 800932a:	6027      	str	r7, [r4, #0]
 800932c:	dc5e      	bgt.n	80093ec <_vfprintf_r+0xda4>
 800932e:	9b21      	ldr	r3, [sp, #132]	; 0x84
 8009330:	6066      	str	r6, [r4, #4]
 8009332:	441e      	add	r6, r3
 8009334:	9b20      	ldr	r3, [sp, #128]	; 0x80
 8009336:	9621      	str	r6, [sp, #132]	; 0x84
 8009338:	3301      	adds	r3, #1
 800933a:	2b07      	cmp	r3, #7
 800933c:	9320      	str	r3, [sp, #128]	; 0x80
 800933e:	dc6c      	bgt.n	800941a <_vfprintf_r+0xdd2>
 8009340:	3408      	adds	r4, #8
 8009342:	9b19      	ldr	r3, [sp, #100]	; 0x64
 8009344:	9a03      	ldr	r2, [sp, #12]
 8009346:	4293      	cmp	r3, r2
 8009348:	db01      	blt.n	800934e <_vfprintf_r+0xd06>
 800934a:	07ef      	lsls	r7, r5, #31
 800934c:	d50d      	bpl.n	800936a <_vfprintf_r+0xd22>
 800934e:	9b0d      	ldr	r3, [sp, #52]	; 0x34
 8009350:	6023      	str	r3, [r4, #0]
 8009352:	9b09      	ldr	r3, [sp, #36]	; 0x24
 8009354:	6063      	str	r3, [r4, #4]
 8009356:	9a09      	ldr	r2, [sp, #36]	; 0x24
 8009358:	9b21      	ldr	r3, [sp, #132]	; 0x84
 800935a:	4413      	add	r3, r2
 800935c:	9321      	str	r3, [sp, #132]	; 0x84
 800935e:	9b20      	ldr	r3, [sp, #128]	; 0x80
 8009360:	3301      	adds	r3, #1
 8009362:	2b07      	cmp	r3, #7
 8009364:	9320      	str	r3, [sp, #128]	; 0x80
 8009366:	dc62      	bgt.n	800942e <_vfprintf_r+0xde6>
 8009368:	3408      	adds	r4, #8
 800936a:	9b03      	ldr	r3, [sp, #12]
 800936c:	9a08      	ldr	r2, [sp, #32]
 800936e:	1a9e      	subs	r6, r3, r2
 8009370:	9b19      	ldr	r3, [sp, #100]	; 0x64
 8009372:	9a03      	ldr	r2, [sp, #12]
 8009374:	1ad3      	subs	r3, r2, r3
 8009376:	429e      	cmp	r6, r3
 8009378:	bfa8      	it	ge
 800937a:	461e      	movge	r6, r3
 800937c:	2e00      	cmp	r6, #0
 800937e:	dd0c      	ble.n	800939a <_vfprintf_r+0xd52>
 8009380:	9b08      	ldr	r3, [sp, #32]
 8009382:	444b      	add	r3, r9
 8009384:	e884 0048 	stmia.w	r4, {r3, r6}
 8009388:	9b21      	ldr	r3, [sp, #132]	; 0x84
 800938a:	4433      	add	r3, r6
 800938c:	9321      	str	r3, [sp, #132]	; 0x84
 800938e:	9b20      	ldr	r3, [sp, #128]	; 0x80
 8009390:	3301      	adds	r3, #1
 8009392:	2b07      	cmp	r3, #7
 8009394:	9320      	str	r3, [sp, #128]	; 0x80
 8009396:	dc54      	bgt.n	8009442 <_vfprintf_r+0xdfa>
 8009398:	3408      	adds	r4, #8
 800939a:	9b19      	ldr	r3, [sp, #100]	; 0x64
 800939c:	9a03      	ldr	r2, [sp, #12]
 800939e:	2e00      	cmp	r6, #0
 80093a0:	eba2 0303 	sub.w	r3, r2, r3
 80093a4:	bfac      	ite	ge
 80093a6:	1b9e      	subge	r6, r3, r6
 80093a8:	461e      	movlt	r6, r3
 80093aa:	2e00      	cmp	r6, #0
 80093ac:	f77f acd5 	ble.w	8008d5a <_vfprintf_r+0x712>
 80093b0:	4f2f      	ldr	r7, [pc, #188]	; (8009470 <_vfprintf_r+0xe28>)
 80093b2:	f04f 0910 	mov.w	r9, #16
 80093b6:	2e10      	cmp	r6, #16
 80093b8:	6027      	str	r7, [r4, #0]
 80093ba:	f77f aee3 	ble.w	8009184 <_vfprintf_r+0xb3c>
 80093be:	9b21      	ldr	r3, [sp, #132]	; 0x84
 80093c0:	f8c4 9004 	str.w	r9, [r4, #4]
 80093c4:	3310      	adds	r3, #16
 80093c6:	9321      	str	r3, [sp, #132]	; 0x84
 80093c8:	9b20      	ldr	r3, [sp, #128]	; 0x80
 80093ca:	3301      	adds	r3, #1
 80093cc:	2b07      	cmp	r3, #7
 80093ce:	9320      	str	r3, [sp, #128]	; 0x80
 80093d0:	dc41      	bgt.n	8009456 <_vfprintf_r+0xe0e>
 80093d2:	3408      	adds	r4, #8
 80093d4:	3e10      	subs	r6, #16
 80093d6:	e7ee      	b.n	80093b6 <_vfprintf_r+0xd6e>
 80093d8:	aa1f      	add	r2, sp, #124	; 0x7c
 80093da:	4641      	mov	r1, r8
 80093dc:	4658      	mov	r0, fp
 80093de:	f001 ffab 	bl	800b338 <__sprint_r>
 80093e2:	2800      	cmp	r0, #0
 80093e4:	f040 80eb 	bne.w	80095be <_vfprintf_r+0xf76>
 80093e8:	ac2c      	add	r4, sp, #176	; 0xb0
 80093ea:	e793      	b.n	8009314 <_vfprintf_r+0xccc>
 80093ec:	9b21      	ldr	r3, [sp, #132]	; 0x84
 80093ee:	f8c4 a004 	str.w	sl, [r4, #4]
 80093f2:	3310      	adds	r3, #16
 80093f4:	9321      	str	r3, [sp, #132]	; 0x84
 80093f6:	9b20      	ldr	r3, [sp, #128]	; 0x80
 80093f8:	3301      	adds	r3, #1
 80093fa:	2b07      	cmp	r3, #7
 80093fc:	9320      	str	r3, [sp, #128]	; 0x80
 80093fe:	dc02      	bgt.n	8009406 <_vfprintf_r+0xdbe>
 8009400:	3408      	adds	r4, #8
 8009402:	3e10      	subs	r6, #16
 8009404:	e790      	b.n	8009328 <_vfprintf_r+0xce0>
 8009406:	aa1f      	add	r2, sp, #124	; 0x7c
 8009408:	4641      	mov	r1, r8
 800940a:	4658      	mov	r0, fp
 800940c:	f001 ff94 	bl	800b338 <__sprint_r>
 8009410:	2800      	cmp	r0, #0
 8009412:	f040 80d4 	bne.w	80095be <_vfprintf_r+0xf76>
 8009416:	ac2c      	add	r4, sp, #176	; 0xb0
 8009418:	e7f3      	b.n	8009402 <_vfprintf_r+0xdba>
 800941a:	aa1f      	add	r2, sp, #124	; 0x7c
 800941c:	4641      	mov	r1, r8
 800941e:	4658      	mov	r0, fp
 8009420:	f001 ff8a 	bl	800b338 <__sprint_r>
 8009424:	2800      	cmp	r0, #0
 8009426:	f040 80ca 	bne.w	80095be <_vfprintf_r+0xf76>
 800942a:	ac2c      	add	r4, sp, #176	; 0xb0
 800942c:	e789      	b.n	8009342 <_vfprintf_r+0xcfa>
 800942e:	aa1f      	add	r2, sp, #124	; 0x7c
 8009430:	4641      	mov	r1, r8
 8009432:	4658      	mov	r0, fp
 8009434:	f001 ff80 	bl	800b338 <__sprint_r>
 8009438:	2800      	cmp	r0, #0
 800943a:	f040 80c0 	bne.w	80095be <_vfprintf_r+0xf76>
 800943e:	ac2c      	add	r4, sp, #176	; 0xb0
 8009440:	e793      	b.n	800936a <_vfprintf_r+0xd22>
 8009442:	aa1f      	add	r2, sp, #124	; 0x7c
 8009444:	4641      	mov	r1, r8
 8009446:	4658      	mov	r0, fp
 8009448:	f001 ff76 	bl	800b338 <__sprint_r>
 800944c:	2800      	cmp	r0, #0
 800944e:	f040 80b6 	bne.w	80095be <_vfprintf_r+0xf76>
 8009452:	ac2c      	add	r4, sp, #176	; 0xb0
 8009454:	e7a1      	b.n	800939a <_vfprintf_r+0xd52>
 8009456:	aa1f      	add	r2, sp, #124	; 0x7c
 8009458:	4641      	mov	r1, r8
 800945a:	4658      	mov	r0, fp
 800945c:	f001 ff6c 	bl	800b338 <__sprint_r>
 8009460:	2800      	cmp	r0, #0
 8009462:	f040 80ac 	bne.w	80095be <_vfprintf_r+0xf76>
 8009466:	ac2c      	add	r4, sp, #176	; 0xb0
 8009468:	e7b4      	b.n	80093d4 <_vfprintf_r+0xd8c>
 800946a:	bf00      	nop
 800946c:	0800bcaa 	.word	0x0800bcaa
 8009470:	0800bcbc 	.word	0x0800bcbc
 8009474:	9b03      	ldr	r3, [sp, #12]
 8009476:	2b01      	cmp	r3, #1
 8009478:	dc01      	bgt.n	800947e <_vfprintf_r+0xe36>
 800947a:	07ee      	lsls	r6, r5, #31
 800947c:	d576      	bpl.n	800956c <_vfprintf_r+0xf24>
 800947e:	2301      	movs	r3, #1
 8009480:	6063      	str	r3, [r4, #4]
 8009482:	9b21      	ldr	r3, [sp, #132]	; 0x84
 8009484:	f8c4 9000 	str.w	r9, [r4]
 8009488:	3301      	adds	r3, #1
 800948a:	9321      	str	r3, [sp, #132]	; 0x84
 800948c:	9b20      	ldr	r3, [sp, #128]	; 0x80
 800948e:	3301      	adds	r3, #1
 8009490:	2b07      	cmp	r3, #7
 8009492:	9320      	str	r3, [sp, #128]	; 0x80
 8009494:	dc36      	bgt.n	8009504 <_vfprintf_r+0xebc>
 8009496:	3408      	adds	r4, #8
 8009498:	9b0d      	ldr	r3, [sp, #52]	; 0x34
 800949a:	6023      	str	r3, [r4, #0]
 800949c:	9b09      	ldr	r3, [sp, #36]	; 0x24
 800949e:	6063      	str	r3, [r4, #4]
 80094a0:	9a09      	ldr	r2, [sp, #36]	; 0x24
 80094a2:	9b21      	ldr	r3, [sp, #132]	; 0x84
 80094a4:	4413      	add	r3, r2
 80094a6:	9321      	str	r3, [sp, #132]	; 0x84
 80094a8:	9b20      	ldr	r3, [sp, #128]	; 0x80
 80094aa:	3301      	adds	r3, #1
 80094ac:	2b07      	cmp	r3, #7
 80094ae:	9320      	str	r3, [sp, #128]	; 0x80
 80094b0:	dc31      	bgt.n	8009516 <_vfprintf_r+0xece>
 80094b2:	3408      	adds	r4, #8
 80094b4:	2300      	movs	r3, #0
 80094b6:	2200      	movs	r2, #0
 80094b8:	e9dd 0106 	ldrd	r0, r1, [sp, #24]
 80094bc:	f7f7 fb10 	bl	8000ae0 <__aeabi_dcmpeq>
 80094c0:	9b03      	ldr	r3, [sp, #12]
 80094c2:	1e5e      	subs	r6, r3, #1
 80094c4:	2800      	cmp	r0, #0
 80094c6:	d12f      	bne.n	8009528 <_vfprintf_r+0xee0>
 80094c8:	f109 0301 	add.w	r3, r9, #1
 80094cc:	e884 0048 	stmia.w	r4, {r3, r6}
 80094d0:	9b21      	ldr	r3, [sp, #132]	; 0x84
 80094d2:	9a03      	ldr	r2, [sp, #12]
 80094d4:	3b01      	subs	r3, #1
 80094d6:	4413      	add	r3, r2
 80094d8:	9321      	str	r3, [sp, #132]	; 0x84
 80094da:	9b20      	ldr	r3, [sp, #128]	; 0x80
 80094dc:	3301      	adds	r3, #1
 80094de:	2b07      	cmp	r3, #7
 80094e0:	9320      	str	r3, [sp, #128]	; 0x80
 80094e2:	dd4a      	ble.n	800957a <_vfprintf_r+0xf32>
 80094e4:	aa1f      	add	r2, sp, #124	; 0x7c
 80094e6:	4641      	mov	r1, r8
 80094e8:	4658      	mov	r0, fp
 80094ea:	f001 ff25 	bl	800b338 <__sprint_r>
 80094ee:	2800      	cmp	r0, #0
 80094f0:	d165      	bne.n	80095be <_vfprintf_r+0xf76>
 80094f2:	ac2c      	add	r4, sp, #176	; 0xb0
 80094f4:	ab1b      	add	r3, sp, #108	; 0x6c
 80094f6:	6023      	str	r3, [r4, #0]
 80094f8:	9b10      	ldr	r3, [sp, #64]	; 0x40
 80094fa:	6063      	str	r3, [r4, #4]
 80094fc:	9a10      	ldr	r2, [sp, #64]	; 0x40
 80094fe:	9b21      	ldr	r3, [sp, #132]	; 0x84
 8009500:	4413      	add	r3, r2
 8009502:	e41a      	b.n	8008d3a <_vfprintf_r+0x6f2>
 8009504:	aa1f      	add	r2, sp, #124	; 0x7c
 8009506:	4641      	mov	r1, r8
 8009508:	4658      	mov	r0, fp
 800950a:	f001 ff15 	bl	800b338 <__sprint_r>
 800950e:	2800      	cmp	r0, #0
 8009510:	d155      	bne.n	80095be <_vfprintf_r+0xf76>
 8009512:	ac2c      	add	r4, sp, #176	; 0xb0
 8009514:	e7c0      	b.n	8009498 <_vfprintf_r+0xe50>
 8009516:	aa1f      	add	r2, sp, #124	; 0x7c
 8009518:	4641      	mov	r1, r8
 800951a:	4658      	mov	r0, fp
 800951c:	f001 ff0c 	bl	800b338 <__sprint_r>
 8009520:	2800      	cmp	r0, #0
 8009522:	d14c      	bne.n	80095be <_vfprintf_r+0xf76>
 8009524:	ac2c      	add	r4, sp, #176	; 0xb0
 8009526:	e7c5      	b.n	80094b4 <_vfprintf_r+0xe6c>
 8009528:	2e00      	cmp	r6, #0
 800952a:	dde3      	ble.n	80094f4 <_vfprintf_r+0xeac>
 800952c:	4f60      	ldr	r7, [pc, #384]	; (80096b0 <_vfprintf_r+0x1068>)
 800952e:	f04f 0910 	mov.w	r9, #16
 8009532:	2e10      	cmp	r6, #16
 8009534:	6027      	str	r7, [r4, #0]
 8009536:	dc04      	bgt.n	8009542 <_vfprintf_r+0xefa>
 8009538:	9b21      	ldr	r3, [sp, #132]	; 0x84
 800953a:	6066      	str	r6, [r4, #4]
 800953c:	441e      	add	r6, r3
 800953e:	9621      	str	r6, [sp, #132]	; 0x84
 8009540:	e7cb      	b.n	80094da <_vfprintf_r+0xe92>
 8009542:	9b21      	ldr	r3, [sp, #132]	; 0x84
 8009544:	f8c4 9004 	str.w	r9, [r4, #4]
 8009548:	3310      	adds	r3, #16
 800954a:	9321      	str	r3, [sp, #132]	; 0x84
 800954c:	9b20      	ldr	r3, [sp, #128]	; 0x80
 800954e:	3301      	adds	r3, #1
 8009550:	2b07      	cmp	r3, #7
 8009552:	9320      	str	r3, [sp, #128]	; 0x80
 8009554:	dc02      	bgt.n	800955c <_vfprintf_r+0xf14>
 8009556:	3408      	adds	r4, #8
 8009558:	3e10      	subs	r6, #16
 800955a:	e7ea      	b.n	8009532 <_vfprintf_r+0xeea>
 800955c:	aa1f      	add	r2, sp, #124	; 0x7c
 800955e:	4641      	mov	r1, r8
 8009560:	4658      	mov	r0, fp
 8009562:	f001 fee9 	bl	800b338 <__sprint_r>
 8009566:	bb50      	cbnz	r0, 80095be <_vfprintf_r+0xf76>
 8009568:	ac2c      	add	r4, sp, #176	; 0xb0
 800956a:	e7f5      	b.n	8009558 <_vfprintf_r+0xf10>
 800956c:	2301      	movs	r3, #1
 800956e:	6063      	str	r3, [r4, #4]
 8009570:	9b21      	ldr	r3, [sp, #132]	; 0x84
 8009572:	f8c4 9000 	str.w	r9, [r4]
 8009576:	3301      	adds	r3, #1
 8009578:	e7ae      	b.n	80094d8 <_vfprintf_r+0xe90>
 800957a:	3408      	adds	r4, #8
 800957c:	e7ba      	b.n	80094f4 <_vfprintf_r+0xeac>
 800957e:	3408      	adds	r4, #8
 8009580:	f7ff bbeb 	b.w	8008d5a <_vfprintf_r+0x712>
 8009584:	9b0b      	ldr	r3, [sp, #44]	; 0x2c
 8009586:	9a0c      	ldr	r2, [sp, #48]	; 0x30
 8009588:	1a9d      	subs	r5, r3, r2
 800958a:	2d00      	cmp	r5, #0
 800958c:	f77f abe8 	ble.w	8008d60 <_vfprintf_r+0x718>
 8009590:	2610      	movs	r6, #16
 8009592:	4b48      	ldr	r3, [pc, #288]	; (80096b4 <_vfprintf_r+0x106c>)
 8009594:	6023      	str	r3, [r4, #0]
 8009596:	2d10      	cmp	r5, #16
 8009598:	dc24      	bgt.n	80095e4 <_vfprintf_r+0xf9c>
 800959a:	9b21      	ldr	r3, [sp, #132]	; 0x84
 800959c:	6065      	str	r5, [r4, #4]
 800959e:	441d      	add	r5, r3
 80095a0:	9b20      	ldr	r3, [sp, #128]	; 0x80
 80095a2:	9521      	str	r5, [sp, #132]	; 0x84
 80095a4:	3301      	adds	r3, #1
 80095a6:	2b07      	cmp	r3, #7
 80095a8:	9320      	str	r3, [sp, #128]	; 0x80
 80095aa:	f77f abd9 	ble.w	8008d60 <_vfprintf_r+0x718>
 80095ae:	aa1f      	add	r2, sp, #124	; 0x7c
 80095b0:	4641      	mov	r1, r8
 80095b2:	4658      	mov	r0, fp
 80095b4:	f001 fec0 	bl	800b338 <__sprint_r>
 80095b8:	2800      	cmp	r0, #0
 80095ba:	f43f abd1 	beq.w	8008d60 <_vfprintf_r+0x718>
 80095be:	f8d8 3064 	ldr.w	r3, [r8, #100]	; 0x64
 80095c2:	07d9      	lsls	r1, r3, #31
 80095c4:	d407      	bmi.n	80095d6 <_vfprintf_r+0xf8e>
 80095c6:	f8b8 300c 	ldrh.w	r3, [r8, #12]
 80095ca:	059a      	lsls	r2, r3, #22
 80095cc:	d403      	bmi.n	80095d6 <_vfprintf_r+0xf8e>
 80095ce:	f8d8 0058 	ldr.w	r0, [r8, #88]	; 0x58
 80095d2:	f7fe fd22 	bl	800801a <__retarget_lock_release_recursive>
 80095d6:	f8b8 300c 	ldrh.w	r3, [r8, #12]
 80095da:	065b      	lsls	r3, r3, #25
 80095dc:	f57f a8af 	bpl.w	800873e <_vfprintf_r+0xf6>
 80095e0:	f7ff b882 	b.w	80086e8 <_vfprintf_r+0xa0>
 80095e4:	9b21      	ldr	r3, [sp, #132]	; 0x84
 80095e6:	6066      	str	r6, [r4, #4]
 80095e8:	3310      	adds	r3, #16
 80095ea:	9321      	str	r3, [sp, #132]	; 0x84
 80095ec:	9b20      	ldr	r3, [sp, #128]	; 0x80
 80095ee:	3301      	adds	r3, #1
 80095f0:	2b07      	cmp	r3, #7
 80095f2:	9320      	str	r3, [sp, #128]	; 0x80
 80095f4:	dc02      	bgt.n	80095fc <_vfprintf_r+0xfb4>
 80095f6:	3408      	adds	r4, #8
 80095f8:	3d10      	subs	r5, #16
 80095fa:	e7ca      	b.n	8009592 <_vfprintf_r+0xf4a>
 80095fc:	aa1f      	add	r2, sp, #124	; 0x7c
 80095fe:	4641      	mov	r1, r8
 8009600:	4658      	mov	r0, fp
 8009602:	f001 fe99 	bl	800b338 <__sprint_r>
 8009606:	2800      	cmp	r0, #0
 8009608:	d1d9      	bne.n	80095be <_vfprintf_r+0xf76>
 800960a:	ac2c      	add	r4, sp, #176	; 0xb0
 800960c:	e7f4      	b.n	80095f8 <_vfprintf_r+0xfb0>
 800960e:	9b21      	ldr	r3, [sp, #132]	; 0x84
 8009610:	b913      	cbnz	r3, 8009618 <_vfprintf_r+0xfd0>
 8009612:	2300      	movs	r3, #0
 8009614:	9320      	str	r3, [sp, #128]	; 0x80
 8009616:	e7d2      	b.n	80095be <_vfprintf_r+0xf76>
 8009618:	aa1f      	add	r2, sp, #124	; 0x7c
 800961a:	4641      	mov	r1, r8
 800961c:	4658      	mov	r0, fp
 800961e:	f001 fe8b 	bl	800b338 <__sprint_r>
 8009622:	2800      	cmp	r0, #0
 8009624:	d0f5      	beq.n	8009612 <_vfprintf_r+0xfca>
 8009626:	e7ca      	b.n	80095be <_vfprintf_r+0xf76>
 8009628:	e9dd 2306 	ldrd	r2, r3, [sp, #24]
 800962c:	4610      	mov	r0, r2
 800962e:	4619      	mov	r1, r3
 8009630:	f7f7 fa88 	bl	8000b44 <__aeabi_dcmpun>
 8009634:	2800      	cmp	r0, #0
 8009636:	f43f aa36 	beq.w	8008aa6 <_vfprintf_r+0x45e>
 800963a:	4b1f      	ldr	r3, [pc, #124]	; (80096b8 <_vfprintf_r+0x1070>)
 800963c:	4a1f      	ldr	r2, [pc, #124]	; (80096bc <_vfprintf_r+0x1074>)
 800963e:	f7ff ba26 	b.w	8008a8e <_vfprintf_r+0x446>
 8009642:	9b1d      	ldr	r3, [sp, #116]	; 0x74
 8009644:	1a1b      	subs	r3, r3, r0
 8009646:	9303      	str	r3, [sp, #12]
 8009648:	f7ff baa9 	b.w	8008b9e <_vfprintf_r+0x556>
 800964c:	ea56 0207 	orrs.w	r2, r6, r7
 8009650:	9508      	str	r5, [sp, #32]
 8009652:	f43f ac1e 	beq.w	8008e92 <_vfprintf_r+0x84a>
 8009656:	2b01      	cmp	r3, #1
 8009658:	f43f ac8f 	beq.w	8008f7a <_vfprintf_r+0x932>
 800965c:	2b02      	cmp	r3, #2
 800965e:	f43f acaf 	beq.w	8008fc0 <_vfprintf_r+0x978>
 8009662:	ab2c      	add	r3, sp, #176	; 0xb0
 8009664:	08f1      	lsrs	r1, r6, #3
 8009666:	ea41 7147 	orr.w	r1, r1, r7, lsl #29
 800966a:	08f8      	lsrs	r0, r7, #3
 800966c:	f006 0207 	and.w	r2, r6, #7
 8009670:	4607      	mov	r7, r0
 8009672:	460e      	mov	r6, r1
 8009674:	3230      	adds	r2, #48	; 0x30
 8009676:	ea56 0107 	orrs.w	r1, r6, r7
 800967a:	f103 39ff 	add.w	r9, r3, #4294967295
 800967e:	f803 2c01 	strb.w	r2, [r3, #-1]
 8009682:	f47f ac78 	bne.w	8008f76 <_vfprintf_r+0x92e>
 8009686:	9908      	ldr	r1, [sp, #32]
 8009688:	07cd      	lsls	r5, r1, #31
 800968a:	d506      	bpl.n	800969a <_vfprintf_r+0x1052>
 800968c:	2a30      	cmp	r2, #48	; 0x30
 800968e:	d004      	beq.n	800969a <_vfprintf_r+0x1052>
 8009690:	2230      	movs	r2, #48	; 0x30
 8009692:	f809 2c01 	strb.w	r2, [r9, #-1]
 8009696:	f1a3 0902 	sub.w	r9, r3, #2
 800969a:	4656      	mov	r6, sl
 800969c:	2300      	movs	r3, #0
 800969e:	f10d 0ab0 	add.w	sl, sp, #176	; 0xb0
 80096a2:	9d08      	ldr	r5, [sp, #32]
 80096a4:	9308      	str	r3, [sp, #32]
 80096a6:	ebaa 0a09 	sub.w	sl, sl, r9
 80096aa:	f7ff bac6 	b.w	8008c3a <_vfprintf_r+0x5f2>
 80096ae:	bf00      	nop
 80096b0:	0800bcbc 	.word	0x0800bcbc
 80096b4:	0800bcac 	.word	0x0800bcac
 80096b8:	0800bc80 	.word	0x0800bc80
 80096bc:	0800bc84 	.word	0x0800bc84

080096c0 <__sbprintf>:
 80096c0:	b5f0      	push	{r4, r5, r6, r7, lr}
 80096c2:	460c      	mov	r4, r1
 80096c4:	f2ad 4d6c 	subw	sp, sp, #1132	; 0x46c
 80096c8:	461f      	mov	r7, r3
 80096ca:	8989      	ldrh	r1, [r1, #12]
 80096cc:	6e63      	ldr	r3, [r4, #100]	; 0x64
 80096ce:	9319      	str	r3, [sp, #100]	; 0x64
 80096d0:	89e3      	ldrh	r3, [r4, #14]
 80096d2:	f8ad 300e 	strh.w	r3, [sp, #14]
 80096d6:	f021 0102 	bic.w	r1, r1, #2
 80096da:	6a23      	ldr	r3, [r4, #32]
 80096dc:	f8ad 100c 	strh.w	r1, [sp, #12]
 80096e0:	9308      	str	r3, [sp, #32]
 80096e2:	a91a      	add	r1, sp, #104	; 0x68
 80096e4:	6aa3      	ldr	r3, [r4, #40]	; 0x28
 80096e6:	930a      	str	r3, [sp, #40]	; 0x28
 80096e8:	4615      	mov	r5, r2
 80096ea:	2300      	movs	r3, #0
 80096ec:	4606      	mov	r6, r0
 80096ee:	9100      	str	r1, [sp, #0]
 80096f0:	9104      	str	r1, [sp, #16]
 80096f2:	a816      	add	r0, sp, #88	; 0x58
 80096f4:	f44f 6180 	mov.w	r1, #1024	; 0x400
 80096f8:	9102      	str	r1, [sp, #8]
 80096fa:	9105      	str	r1, [sp, #20]
 80096fc:	9306      	str	r3, [sp, #24]
 80096fe:	f7fe fc89 	bl	8008014 <__retarget_lock_init_recursive>
 8009702:	462a      	mov	r2, r5
 8009704:	463b      	mov	r3, r7
 8009706:	4669      	mov	r1, sp
 8009708:	4630      	mov	r0, r6
 800970a:	f7fe ff9d 	bl	8008648 <_vfprintf_r>
 800970e:	1e05      	subs	r5, r0, #0
 8009710:	db07      	blt.n	8009722 <__sbprintf+0x62>
 8009712:	4669      	mov	r1, sp
 8009714:	4630      	mov	r0, r6
 8009716:	f7fe fa03 	bl	8007b20 <_fflush_r>
 800971a:	2800      	cmp	r0, #0
 800971c:	bf18      	it	ne
 800971e:	f04f 35ff 	movne.w	r5, #4294967295
 8009722:	f8bd 300c 	ldrh.w	r3, [sp, #12]
 8009726:	9816      	ldr	r0, [sp, #88]	; 0x58
 8009728:	065b      	lsls	r3, r3, #25
 800972a:	bf42      	ittt	mi
 800972c:	89a3      	ldrhmi	r3, [r4, #12]
 800972e:	f043 0340 	orrmi.w	r3, r3, #64	; 0x40
 8009732:	81a3      	strhmi	r3, [r4, #12]
 8009734:	f7fe fc6f 	bl	8008016 <__retarget_lock_close_recursive>
 8009738:	4628      	mov	r0, r5
 800973a:	f20d 4d6c 	addw	sp, sp, #1132	; 0x46c
 800973e:	bdf0      	pop	{r4, r5, r6, r7, pc}

08009740 <_write_r>:
 8009740:	b538      	push	{r3, r4, r5, lr}
 8009742:	4c07      	ldr	r4, [pc, #28]	; (8009760 <_write_r+0x20>)
 8009744:	4605      	mov	r5, r0
 8009746:	4608      	mov	r0, r1
 8009748:	4611      	mov	r1, r2
 800974a:	2200      	movs	r2, #0
 800974c:	6022      	str	r2, [r4, #0]
 800974e:	461a      	mov	r2, r3
 8009750:	f7fe f8cc 	bl	80078ec <_write>
 8009754:	1c43      	adds	r3, r0, #1
 8009756:	d102      	bne.n	800975e <_write_r+0x1e>
 8009758:	6823      	ldr	r3, [r4, #0]
 800975a:	b103      	cbz	r3, 800975e <_write_r+0x1e>
 800975c:	602b      	str	r3, [r5, #0]
 800975e:	bd38      	pop	{r3, r4, r5, pc}
 8009760:	20004468 	.word	0x20004468

08009764 <__swsetup_r>:
 8009764:	4b32      	ldr	r3, [pc, #200]	; (8009830 <__swsetup_r+0xcc>)
 8009766:	b570      	push	{r4, r5, r6, lr}
 8009768:	681d      	ldr	r5, [r3, #0]
 800976a:	4606      	mov	r6, r0
 800976c:	460c      	mov	r4, r1
 800976e:	b125      	cbz	r5, 800977a <__swsetup_r+0x16>
 8009770:	69ab      	ldr	r3, [r5, #24]
 8009772:	b913      	cbnz	r3, 800977a <__swsetup_r+0x16>
 8009774:	4628      	mov	r0, r5
 8009776:	f7fe fa79 	bl	8007c6c <__sinit>
 800977a:	4b2e      	ldr	r3, [pc, #184]	; (8009834 <__swsetup_r+0xd0>)
 800977c:	429c      	cmp	r4, r3
 800977e:	d10f      	bne.n	80097a0 <__swsetup_r+0x3c>
 8009780:	686c      	ldr	r4, [r5, #4]
 8009782:	f9b4 300c 	ldrsh.w	r3, [r4, #12]
 8009786:	b29a      	uxth	r2, r3
 8009788:	0715      	lsls	r5, r2, #28
 800978a:	d42c      	bmi.n	80097e6 <__swsetup_r+0x82>
 800978c:	06d0      	lsls	r0, r2, #27
 800978e:	d411      	bmi.n	80097b4 <__swsetup_r+0x50>
 8009790:	2209      	movs	r2, #9
 8009792:	6032      	str	r2, [r6, #0]
 8009794:	f043 0340 	orr.w	r3, r3, #64	; 0x40
 8009798:	81a3      	strh	r3, [r4, #12]
 800979a:	f04f 30ff 	mov.w	r0, #4294967295
 800979e:	bd70      	pop	{r4, r5, r6, pc}
 80097a0:	4b25      	ldr	r3, [pc, #148]	; (8009838 <__swsetup_r+0xd4>)
 80097a2:	429c      	cmp	r4, r3
 80097a4:	d101      	bne.n	80097aa <__swsetup_r+0x46>
 80097a6:	68ac      	ldr	r4, [r5, #8]
 80097a8:	e7eb      	b.n	8009782 <__swsetup_r+0x1e>
 80097aa:	4b24      	ldr	r3, [pc, #144]	; (800983c <__swsetup_r+0xd8>)
 80097ac:	429c      	cmp	r4, r3
 80097ae:	bf08      	it	eq
 80097b0:	68ec      	ldreq	r4, [r5, #12]
 80097b2:	e7e6      	b.n	8009782 <__swsetup_r+0x1e>
 80097b4:	0751      	lsls	r1, r2, #29
 80097b6:	d512      	bpl.n	80097de <__swsetup_r+0x7a>
 80097b8:	6b61      	ldr	r1, [r4, #52]	; 0x34
 80097ba:	b141      	cbz	r1, 80097ce <__swsetup_r+0x6a>
 80097bc:	f104 0344 	add.w	r3, r4, #68	; 0x44
 80097c0:	4299      	cmp	r1, r3
 80097c2:	d002      	beq.n	80097ca <__swsetup_r+0x66>
 80097c4:	4630      	mov	r0, r6
 80097c6:	f7fe fb27 	bl	8007e18 <_free_r>
 80097ca:	2300      	movs	r3, #0
 80097cc:	6363      	str	r3, [r4, #52]	; 0x34
 80097ce:	89a3      	ldrh	r3, [r4, #12]
 80097d0:	f023 0324 	bic.w	r3, r3, #36	; 0x24
 80097d4:	81a3      	strh	r3, [r4, #12]
 80097d6:	2300      	movs	r3, #0
 80097d8:	6063      	str	r3, [r4, #4]
 80097da:	6923      	ldr	r3, [r4, #16]
 80097dc:	6023      	str	r3, [r4, #0]
 80097de:	89a3      	ldrh	r3, [r4, #12]
 80097e0:	f043 0308 	orr.w	r3, r3, #8
 80097e4:	81a3      	strh	r3, [r4, #12]
 80097e6:	6923      	ldr	r3, [r4, #16]
 80097e8:	b94b      	cbnz	r3, 80097fe <__swsetup_r+0x9a>
 80097ea:	89a3      	ldrh	r3, [r4, #12]
 80097ec:	f403 7320 	and.w	r3, r3, #640	; 0x280
 80097f0:	f5b3 7f00 	cmp.w	r3, #512	; 0x200
 80097f4:	d003      	beq.n	80097fe <__swsetup_r+0x9a>
 80097f6:	4621      	mov	r1, r4
 80097f8:	4630      	mov	r0, r6
 80097fa:	f001 f891 	bl	800a920 <__smakebuf_r>
 80097fe:	89a2      	ldrh	r2, [r4, #12]
 8009800:	f012 0301 	ands.w	r3, r2, #1
 8009804:	d00c      	beq.n	8009820 <__swsetup_r+0xbc>
 8009806:	2300      	movs	r3, #0
 8009808:	60a3      	str	r3, [r4, #8]
 800980a:	6963      	ldr	r3, [r4, #20]
 800980c:	425b      	negs	r3, r3
 800980e:	61a3      	str	r3, [r4, #24]
 8009810:	6923      	ldr	r3, [r4, #16]
 8009812:	b953      	cbnz	r3, 800982a <__swsetup_r+0xc6>
 8009814:	f9b4 300c 	ldrsh.w	r3, [r4, #12]
 8009818:	f013 0080 	ands.w	r0, r3, #128	; 0x80
 800981c:	d1ba      	bne.n	8009794 <__swsetup_r+0x30>
 800981e:	bd70      	pop	{r4, r5, r6, pc}
 8009820:	0792      	lsls	r2, r2, #30
 8009822:	bf58      	it	pl
 8009824:	6963      	ldrpl	r3, [r4, #20]
 8009826:	60a3      	str	r3, [r4, #8]
 8009828:	e7f2      	b.n	8009810 <__swsetup_r+0xac>
 800982a:	2000      	movs	r0, #0
 800982c:	e7f7      	b.n	800981e <__swsetup_r+0xba>
 800982e:	bf00      	nop
 8009830:	20000020 	.word	0x20000020
 8009834:	0800bc34 	.word	0x0800bc34
 8009838:	0800bc54 	.word	0x0800bc54
 800983c:	0800bc14 	.word	0x0800bc14

08009840 <_close_r>:
 8009840:	b538      	push	{r3, r4, r5, lr}
 8009842:	4c06      	ldr	r4, [pc, #24]	; (800985c <_close_r+0x1c>)
 8009844:	2300      	movs	r3, #0
 8009846:	4605      	mov	r5, r0
 8009848:	4608      	mov	r0, r1
 800984a:	6023      	str	r3, [r4, #0]
 800984c:	f7fe f876 	bl	800793c <_close>
 8009850:	1c43      	adds	r3, r0, #1
 8009852:	d102      	bne.n	800985a <_close_r+0x1a>
 8009854:	6823      	ldr	r3, [r4, #0]
 8009856:	b103      	cbz	r3, 800985a <_close_r+0x1a>
 8009858:	602b      	str	r3, [r5, #0]
 800985a:	bd38      	pop	{r3, r4, r5, pc}
 800985c:	20004468 	.word	0x20004468

08009860 <quorem>:
 8009860:	e92d 4ff7 	stmdb	sp!, {r0, r1, r2, r4, r5, r6, r7, r8, r9, sl, fp, lr}
 8009864:	6903      	ldr	r3, [r0, #16]
 8009866:	690c      	ldr	r4, [r1, #16]
 8009868:	429c      	cmp	r4, r3
 800986a:	4680      	mov	r8, r0
 800986c:	f300 8082 	bgt.w	8009974 <quorem+0x114>
 8009870:	3c01      	subs	r4, #1
 8009872:	f101 0714 	add.w	r7, r1, #20
 8009876:	ea4f 0e84 	mov.w	lr, r4, lsl #2
 800987a:	f100 0614 	add.w	r6, r0, #20
 800987e:	f857 5024 	ldr.w	r5, [r7, r4, lsl #2]
 8009882:	f856 0024 	ldr.w	r0, [r6, r4, lsl #2]
 8009886:	eb06 030e 	add.w	r3, r6, lr
 800988a:	3501      	adds	r5, #1
 800988c:	eb07 090e 	add.w	r9, r7, lr
 8009890:	9301      	str	r3, [sp, #4]
 8009892:	fbb0 f5f5 	udiv	r5, r0, r5
 8009896:	b395      	cbz	r5, 80098fe <quorem+0x9e>
 8009898:	f04f 0a00 	mov.w	sl, #0
 800989c:	4638      	mov	r0, r7
 800989e:	46b4      	mov	ip, r6
 80098a0:	46d3      	mov	fp, sl
 80098a2:	f850 2b04 	ldr.w	r2, [r0], #4
 80098a6:	b293      	uxth	r3, r2
 80098a8:	fb05 a303 	mla	r3, r5, r3, sl
 80098ac:	ea4f 4a13 	mov.w	sl, r3, lsr #16
 80098b0:	b29b      	uxth	r3, r3
 80098b2:	ebab 0303 	sub.w	r3, fp, r3
 80098b6:	0c12      	lsrs	r2, r2, #16
 80098b8:	f8bc b000 	ldrh.w	fp, [ip]
 80098bc:	fb05 a202 	mla	r2, r5, r2, sl
 80098c0:	fa13 f38b 	uxtah	r3, r3, fp
 80098c4:	ea4f 4a12 	mov.w	sl, r2, lsr #16
 80098c8:	fa1f fb82 	uxth.w	fp, r2
 80098cc:	f8dc 2000 	ldr.w	r2, [ip]
 80098d0:	ebcb 4212 	rsb	r2, fp, r2, lsr #16
 80098d4:	eb02 4223 	add.w	r2, r2, r3, asr #16
 80098d8:	b29b      	uxth	r3, r3
 80098da:	ea43 4302 	orr.w	r3, r3, r2, lsl #16
 80098de:	4581      	cmp	r9, r0
 80098e0:	ea4f 4b22 	mov.w	fp, r2, asr #16
 80098e4:	f84c 3b04 	str.w	r3, [ip], #4
 80098e8:	d2db      	bcs.n	80098a2 <quorem+0x42>
 80098ea:	f856 300e 	ldr.w	r3, [r6, lr]
 80098ee:	b933      	cbnz	r3, 80098fe <quorem+0x9e>
 80098f0:	9b01      	ldr	r3, [sp, #4]
 80098f2:	3b04      	subs	r3, #4
 80098f4:	429e      	cmp	r6, r3
 80098f6:	461a      	mov	r2, r3
 80098f8:	d330      	bcc.n	800995c <quorem+0xfc>
 80098fa:	f8c8 4010 	str.w	r4, [r8, #16]
 80098fe:	4640      	mov	r0, r8
 8009900:	f001 fa79 	bl	800adf6 <__mcmp>
 8009904:	2800      	cmp	r0, #0
 8009906:	db25      	blt.n	8009954 <quorem+0xf4>
 8009908:	3501      	adds	r5, #1
 800990a:	4630      	mov	r0, r6
 800990c:	f04f 0e00 	mov.w	lr, #0
 8009910:	f857 2b04 	ldr.w	r2, [r7], #4
 8009914:	f8d0 c000 	ldr.w	ip, [r0]
 8009918:	b293      	uxth	r3, r2
 800991a:	ebae 0303 	sub.w	r3, lr, r3
 800991e:	0c12      	lsrs	r2, r2, #16
 8009920:	fa13 f38c 	uxtah	r3, r3, ip
 8009924:	ebc2 421c 	rsb	r2, r2, ip, lsr #16
 8009928:	eb02 4223 	add.w	r2, r2, r3, asr #16
 800992c:	b29b      	uxth	r3, r3
 800992e:	ea43 4302 	orr.w	r3, r3, r2, lsl #16
 8009932:	45b9      	cmp	r9, r7
 8009934:	ea4f 4e22 	mov.w	lr, r2, asr #16
 8009938:	f840 3b04 	str.w	r3, [r0], #4
 800993c:	d2e8      	bcs.n	8009910 <quorem+0xb0>
 800993e:	f856 2024 	ldr.w	r2, [r6, r4, lsl #2]
 8009942:	eb06 0384 	add.w	r3, r6, r4, lsl #2
 8009946:	b92a      	cbnz	r2, 8009954 <quorem+0xf4>
 8009948:	3b04      	subs	r3, #4
 800994a:	429e      	cmp	r6, r3
 800994c:	461a      	mov	r2, r3
 800994e:	d30b      	bcc.n	8009968 <quorem+0x108>
 8009950:	f8c8 4010 	str.w	r4, [r8, #16]
 8009954:	4628      	mov	r0, r5
 8009956:	b003      	add	sp, #12
 8009958:	e8bd 8ff0 	ldmia.w	sp!, {r4, r5, r6, r7, r8, r9, sl, fp, pc}
 800995c:	6812      	ldr	r2, [r2, #0]
 800995e:	3b04      	subs	r3, #4
 8009960:	2a00      	cmp	r2, #0
 8009962:	d1ca      	bne.n	80098fa <quorem+0x9a>
 8009964:	3c01      	subs	r4, #1
 8009966:	e7c5      	b.n	80098f4 <quorem+0x94>
 8009968:	6812      	ldr	r2, [r2, #0]
 800996a:	3b04      	subs	r3, #4
 800996c:	2a00      	cmp	r2, #0
 800996e:	d1ef      	bne.n	8009950 <quorem+0xf0>
 8009970:	3c01      	subs	r4, #1
 8009972:	e7ea      	b.n	800994a <quorem+0xea>
 8009974:	2000      	movs	r0, #0
 8009976:	e7ee      	b.n	8009956 <quorem+0xf6>

08009978 <_dtoa_r>:
 8009978:	e92d 4ff0 	stmdb	sp!, {r4, r5, r6, r7, r8, r9, sl, fp, lr}
 800997c:	ec57 6b10 	vmov	r6, r7, d0
 8009980:	b097      	sub	sp, #92	; 0x5c
 8009982:	e9cd 6700 	strd	r6, r7, [sp]
 8009986:	6a46      	ldr	r6, [r0, #36]	; 0x24
 8009988:	9107      	str	r1, [sp, #28]
 800998a:	4604      	mov	r4, r0
 800998c:	920a      	str	r2, [sp, #40]	; 0x28
 800998e:	930f      	str	r3, [sp, #60]	; 0x3c
 8009990:	9d20      	ldr	r5, [sp, #128]	; 0x80
 8009992:	b93e      	cbnz	r6, 80099a4 <_dtoa_r+0x2c>
 8009994:	2010      	movs	r0, #16
 8009996:	f001 f803 	bl	800a9a0 <malloc>
 800999a:	6260      	str	r0, [r4, #36]	; 0x24
 800999c:	6046      	str	r6, [r0, #4]
 800999e:	6086      	str	r6, [r0, #8]
 80099a0:	6006      	str	r6, [r0, #0]
 80099a2:	60c6      	str	r6, [r0, #12]
 80099a4:	6a63      	ldr	r3, [r4, #36]	; 0x24
 80099a6:	6819      	ldr	r1, [r3, #0]
 80099a8:	b151      	cbz	r1, 80099c0 <_dtoa_r+0x48>
 80099aa:	685a      	ldr	r2, [r3, #4]
 80099ac:	604a      	str	r2, [r1, #4]
 80099ae:	2301      	movs	r3, #1
 80099b0:	4093      	lsls	r3, r2
 80099b2:	608b      	str	r3, [r1, #8]
 80099b4:	4620      	mov	r0, r4
 80099b6:	f001 f849 	bl	800aa4c <_Bfree>
 80099ba:	6a63      	ldr	r3, [r4, #36]	; 0x24
 80099bc:	2200      	movs	r2, #0
 80099be:	601a      	str	r2, [r3, #0]
 80099c0:	9b01      	ldr	r3, [sp, #4]
 80099c2:	2b00      	cmp	r3, #0
 80099c4:	bfbf      	itttt	lt
 80099c6:	2301      	movlt	r3, #1
 80099c8:	602b      	strlt	r3, [r5, #0]
 80099ca:	9b01      	ldrlt	r3, [sp, #4]
 80099cc:	f023 4300 	biclt.w	r3, r3, #2147483648	; 0x80000000
 80099d0:	bfb2      	itee	lt
 80099d2:	9301      	strlt	r3, [sp, #4]
 80099d4:	2300      	movge	r3, #0
 80099d6:	602b      	strge	r3, [r5, #0]
 80099d8:	f8dd 8004 	ldr.w	r8, [sp, #4]
 80099dc:	4ba8      	ldr	r3, [pc, #672]	; (8009c80 <_dtoa_r+0x308>)
 80099de:	ea33 0308 	bics.w	r3, r3, r8
 80099e2:	d11b      	bne.n	8009a1c <_dtoa_r+0xa4>
 80099e4:	9a0f      	ldr	r2, [sp, #60]	; 0x3c
 80099e6:	f242 730f 	movw	r3, #9999	; 0x270f
 80099ea:	6013      	str	r3, [r2, #0]
 80099ec:	9b00      	ldr	r3, [sp, #0]
 80099ee:	b923      	cbnz	r3, 80099fa <_dtoa_r+0x82>
 80099f0:	f3c8 0013 	ubfx	r0, r8, #0, #20
 80099f4:	2800      	cmp	r0, #0
 80099f6:	f000 8578 	beq.w	800a4ea <_dtoa_r+0xb72>
 80099fa:	9b21      	ldr	r3, [sp, #132]	; 0x84
 80099fc:	b953      	cbnz	r3, 8009a14 <_dtoa_r+0x9c>
 80099fe:	4ba1      	ldr	r3, [pc, #644]	; (8009c84 <_dtoa_r+0x30c>)
 8009a00:	e021      	b.n	8009a46 <_dtoa_r+0xce>
 8009a02:	4ba1      	ldr	r3, [pc, #644]	; (8009c88 <_dtoa_r+0x310>)
 8009a04:	9302      	str	r3, [sp, #8]
 8009a06:	3308      	adds	r3, #8
 8009a08:	9a21      	ldr	r2, [sp, #132]	; 0x84
 8009a0a:	6013      	str	r3, [r2, #0]
 8009a0c:	9802      	ldr	r0, [sp, #8]
 8009a0e:	b017      	add	sp, #92	; 0x5c
 8009a10:	e8bd 8ff0 	ldmia.w	sp!, {r4, r5, r6, r7, r8, r9, sl, fp, pc}
 8009a14:	4b9b      	ldr	r3, [pc, #620]	; (8009c84 <_dtoa_r+0x30c>)
 8009a16:	9302      	str	r3, [sp, #8]
 8009a18:	3303      	adds	r3, #3
 8009a1a:	e7f5      	b.n	8009a08 <_dtoa_r+0x90>
 8009a1c:	e9dd 6700 	ldrd	r6, r7, [sp]
 8009a20:	2200      	movs	r2, #0
 8009a22:	2300      	movs	r3, #0
 8009a24:	4630      	mov	r0, r6
 8009a26:	4639      	mov	r1, r7
 8009a28:	f7f7 f85a 	bl	8000ae0 <__aeabi_dcmpeq>
 8009a2c:	4681      	mov	r9, r0
 8009a2e:	b160      	cbz	r0, 8009a4a <_dtoa_r+0xd2>
 8009a30:	9a0f      	ldr	r2, [sp, #60]	; 0x3c
 8009a32:	2301      	movs	r3, #1
 8009a34:	6013      	str	r3, [r2, #0]
 8009a36:	9b21      	ldr	r3, [sp, #132]	; 0x84
 8009a38:	2b00      	cmp	r3, #0
 8009a3a:	f000 8553 	beq.w	800a4e4 <_dtoa_r+0xb6c>
 8009a3e:	4b93      	ldr	r3, [pc, #588]	; (8009c8c <_dtoa_r+0x314>)
 8009a40:	9a21      	ldr	r2, [sp, #132]	; 0x84
 8009a42:	6013      	str	r3, [r2, #0]
 8009a44:	3b01      	subs	r3, #1
 8009a46:	9302      	str	r3, [sp, #8]
 8009a48:	e7e0      	b.n	8009a0c <_dtoa_r+0x94>
 8009a4a:	aa14      	add	r2, sp, #80	; 0x50
 8009a4c:	a915      	add	r1, sp, #84	; 0x54
 8009a4e:	ec47 6b10 	vmov	d0, r6, r7
 8009a52:	4620      	mov	r0, r4
 8009a54:	f001 fa47 	bl	800aee6 <__d2b>
 8009a58:	f3c8 550a 	ubfx	r5, r8, #20, #11
 8009a5c:	4682      	mov	sl, r0
 8009a5e:	2d00      	cmp	r5, #0
 8009a60:	d07e      	beq.n	8009b60 <_dtoa_r+0x1e8>
 8009a62:	f3c7 0313 	ubfx	r3, r7, #0, #20
 8009a66:	f043 517f 	orr.w	r1, r3, #1069547520	; 0x3fc00000
 8009a6a:	4630      	mov	r0, r6
 8009a6c:	f441 1140 	orr.w	r1, r1, #3145728	; 0x300000
 8009a70:	f2a5 35ff 	subw	r5, r5, #1023	; 0x3ff
 8009a74:	f8cd 9048 	str.w	r9, [sp, #72]	; 0x48
 8009a78:	2200      	movs	r2, #0
 8009a7a:	4b85      	ldr	r3, [pc, #532]	; (8009c90 <_dtoa_r+0x318>)
 8009a7c:	f7f6 fc14 	bl	80002a8 <__aeabi_dsub>
 8009a80:	a379      	add	r3, pc, #484	; (adr r3, 8009c68 <_dtoa_r+0x2f0>)
 8009a82:	e9d3 2300 	ldrd	r2, r3, [r3]
 8009a86:	f7f6 fdc3 	bl	8000610 <__aeabi_dmul>
 8009a8a:	a379      	add	r3, pc, #484	; (adr r3, 8009c70 <_dtoa_r+0x2f8>)
 8009a8c:	e9d3 2300 	ldrd	r2, r3, [r3]
 8009a90:	f7f6 fc0c 	bl	80002ac <__adddf3>
 8009a94:	4606      	mov	r6, r0
 8009a96:	4628      	mov	r0, r5
 8009a98:	460f      	mov	r7, r1
 8009a9a:	f7f6 fd53 	bl	8000544 <__aeabi_i2d>
 8009a9e:	a376      	add	r3, pc, #472	; (adr r3, 8009c78 <_dtoa_r+0x300>)
 8009aa0:	e9d3 2300 	ldrd	r2, r3, [r3]
 8009aa4:	f7f6 fdb4 	bl	8000610 <__aeabi_dmul>
 8009aa8:	4602      	mov	r2, r0
 8009aaa:	460b      	mov	r3, r1
 8009aac:	4630      	mov	r0, r6
 8009aae:	4639      	mov	r1, r7
 8009ab0:	f7f6 fbfc 	bl	80002ac <__adddf3>
 8009ab4:	4606      	mov	r6, r0
 8009ab6:	460f      	mov	r7, r1
 8009ab8:	f7f7 f85a 	bl	8000b70 <__aeabi_d2iz>
 8009abc:	2200      	movs	r2, #0
 8009abe:	4683      	mov	fp, r0
 8009ac0:	2300      	movs	r3, #0
 8009ac2:	4630      	mov	r0, r6
 8009ac4:	4639      	mov	r1, r7
 8009ac6:	f7f7 f815 	bl	8000af4 <__aeabi_dcmplt>
 8009aca:	b158      	cbz	r0, 8009ae4 <_dtoa_r+0x16c>
 8009acc:	4658      	mov	r0, fp
 8009ace:	f7f6 fd39 	bl	8000544 <__aeabi_i2d>
 8009ad2:	4602      	mov	r2, r0
 8009ad4:	460b      	mov	r3, r1
 8009ad6:	4630      	mov	r0, r6
 8009ad8:	4639      	mov	r1, r7
 8009ada:	f7f7 f801 	bl	8000ae0 <__aeabi_dcmpeq>
 8009ade:	b908      	cbnz	r0, 8009ae4 <_dtoa_r+0x16c>
 8009ae0:	f10b 3bff 	add.w	fp, fp, #4294967295
 8009ae4:	f1bb 0f16 	cmp.w	fp, #22
 8009ae8:	d859      	bhi.n	8009b9e <_dtoa_r+0x226>
 8009aea:	496a      	ldr	r1, [pc, #424]	; (8009c94 <_dtoa_r+0x31c>)
 8009aec:	eb01 01cb 	add.w	r1, r1, fp, lsl #3
 8009af0:	e9dd 2300 	ldrd	r2, r3, [sp]
 8009af4:	e9d1 0100 	ldrd	r0, r1, [r1]
 8009af8:	f7f7 f81a 	bl	8000b30 <__aeabi_dcmpgt>
 8009afc:	2800      	cmp	r0, #0
 8009afe:	d050      	beq.n	8009ba2 <_dtoa_r+0x22a>
 8009b00:	f10b 3bff 	add.w	fp, fp, #4294967295
 8009b04:	2300      	movs	r3, #0
 8009b06:	930e      	str	r3, [sp, #56]	; 0x38
 8009b08:	9b14      	ldr	r3, [sp, #80]	; 0x50
 8009b0a:	1b5d      	subs	r5, r3, r5
 8009b0c:	1e6b      	subs	r3, r5, #1
 8009b0e:	9306      	str	r3, [sp, #24]
 8009b10:	bf45      	ittet	mi
 8009b12:	f1c5 0301 	rsbmi	r3, r5, #1
 8009b16:	9305      	strmi	r3, [sp, #20]
 8009b18:	2300      	movpl	r3, #0
 8009b1a:	2300      	movmi	r3, #0
 8009b1c:	bf4c      	ite	mi
 8009b1e:	9306      	strmi	r3, [sp, #24]
 8009b20:	9305      	strpl	r3, [sp, #20]
 8009b22:	f1bb 0f00 	cmp.w	fp, #0
 8009b26:	db3e      	blt.n	8009ba6 <_dtoa_r+0x22e>
 8009b28:	9b06      	ldr	r3, [sp, #24]
 8009b2a:	f8cd b02c 	str.w	fp, [sp, #44]	; 0x2c
 8009b2e:	445b      	add	r3, fp
 8009b30:	9306      	str	r3, [sp, #24]
 8009b32:	2300      	movs	r3, #0
 8009b34:	9308      	str	r3, [sp, #32]
 8009b36:	9b07      	ldr	r3, [sp, #28]
 8009b38:	2b09      	cmp	r3, #9
 8009b3a:	f200 80af 	bhi.w	8009c9c <_dtoa_r+0x324>
 8009b3e:	2b05      	cmp	r3, #5
 8009b40:	bfc4      	itt	gt
 8009b42:	3b04      	subgt	r3, #4
 8009b44:	9307      	strgt	r3, [sp, #28]
 8009b46:	9b07      	ldr	r3, [sp, #28]
 8009b48:	f1a3 0302 	sub.w	r3, r3, #2
 8009b4c:	bfcc      	ite	gt
 8009b4e:	2600      	movgt	r6, #0
 8009b50:	2601      	movle	r6, #1
 8009b52:	2b03      	cmp	r3, #3
 8009b54:	f200 80ae 	bhi.w	8009cb4 <_dtoa_r+0x33c>
 8009b58:	e8df f003 	tbb	[pc, r3]
 8009b5c:	772f8482 	.word	0x772f8482
 8009b60:	9b15      	ldr	r3, [sp, #84]	; 0x54
 8009b62:	9d14      	ldr	r5, [sp, #80]	; 0x50
 8009b64:	441d      	add	r5, r3
 8009b66:	f205 4332 	addw	r3, r5, #1074	; 0x432
 8009b6a:	2b20      	cmp	r3, #32
 8009b6c:	dd11      	ble.n	8009b92 <_dtoa_r+0x21a>
 8009b6e:	9a00      	ldr	r2, [sp, #0]
 8009b70:	f205 4012 	addw	r0, r5, #1042	; 0x412
 8009b74:	f1c3 0340 	rsb	r3, r3, #64	; 0x40
 8009b78:	fa22 f000 	lsr.w	r0, r2, r0
 8009b7c:	fa08 f303 	lsl.w	r3, r8, r3
 8009b80:	4318      	orrs	r0, r3
 8009b82:	f7f6 fccf 	bl	8000524 <__aeabi_ui2d>
 8009b86:	2301      	movs	r3, #1
 8009b88:	f1a1 71f8 	sub.w	r1, r1, #32505856	; 0x1f00000
 8009b8c:	3d01      	subs	r5, #1
 8009b8e:	9312      	str	r3, [sp, #72]	; 0x48
 8009b90:	e772      	b.n	8009a78 <_dtoa_r+0x100>
 8009b92:	f1c3 0020 	rsb	r0, r3, #32
 8009b96:	9b00      	ldr	r3, [sp, #0]
 8009b98:	fa03 f000 	lsl.w	r0, r3, r0
 8009b9c:	e7f1      	b.n	8009b82 <_dtoa_r+0x20a>
 8009b9e:	2301      	movs	r3, #1
 8009ba0:	e7b1      	b.n	8009b06 <_dtoa_r+0x18e>
 8009ba2:	900e      	str	r0, [sp, #56]	; 0x38
 8009ba4:	e7b0      	b.n	8009b08 <_dtoa_r+0x190>
 8009ba6:	9b05      	ldr	r3, [sp, #20]
 8009ba8:	eba3 030b 	sub.w	r3, r3, fp
 8009bac:	9305      	str	r3, [sp, #20]
 8009bae:	f1cb 0300 	rsb	r3, fp, #0
 8009bb2:	9308      	str	r3, [sp, #32]
 8009bb4:	2300      	movs	r3, #0
 8009bb6:	930b      	str	r3, [sp, #44]	; 0x2c
 8009bb8:	e7bd      	b.n	8009b36 <_dtoa_r+0x1be>
 8009bba:	2301      	movs	r3, #1
 8009bbc:	9309      	str	r3, [sp, #36]	; 0x24
 8009bbe:	9b0a      	ldr	r3, [sp, #40]	; 0x28
 8009bc0:	2b00      	cmp	r3, #0
 8009bc2:	dd7a      	ble.n	8009cba <_dtoa_r+0x342>
 8009bc4:	9304      	str	r3, [sp, #16]
 8009bc6:	9303      	str	r3, [sp, #12]
 8009bc8:	6a65      	ldr	r5, [r4, #36]	; 0x24
 8009bca:	2200      	movs	r2, #0
 8009bcc:	606a      	str	r2, [r5, #4]
 8009bce:	2104      	movs	r1, #4
 8009bd0:	f101 0214 	add.w	r2, r1, #20
 8009bd4:	429a      	cmp	r2, r3
 8009bd6:	d975      	bls.n	8009cc4 <_dtoa_r+0x34c>
 8009bd8:	6869      	ldr	r1, [r5, #4]
 8009bda:	4620      	mov	r0, r4
 8009bdc:	f000 ff02 	bl	800a9e4 <_Balloc>
 8009be0:	6a63      	ldr	r3, [r4, #36]	; 0x24
 8009be2:	6028      	str	r0, [r5, #0]
 8009be4:	681b      	ldr	r3, [r3, #0]
 8009be6:	9302      	str	r3, [sp, #8]
 8009be8:	9b03      	ldr	r3, [sp, #12]
 8009bea:	2b0e      	cmp	r3, #14
 8009bec:	f200 80e5 	bhi.w	8009dba <_dtoa_r+0x442>
 8009bf0:	2e00      	cmp	r6, #0
 8009bf2:	f000 80e2 	beq.w	8009dba <_dtoa_r+0x442>
 8009bf6:	ed9d 7b00 	vldr	d7, [sp]
 8009bfa:	f1bb 0f00 	cmp.w	fp, #0
 8009bfe:	ed8d 7b0c 	vstr	d7, [sp, #48]	; 0x30
 8009c02:	dd74      	ble.n	8009cee <_dtoa_r+0x376>
 8009c04:	4a23      	ldr	r2, [pc, #140]	; (8009c94 <_dtoa_r+0x31c>)
 8009c06:	f00b 030f 	and.w	r3, fp, #15
 8009c0a:	ea4f 162b 	mov.w	r6, fp, asr #4
 8009c0e:	eb02 03c3 	add.w	r3, r2, r3, lsl #3
 8009c12:	06f0      	lsls	r0, r6, #27
 8009c14:	e9d3 8900 	ldrd	r8, r9, [r3]
 8009c18:	d559      	bpl.n	8009cce <_dtoa_r+0x356>
 8009c1a:	4b1f      	ldr	r3, [pc, #124]	; (8009c98 <_dtoa_r+0x320>)
 8009c1c:	ec51 0b17 	vmov	r0, r1, d7
 8009c20:	e9d3 2308 	ldrd	r2, r3, [r3, #32]
 8009c24:	f7f6 fe1e 	bl	8000864 <__aeabi_ddiv>
 8009c28:	e9cd 0100 	strd	r0, r1, [sp]
 8009c2c:	f006 060f 	and.w	r6, r6, #15
 8009c30:	2503      	movs	r5, #3
 8009c32:	4f19      	ldr	r7, [pc, #100]	; (8009c98 <_dtoa_r+0x320>)
 8009c34:	2e00      	cmp	r6, #0
 8009c36:	d14c      	bne.n	8009cd2 <_dtoa_r+0x35a>
 8009c38:	4642      	mov	r2, r8
 8009c3a:	464b      	mov	r3, r9
 8009c3c:	e9dd 0100 	ldrd	r0, r1, [sp]
 8009c40:	f7f6 fe10 	bl	8000864 <__aeabi_ddiv>
 8009c44:	e9cd 0100 	strd	r0, r1, [sp]
 8009c48:	e06a      	b.n	8009d20 <_dtoa_r+0x3a8>
 8009c4a:	2301      	movs	r3, #1
 8009c4c:	9309      	str	r3, [sp, #36]	; 0x24
 8009c4e:	9b0a      	ldr	r3, [sp, #40]	; 0x28
 8009c50:	445b      	add	r3, fp
 8009c52:	9304      	str	r3, [sp, #16]
 8009c54:	3301      	adds	r3, #1
 8009c56:	2b01      	cmp	r3, #1
 8009c58:	9303      	str	r3, [sp, #12]
 8009c5a:	bfb8      	it	lt
 8009c5c:	2301      	movlt	r3, #1
 8009c5e:	e7b3      	b.n	8009bc8 <_dtoa_r+0x250>
 8009c60:	2300      	movs	r3, #0
 8009c62:	e7ab      	b.n	8009bbc <_dtoa_r+0x244>
 8009c64:	2300      	movs	r3, #0
 8009c66:	e7f1      	b.n	8009c4c <_dtoa_r+0x2d4>
 8009c68:	636f4361 	.word	0x636f4361
 8009c6c:	3fd287a7 	.word	0x3fd287a7
 8009c70:	8b60c8b3 	.word	0x8b60c8b3
 8009c74:	3fc68a28 	.word	0x3fc68a28
 8009c78:	509f79fb 	.word	0x509f79fb
 8009c7c:	3fd34413 	.word	0x3fd34413
 8009c80:	7ff00000 	.word	0x7ff00000
 8009c84:	0800bcd5 	.word	0x0800bcd5
 8009c88:	0800bccc 	.word	0x0800bccc
 8009c8c:	0800bcab 	.word	0x0800bcab
 8009c90:	3ff80000 	.word	0x3ff80000
 8009c94:	0800bd08 	.word	0x0800bd08
 8009c98:	0800bce0 	.word	0x0800bce0
 8009c9c:	2601      	movs	r6, #1
 8009c9e:	2300      	movs	r3, #0
 8009ca0:	9307      	str	r3, [sp, #28]
 8009ca2:	9609      	str	r6, [sp, #36]	; 0x24
 8009ca4:	f04f 33ff 	mov.w	r3, #4294967295
 8009ca8:	9304      	str	r3, [sp, #16]
 8009caa:	9303      	str	r3, [sp, #12]
 8009cac:	2200      	movs	r2, #0
 8009cae:	2312      	movs	r3, #18
 8009cb0:	920a      	str	r2, [sp, #40]	; 0x28
 8009cb2:	e789      	b.n	8009bc8 <_dtoa_r+0x250>
 8009cb4:	2301      	movs	r3, #1
 8009cb6:	9309      	str	r3, [sp, #36]	; 0x24
 8009cb8:	e7f4      	b.n	8009ca4 <_dtoa_r+0x32c>
 8009cba:	2301      	movs	r3, #1
 8009cbc:	9304      	str	r3, [sp, #16]
 8009cbe:	9303      	str	r3, [sp, #12]
 8009cc0:	461a      	mov	r2, r3
 8009cc2:	e7f5      	b.n	8009cb0 <_dtoa_r+0x338>
 8009cc4:	686a      	ldr	r2, [r5, #4]
 8009cc6:	3201      	adds	r2, #1
 8009cc8:	606a      	str	r2, [r5, #4]
 8009cca:	0049      	lsls	r1, r1, #1
 8009ccc:	e780      	b.n	8009bd0 <_dtoa_r+0x258>
 8009cce:	2502      	movs	r5, #2
 8009cd0:	e7af      	b.n	8009c32 <_dtoa_r+0x2ba>
 8009cd2:	07f1      	lsls	r1, r6, #31
 8009cd4:	d508      	bpl.n	8009ce8 <_dtoa_r+0x370>
 8009cd6:	4640      	mov	r0, r8
 8009cd8:	4649      	mov	r1, r9
 8009cda:	e9d7 2300 	ldrd	r2, r3, [r7]
 8009cde:	f7f6 fc97 	bl	8000610 <__aeabi_dmul>
 8009ce2:	3501      	adds	r5, #1
 8009ce4:	4680      	mov	r8, r0
 8009ce6:	4689      	mov	r9, r1
 8009ce8:	1076      	asrs	r6, r6, #1
 8009cea:	3708      	adds	r7, #8
 8009cec:	e7a2      	b.n	8009c34 <_dtoa_r+0x2bc>
 8009cee:	f000 809d 	beq.w	8009e2c <_dtoa_r+0x4b4>
 8009cf2:	f1cb 0600 	rsb	r6, fp, #0
 8009cf6:	4b9f      	ldr	r3, [pc, #636]	; (8009f74 <_dtoa_r+0x5fc>)
 8009cf8:	4f9f      	ldr	r7, [pc, #636]	; (8009f78 <_dtoa_r+0x600>)
 8009cfa:	f006 020f 	and.w	r2, r6, #15
 8009cfe:	eb03 03c2 	add.w	r3, r3, r2, lsl #3
 8009d02:	e9d3 2300 	ldrd	r2, r3, [r3]
 8009d06:	e9dd 010c 	ldrd	r0, r1, [sp, #48]	; 0x30
 8009d0a:	f7f6 fc81 	bl	8000610 <__aeabi_dmul>
 8009d0e:	e9cd 0100 	strd	r0, r1, [sp]
 8009d12:	1136      	asrs	r6, r6, #4
 8009d14:	2300      	movs	r3, #0
 8009d16:	2502      	movs	r5, #2
 8009d18:	2e00      	cmp	r6, #0
 8009d1a:	d17c      	bne.n	8009e16 <_dtoa_r+0x49e>
 8009d1c:	2b00      	cmp	r3, #0
 8009d1e:	d191      	bne.n	8009c44 <_dtoa_r+0x2cc>
 8009d20:	9b0e      	ldr	r3, [sp, #56]	; 0x38
 8009d22:	2b00      	cmp	r3, #0
 8009d24:	f000 8084 	beq.w	8009e30 <_dtoa_r+0x4b8>
 8009d28:	e9dd 8900 	ldrd	r8, r9, [sp]
 8009d2c:	2200      	movs	r2, #0
 8009d2e:	4b93      	ldr	r3, [pc, #588]	; (8009f7c <_dtoa_r+0x604>)
 8009d30:	4640      	mov	r0, r8
 8009d32:	4649      	mov	r1, r9
 8009d34:	f7f6 fede 	bl	8000af4 <__aeabi_dcmplt>
 8009d38:	2800      	cmp	r0, #0
 8009d3a:	d079      	beq.n	8009e30 <_dtoa_r+0x4b8>
 8009d3c:	9b03      	ldr	r3, [sp, #12]
 8009d3e:	2b00      	cmp	r3, #0
 8009d40:	d076      	beq.n	8009e30 <_dtoa_r+0x4b8>
 8009d42:	9b04      	ldr	r3, [sp, #16]
 8009d44:	2b00      	cmp	r3, #0
 8009d46:	dd34      	ble.n	8009db2 <_dtoa_r+0x43a>
 8009d48:	2200      	movs	r2, #0
 8009d4a:	4b8d      	ldr	r3, [pc, #564]	; (8009f80 <_dtoa_r+0x608>)
 8009d4c:	4640      	mov	r0, r8
 8009d4e:	4649      	mov	r1, r9
 8009d50:	f7f6 fc5e 	bl	8000610 <__aeabi_dmul>
 8009d54:	e9cd 0100 	strd	r0, r1, [sp]
 8009d58:	9e04      	ldr	r6, [sp, #16]
 8009d5a:	f10b 37ff 	add.w	r7, fp, #4294967295
 8009d5e:	3501      	adds	r5, #1
 8009d60:	4628      	mov	r0, r5
 8009d62:	f7f6 fbef 	bl	8000544 <__aeabi_i2d>
 8009d66:	e9dd 2300 	ldrd	r2, r3, [sp]
 8009d6a:	f7f6 fc51 	bl	8000610 <__aeabi_dmul>
 8009d6e:	2200      	movs	r2, #0
 8009d70:	4b84      	ldr	r3, [pc, #528]	; (8009f84 <_dtoa_r+0x60c>)
 8009d72:	f7f6 fa9b 	bl	80002ac <__adddf3>
 8009d76:	4680      	mov	r8, r0
 8009d78:	f1a1 7950 	sub.w	r9, r1, #54525952	; 0x3400000
 8009d7c:	2e00      	cmp	r6, #0
 8009d7e:	d15a      	bne.n	8009e36 <_dtoa_r+0x4be>
 8009d80:	2200      	movs	r2, #0
 8009d82:	4b81      	ldr	r3, [pc, #516]	; (8009f88 <_dtoa_r+0x610>)
 8009d84:	e9dd 0100 	ldrd	r0, r1, [sp]
 8009d88:	f7f6 fa8e 	bl	80002a8 <__aeabi_dsub>
 8009d8c:	4642      	mov	r2, r8
 8009d8e:	464b      	mov	r3, r9
 8009d90:	e9cd 0100 	strd	r0, r1, [sp]
 8009d94:	f7f6 fecc 	bl	8000b30 <__aeabi_dcmpgt>
 8009d98:	2800      	cmp	r0, #0
 8009d9a:	f040 829b 	bne.w	800a2d4 <_dtoa_r+0x95c>
 8009d9e:	4642      	mov	r2, r8
 8009da0:	f109 4300 	add.w	r3, r9, #2147483648	; 0x80000000
 8009da4:	e9dd 0100 	ldrd	r0, r1, [sp]
 8009da8:	f7f6 fea4 	bl	8000af4 <__aeabi_dcmplt>
 8009dac:	2800      	cmp	r0, #0
 8009dae:	f040 828f 	bne.w	800a2d0 <_dtoa_r+0x958>
 8009db2:	e9dd 230c 	ldrd	r2, r3, [sp, #48]	; 0x30
 8009db6:	e9cd 2300 	strd	r2, r3, [sp]
 8009dba:	9b15      	ldr	r3, [sp, #84]	; 0x54
 8009dbc:	2b00      	cmp	r3, #0
 8009dbe:	f2c0 8150 	blt.w	800a062 <_dtoa_r+0x6ea>
 8009dc2:	f1bb 0f0e 	cmp.w	fp, #14
 8009dc6:	f300 814c 	bgt.w	800a062 <_dtoa_r+0x6ea>
 8009dca:	4b6a      	ldr	r3, [pc, #424]	; (8009f74 <_dtoa_r+0x5fc>)
 8009dcc:	eb03 03cb 	add.w	r3, r3, fp, lsl #3
 8009dd0:	e9d3 8900 	ldrd	r8, r9, [r3]
 8009dd4:	9b0a      	ldr	r3, [sp, #40]	; 0x28
 8009dd6:	2b00      	cmp	r3, #0
 8009dd8:	f280 80da 	bge.w	8009f90 <_dtoa_r+0x618>
 8009ddc:	9b03      	ldr	r3, [sp, #12]
 8009dde:	2b00      	cmp	r3, #0
 8009de0:	f300 80d6 	bgt.w	8009f90 <_dtoa_r+0x618>
 8009de4:	f040 8273 	bne.w	800a2ce <_dtoa_r+0x956>
 8009de8:	2200      	movs	r2, #0
 8009dea:	4b67      	ldr	r3, [pc, #412]	; (8009f88 <_dtoa_r+0x610>)
 8009dec:	4640      	mov	r0, r8
 8009dee:	4649      	mov	r1, r9
 8009df0:	f7f6 fc0e 	bl	8000610 <__aeabi_dmul>
 8009df4:	e9dd 2300 	ldrd	r2, r3, [sp]
 8009df8:	f7f6 fe90 	bl	8000b1c <__aeabi_dcmpge>
 8009dfc:	9e03      	ldr	r6, [sp, #12]
 8009dfe:	4637      	mov	r7, r6
 8009e00:	2800      	cmp	r0, #0
 8009e02:	f040 824a 	bne.w	800a29a <_dtoa_r+0x922>
 8009e06:	9b02      	ldr	r3, [sp, #8]
 8009e08:	9a02      	ldr	r2, [sp, #8]
 8009e0a:	1c5d      	adds	r5, r3, #1
 8009e0c:	2331      	movs	r3, #49	; 0x31
 8009e0e:	7013      	strb	r3, [r2, #0]
 8009e10:	f10b 0b01 	add.w	fp, fp, #1
 8009e14:	e245      	b.n	800a2a2 <_dtoa_r+0x92a>
 8009e16:	07f2      	lsls	r2, r6, #31
 8009e18:	d505      	bpl.n	8009e26 <_dtoa_r+0x4ae>
 8009e1a:	e9d7 2300 	ldrd	r2, r3, [r7]
 8009e1e:	f7f6 fbf7 	bl	8000610 <__aeabi_dmul>
 8009e22:	3501      	adds	r5, #1
 8009e24:	2301      	movs	r3, #1
 8009e26:	1076      	asrs	r6, r6, #1
 8009e28:	3708      	adds	r7, #8
 8009e2a:	e775      	b.n	8009d18 <_dtoa_r+0x3a0>
 8009e2c:	2502      	movs	r5, #2
 8009e2e:	e777      	b.n	8009d20 <_dtoa_r+0x3a8>
 8009e30:	465f      	mov	r7, fp
 8009e32:	9e03      	ldr	r6, [sp, #12]
 8009e34:	e794      	b.n	8009d60 <_dtoa_r+0x3e8>
 8009e36:	9a02      	ldr	r2, [sp, #8]
 8009e38:	4b4e      	ldr	r3, [pc, #312]	; (8009f74 <_dtoa_r+0x5fc>)
 8009e3a:	4432      	add	r2, r6
 8009e3c:	9213      	str	r2, [sp, #76]	; 0x4c
 8009e3e:	9a09      	ldr	r2, [sp, #36]	; 0x24
 8009e40:	1e71      	subs	r1, r6, #1
 8009e42:	2a00      	cmp	r2, #0
 8009e44:	d048      	beq.n	8009ed8 <_dtoa_r+0x560>
 8009e46:	eb03 03c1 	add.w	r3, r3, r1, lsl #3
 8009e4a:	e9d3 2300 	ldrd	r2, r3, [r3]
 8009e4e:	2000      	movs	r0, #0
 8009e50:	494e      	ldr	r1, [pc, #312]	; (8009f8c <_dtoa_r+0x614>)
 8009e52:	f7f6 fd07 	bl	8000864 <__aeabi_ddiv>
 8009e56:	4642      	mov	r2, r8
 8009e58:	464b      	mov	r3, r9
 8009e5a:	f7f6 fa25 	bl	80002a8 <__aeabi_dsub>
 8009e5e:	9d02      	ldr	r5, [sp, #8]
 8009e60:	4680      	mov	r8, r0
 8009e62:	4689      	mov	r9, r1
 8009e64:	e9dd 0100 	ldrd	r0, r1, [sp]
 8009e68:	f7f6 fe82 	bl	8000b70 <__aeabi_d2iz>
 8009e6c:	4606      	mov	r6, r0
 8009e6e:	f7f6 fb69 	bl	8000544 <__aeabi_i2d>
 8009e72:	4602      	mov	r2, r0
 8009e74:	460b      	mov	r3, r1
 8009e76:	e9dd 0100 	ldrd	r0, r1, [sp]
 8009e7a:	f7f6 fa15 	bl	80002a8 <__aeabi_dsub>
 8009e7e:	3630      	adds	r6, #48	; 0x30
 8009e80:	f805 6b01 	strb.w	r6, [r5], #1
 8009e84:	4642      	mov	r2, r8
 8009e86:	464b      	mov	r3, r9
 8009e88:	e9cd 0100 	strd	r0, r1, [sp]
 8009e8c:	f7f6 fe32 	bl	8000af4 <__aeabi_dcmplt>
 8009e90:	2800      	cmp	r0, #0
 8009e92:	d165      	bne.n	8009f60 <_dtoa_r+0x5e8>
 8009e94:	e9dd 2300 	ldrd	r2, r3, [sp]
 8009e98:	2000      	movs	r0, #0
 8009e9a:	4938      	ldr	r1, [pc, #224]	; (8009f7c <_dtoa_r+0x604>)
 8009e9c:	f7f6 fa04 	bl	80002a8 <__aeabi_dsub>
 8009ea0:	4642      	mov	r2, r8
 8009ea2:	464b      	mov	r3, r9
 8009ea4:	f7f6 fe26 	bl	8000af4 <__aeabi_dcmplt>
 8009ea8:	2800      	cmp	r0, #0
 8009eaa:	f040 80ba 	bne.w	800a022 <_dtoa_r+0x6aa>
 8009eae:	9b13      	ldr	r3, [sp, #76]	; 0x4c
 8009eb0:	429d      	cmp	r5, r3
 8009eb2:	f43f af7e 	beq.w	8009db2 <_dtoa_r+0x43a>
 8009eb6:	2200      	movs	r2, #0
 8009eb8:	4b31      	ldr	r3, [pc, #196]	; (8009f80 <_dtoa_r+0x608>)
 8009eba:	4640      	mov	r0, r8
 8009ebc:	4649      	mov	r1, r9
 8009ebe:	f7f6 fba7 	bl	8000610 <__aeabi_dmul>
 8009ec2:	2200      	movs	r2, #0
 8009ec4:	4680      	mov	r8, r0
 8009ec6:	4689      	mov	r9, r1
 8009ec8:	4b2d      	ldr	r3, [pc, #180]	; (8009f80 <_dtoa_r+0x608>)
 8009eca:	e9dd 0100 	ldrd	r0, r1, [sp]
 8009ece:	f7f6 fb9f 	bl	8000610 <__aeabi_dmul>
 8009ed2:	e9cd 0100 	strd	r0, r1, [sp]
 8009ed6:	e7c5      	b.n	8009e64 <_dtoa_r+0x4ec>
 8009ed8:	eb03 01c1 	add.w	r1, r3, r1, lsl #3
 8009edc:	4642      	mov	r2, r8
 8009ede:	464b      	mov	r3, r9
 8009ee0:	e9d1 0100 	ldrd	r0, r1, [r1]
 8009ee4:	f7f6 fb94 	bl	8000610 <__aeabi_dmul>
 8009ee8:	e9cd 0110 	strd	r0, r1, [sp, #64]	; 0x40
 8009eec:	9d02      	ldr	r5, [sp, #8]
 8009eee:	e9dd 0100 	ldrd	r0, r1, [sp]
 8009ef2:	f7f6 fe3d 	bl	8000b70 <__aeabi_d2iz>
 8009ef6:	4606      	mov	r6, r0
 8009ef8:	f7f6 fb24 	bl	8000544 <__aeabi_i2d>
 8009efc:	3630      	adds	r6, #48	; 0x30
 8009efe:	4602      	mov	r2, r0
 8009f00:	460b      	mov	r3, r1
 8009f02:	e9dd 0100 	ldrd	r0, r1, [sp]
 8009f06:	f7f6 f9cf 	bl	80002a8 <__aeabi_dsub>
 8009f0a:	f805 6b01 	strb.w	r6, [r5], #1
 8009f0e:	9b13      	ldr	r3, [sp, #76]	; 0x4c
 8009f10:	42ab      	cmp	r3, r5
 8009f12:	4680      	mov	r8, r0
 8009f14:	4689      	mov	r9, r1
 8009f16:	f04f 0200 	mov.w	r2, #0
 8009f1a:	d125      	bne.n	8009f68 <_dtoa_r+0x5f0>
 8009f1c:	4b1b      	ldr	r3, [pc, #108]	; (8009f8c <_dtoa_r+0x614>)
 8009f1e:	e9dd 0110 	ldrd	r0, r1, [sp, #64]	; 0x40
 8009f22:	f7f6 f9c3 	bl	80002ac <__adddf3>
 8009f26:	4602      	mov	r2, r0
 8009f28:	460b      	mov	r3, r1
 8009f2a:	4640      	mov	r0, r8
 8009f2c:	4649      	mov	r1, r9
 8009f2e:	f7f6 fdff 	bl	8000b30 <__aeabi_dcmpgt>
 8009f32:	2800      	cmp	r0, #0
 8009f34:	d175      	bne.n	800a022 <_dtoa_r+0x6aa>
 8009f36:	e9dd 2310 	ldrd	r2, r3, [sp, #64]	; 0x40
 8009f3a:	2000      	movs	r0, #0
 8009f3c:	4913      	ldr	r1, [pc, #76]	; (8009f8c <_dtoa_r+0x614>)
 8009f3e:	f7f6 f9b3 	bl	80002a8 <__aeabi_dsub>
 8009f42:	4602      	mov	r2, r0
 8009f44:	460b      	mov	r3, r1
 8009f46:	4640      	mov	r0, r8
 8009f48:	4649      	mov	r1, r9
 8009f4a:	f7f6 fdd3 	bl	8000af4 <__aeabi_dcmplt>
 8009f4e:	2800      	cmp	r0, #0
 8009f50:	f43f af2f 	beq.w	8009db2 <_dtoa_r+0x43a>
 8009f54:	f815 3c01 	ldrb.w	r3, [r5, #-1]
 8009f58:	2b30      	cmp	r3, #48	; 0x30
 8009f5a:	f105 32ff 	add.w	r2, r5, #4294967295
 8009f5e:	d001      	beq.n	8009f64 <_dtoa_r+0x5ec>
 8009f60:	46bb      	mov	fp, r7
 8009f62:	e04d      	b.n	800a000 <_dtoa_r+0x688>
 8009f64:	4615      	mov	r5, r2
 8009f66:	e7f5      	b.n	8009f54 <_dtoa_r+0x5dc>
 8009f68:	4b05      	ldr	r3, [pc, #20]	; (8009f80 <_dtoa_r+0x608>)
 8009f6a:	f7f6 fb51 	bl	8000610 <__aeabi_dmul>
 8009f6e:	e9cd 0100 	strd	r0, r1, [sp]
 8009f72:	e7bc      	b.n	8009eee <_dtoa_r+0x576>
 8009f74:	0800bd08 	.word	0x0800bd08
 8009f78:	0800bce0 	.word	0x0800bce0
 8009f7c:	3ff00000 	.word	0x3ff00000
 8009f80:	40240000 	.word	0x40240000
 8009f84:	401c0000 	.word	0x401c0000
 8009f88:	40140000 	.word	0x40140000
 8009f8c:	3fe00000 	.word	0x3fe00000
 8009f90:	e9dd 6700 	ldrd	r6, r7, [sp]
 8009f94:	9d02      	ldr	r5, [sp, #8]
 8009f96:	4642      	mov	r2, r8
 8009f98:	464b      	mov	r3, r9
 8009f9a:	4630      	mov	r0, r6
 8009f9c:	4639      	mov	r1, r7
 8009f9e:	f7f6 fc61 	bl	8000864 <__aeabi_ddiv>
 8009fa2:	f7f6 fde5 	bl	8000b70 <__aeabi_d2iz>
 8009fa6:	9000      	str	r0, [sp, #0]
 8009fa8:	f7f6 facc 	bl	8000544 <__aeabi_i2d>
 8009fac:	4642      	mov	r2, r8
 8009fae:	464b      	mov	r3, r9
 8009fb0:	f7f6 fb2e 	bl	8000610 <__aeabi_dmul>
 8009fb4:	4602      	mov	r2, r0
 8009fb6:	460b      	mov	r3, r1
 8009fb8:	4630      	mov	r0, r6
 8009fba:	4639      	mov	r1, r7
 8009fbc:	f7f6 f974 	bl	80002a8 <__aeabi_dsub>
 8009fc0:	9e00      	ldr	r6, [sp, #0]
 8009fc2:	9f03      	ldr	r7, [sp, #12]
 8009fc4:	3630      	adds	r6, #48	; 0x30
 8009fc6:	f805 6b01 	strb.w	r6, [r5], #1
 8009fca:	9e02      	ldr	r6, [sp, #8]
 8009fcc:	1bae      	subs	r6, r5, r6
 8009fce:	42b7      	cmp	r7, r6
 8009fd0:	4602      	mov	r2, r0
 8009fd2:	460b      	mov	r3, r1
 8009fd4:	d138      	bne.n	800a048 <_dtoa_r+0x6d0>
 8009fd6:	f7f6 f969 	bl	80002ac <__adddf3>
 8009fda:	4606      	mov	r6, r0
 8009fdc:	460f      	mov	r7, r1
 8009fde:	4602      	mov	r2, r0
 8009fe0:	460b      	mov	r3, r1
 8009fe2:	4640      	mov	r0, r8
 8009fe4:	4649      	mov	r1, r9
 8009fe6:	f7f6 fd85 	bl	8000af4 <__aeabi_dcmplt>
 8009fea:	b9c8      	cbnz	r0, 800a020 <_dtoa_r+0x6a8>
 8009fec:	4632      	mov	r2, r6
 8009fee:	463b      	mov	r3, r7
 8009ff0:	4640      	mov	r0, r8
 8009ff2:	4649      	mov	r1, r9
 8009ff4:	f7f6 fd74 	bl	8000ae0 <__aeabi_dcmpeq>
 8009ff8:	b110      	cbz	r0, 800a000 <_dtoa_r+0x688>
 8009ffa:	9b00      	ldr	r3, [sp, #0]
 8009ffc:	07db      	lsls	r3, r3, #31
 8009ffe:	d40f      	bmi.n	800a020 <_dtoa_r+0x6a8>
 800a000:	4651      	mov	r1, sl
 800a002:	4620      	mov	r0, r4
 800a004:	f000 fd22 	bl	800aa4c <_Bfree>
 800a008:	2300      	movs	r3, #0
 800a00a:	9a0f      	ldr	r2, [sp, #60]	; 0x3c
 800a00c:	702b      	strb	r3, [r5, #0]
 800a00e:	f10b 0301 	add.w	r3, fp, #1
 800a012:	6013      	str	r3, [r2, #0]
 800a014:	9b21      	ldr	r3, [sp, #132]	; 0x84
 800a016:	2b00      	cmp	r3, #0
 800a018:	f43f acf8 	beq.w	8009a0c <_dtoa_r+0x94>
 800a01c:	601d      	str	r5, [r3, #0]
 800a01e:	e4f5      	b.n	8009a0c <_dtoa_r+0x94>
 800a020:	465f      	mov	r7, fp
 800a022:	f815 2c01 	ldrb.w	r2, [r5, #-1]
 800a026:	2a39      	cmp	r2, #57	; 0x39
 800a028:	f105 33ff 	add.w	r3, r5, #4294967295
 800a02c:	d106      	bne.n	800a03c <_dtoa_r+0x6c4>
 800a02e:	9a02      	ldr	r2, [sp, #8]
 800a030:	429a      	cmp	r2, r3
 800a032:	d107      	bne.n	800a044 <_dtoa_r+0x6cc>
 800a034:	2330      	movs	r3, #48	; 0x30
 800a036:	7013      	strb	r3, [r2, #0]
 800a038:	3701      	adds	r7, #1
 800a03a:	4613      	mov	r3, r2
 800a03c:	781a      	ldrb	r2, [r3, #0]
 800a03e:	3201      	adds	r2, #1
 800a040:	701a      	strb	r2, [r3, #0]
 800a042:	e78d      	b.n	8009f60 <_dtoa_r+0x5e8>
 800a044:	461d      	mov	r5, r3
 800a046:	e7ec      	b.n	800a022 <_dtoa_r+0x6aa>
 800a048:	2200      	movs	r2, #0
 800a04a:	4ba4      	ldr	r3, [pc, #656]	; (800a2dc <_dtoa_r+0x964>)
 800a04c:	f7f6 fae0 	bl	8000610 <__aeabi_dmul>
 800a050:	2200      	movs	r2, #0
 800a052:	2300      	movs	r3, #0
 800a054:	4606      	mov	r6, r0
 800a056:	460f      	mov	r7, r1
 800a058:	f7f6 fd42 	bl	8000ae0 <__aeabi_dcmpeq>
 800a05c:	2800      	cmp	r0, #0
 800a05e:	d09a      	beq.n	8009f96 <_dtoa_r+0x61e>
 800a060:	e7ce      	b.n	800a000 <_dtoa_r+0x688>
 800a062:	9a09      	ldr	r2, [sp, #36]	; 0x24
 800a064:	2a00      	cmp	r2, #0
 800a066:	f000 80cd 	beq.w	800a204 <_dtoa_r+0x88c>
 800a06a:	9a07      	ldr	r2, [sp, #28]
 800a06c:	2a01      	cmp	r2, #1
 800a06e:	f300 80af 	bgt.w	800a1d0 <_dtoa_r+0x858>
 800a072:	9a12      	ldr	r2, [sp, #72]	; 0x48
 800a074:	2a00      	cmp	r2, #0
 800a076:	f000 80a7 	beq.w	800a1c8 <_dtoa_r+0x850>
 800a07a:	f203 4333 	addw	r3, r3, #1075	; 0x433
 800a07e:	9e08      	ldr	r6, [sp, #32]
 800a080:	9d05      	ldr	r5, [sp, #20]
 800a082:	9a05      	ldr	r2, [sp, #20]
 800a084:	441a      	add	r2, r3
 800a086:	9205      	str	r2, [sp, #20]
 800a088:	9a06      	ldr	r2, [sp, #24]
 800a08a:	2101      	movs	r1, #1
 800a08c:	441a      	add	r2, r3
 800a08e:	4620      	mov	r0, r4
 800a090:	9206      	str	r2, [sp, #24]
 800a092:	f000 fd7b 	bl	800ab8c <__i2b>
 800a096:	4607      	mov	r7, r0
 800a098:	2d00      	cmp	r5, #0
 800a09a:	dd0c      	ble.n	800a0b6 <_dtoa_r+0x73e>
 800a09c:	9b06      	ldr	r3, [sp, #24]
 800a09e:	2b00      	cmp	r3, #0
 800a0a0:	dd09      	ble.n	800a0b6 <_dtoa_r+0x73e>
 800a0a2:	42ab      	cmp	r3, r5
 800a0a4:	9a05      	ldr	r2, [sp, #20]
 800a0a6:	bfa8      	it	ge
 800a0a8:	462b      	movge	r3, r5
 800a0aa:	1ad2      	subs	r2, r2, r3
 800a0ac:	9205      	str	r2, [sp, #20]
 800a0ae:	9a06      	ldr	r2, [sp, #24]
 800a0b0:	1aed      	subs	r5, r5, r3
 800a0b2:	1ad3      	subs	r3, r2, r3
 800a0b4:	9306      	str	r3, [sp, #24]
 800a0b6:	9b08      	ldr	r3, [sp, #32]
 800a0b8:	b1f3      	cbz	r3, 800a0f8 <_dtoa_r+0x780>
 800a0ba:	9b09      	ldr	r3, [sp, #36]	; 0x24
 800a0bc:	2b00      	cmp	r3, #0
 800a0be:	f000 80a5 	beq.w	800a20c <_dtoa_r+0x894>
 800a0c2:	2e00      	cmp	r6, #0
 800a0c4:	dd10      	ble.n	800a0e8 <_dtoa_r+0x770>
 800a0c6:	4639      	mov	r1, r7
 800a0c8:	4632      	mov	r2, r6
 800a0ca:	4620      	mov	r0, r4
 800a0cc:	f000 fdf4 	bl	800acb8 <__pow5mult>
 800a0d0:	4652      	mov	r2, sl
 800a0d2:	4601      	mov	r1, r0
 800a0d4:	4607      	mov	r7, r0
 800a0d6:	4620      	mov	r0, r4
 800a0d8:	f000 fd61 	bl	800ab9e <__multiply>
 800a0dc:	4651      	mov	r1, sl
 800a0de:	4680      	mov	r8, r0
 800a0e0:	4620      	mov	r0, r4
 800a0e2:	f000 fcb3 	bl	800aa4c <_Bfree>
 800a0e6:	46c2      	mov	sl, r8
 800a0e8:	9b08      	ldr	r3, [sp, #32]
 800a0ea:	1b9a      	subs	r2, r3, r6
 800a0ec:	d004      	beq.n	800a0f8 <_dtoa_r+0x780>
 800a0ee:	4651      	mov	r1, sl
 800a0f0:	4620      	mov	r0, r4
 800a0f2:	f000 fde1 	bl	800acb8 <__pow5mult>
 800a0f6:	4682      	mov	sl, r0
 800a0f8:	2101      	movs	r1, #1
 800a0fa:	4620      	mov	r0, r4
 800a0fc:	f000 fd46 	bl	800ab8c <__i2b>
 800a100:	9b0b      	ldr	r3, [sp, #44]	; 0x2c
 800a102:	2b00      	cmp	r3, #0
 800a104:	4606      	mov	r6, r0
 800a106:	f340 8083 	ble.w	800a210 <_dtoa_r+0x898>
 800a10a:	461a      	mov	r2, r3
 800a10c:	4601      	mov	r1, r0
 800a10e:	4620      	mov	r0, r4
 800a110:	f000 fdd2 	bl	800acb8 <__pow5mult>
 800a114:	9b07      	ldr	r3, [sp, #28]
 800a116:	2b01      	cmp	r3, #1
 800a118:	4606      	mov	r6, r0
 800a11a:	dd7c      	ble.n	800a216 <_dtoa_r+0x89e>
 800a11c:	f04f 0800 	mov.w	r8, #0
 800a120:	6933      	ldr	r3, [r6, #16]
 800a122:	eb06 0383 	add.w	r3, r6, r3, lsl #2
 800a126:	6918      	ldr	r0, [r3, #16]
 800a128:	f000 fce2 	bl	800aaf0 <__hi0bits>
 800a12c:	f1c0 0020 	rsb	r0, r0, #32
 800a130:	9b06      	ldr	r3, [sp, #24]
 800a132:	4418      	add	r0, r3
 800a134:	f010 001f 	ands.w	r0, r0, #31
 800a138:	f000 8096 	beq.w	800a268 <_dtoa_r+0x8f0>
 800a13c:	f1c0 0320 	rsb	r3, r0, #32
 800a140:	2b04      	cmp	r3, #4
 800a142:	f340 8087 	ble.w	800a254 <_dtoa_r+0x8dc>
 800a146:	9b05      	ldr	r3, [sp, #20]
 800a148:	f1c0 001c 	rsb	r0, r0, #28
 800a14c:	4403      	add	r3, r0
 800a14e:	9305      	str	r3, [sp, #20]
 800a150:	9b06      	ldr	r3, [sp, #24]
 800a152:	4405      	add	r5, r0
 800a154:	4403      	add	r3, r0
 800a156:	9306      	str	r3, [sp, #24]
 800a158:	9b05      	ldr	r3, [sp, #20]
 800a15a:	2b00      	cmp	r3, #0
 800a15c:	dd05      	ble.n	800a16a <_dtoa_r+0x7f2>
 800a15e:	4651      	mov	r1, sl
 800a160:	461a      	mov	r2, r3
 800a162:	4620      	mov	r0, r4
 800a164:	f000 fdf6 	bl	800ad54 <__lshift>
 800a168:	4682      	mov	sl, r0
 800a16a:	9b06      	ldr	r3, [sp, #24]
 800a16c:	2b00      	cmp	r3, #0
 800a16e:	dd05      	ble.n	800a17c <_dtoa_r+0x804>
 800a170:	4631      	mov	r1, r6
 800a172:	461a      	mov	r2, r3
 800a174:	4620      	mov	r0, r4
 800a176:	f000 fded 	bl	800ad54 <__lshift>
 800a17a:	4606      	mov	r6, r0
 800a17c:	9b0e      	ldr	r3, [sp, #56]	; 0x38
 800a17e:	2b00      	cmp	r3, #0
 800a180:	d074      	beq.n	800a26c <_dtoa_r+0x8f4>
 800a182:	4631      	mov	r1, r6
 800a184:	4650      	mov	r0, sl
 800a186:	f000 fe36 	bl	800adf6 <__mcmp>
 800a18a:	2800      	cmp	r0, #0
 800a18c:	da6e      	bge.n	800a26c <_dtoa_r+0x8f4>
 800a18e:	2300      	movs	r3, #0
 800a190:	4651      	mov	r1, sl
 800a192:	220a      	movs	r2, #10
 800a194:	4620      	mov	r0, r4
 800a196:	f000 fc70 	bl	800aa7a <__multadd>
 800a19a:	9b09      	ldr	r3, [sp, #36]	; 0x24
 800a19c:	f10b 3bff 	add.w	fp, fp, #4294967295
 800a1a0:	4682      	mov	sl, r0
 800a1a2:	2b00      	cmp	r3, #0
 800a1a4:	f000 81a8 	beq.w	800a4f8 <_dtoa_r+0xb80>
 800a1a8:	2300      	movs	r3, #0
 800a1aa:	4639      	mov	r1, r7
 800a1ac:	220a      	movs	r2, #10
 800a1ae:	4620      	mov	r0, r4
 800a1b0:	f000 fc63 	bl	800aa7a <__multadd>
 800a1b4:	9b04      	ldr	r3, [sp, #16]
 800a1b6:	2b00      	cmp	r3, #0
 800a1b8:	4607      	mov	r7, r0
 800a1ba:	f300 80c8 	bgt.w	800a34e <_dtoa_r+0x9d6>
 800a1be:	9b07      	ldr	r3, [sp, #28]
 800a1c0:	2b02      	cmp	r3, #2
 800a1c2:	f340 80c4 	ble.w	800a34e <_dtoa_r+0x9d6>
 800a1c6:	e059      	b.n	800a27c <_dtoa_r+0x904>
 800a1c8:	9b14      	ldr	r3, [sp, #80]	; 0x50
 800a1ca:	f1c3 0336 	rsb	r3, r3, #54	; 0x36
 800a1ce:	e756      	b.n	800a07e <_dtoa_r+0x706>
 800a1d0:	9b03      	ldr	r3, [sp, #12]
 800a1d2:	1e5e      	subs	r6, r3, #1
 800a1d4:	9b08      	ldr	r3, [sp, #32]
 800a1d6:	42b3      	cmp	r3, r6
 800a1d8:	bfbf      	itttt	lt
 800a1da:	9b08      	ldrlt	r3, [sp, #32]
 800a1dc:	9608      	strlt	r6, [sp, #32]
 800a1de:	1af2      	sublt	r2, r6, r3
 800a1e0:	9b0b      	ldrlt	r3, [sp, #44]	; 0x2c
 800a1e2:	bfb6      	itet	lt
 800a1e4:	189b      	addlt	r3, r3, r2
 800a1e6:	1b9e      	subge	r6, r3, r6
 800a1e8:	930b      	strlt	r3, [sp, #44]	; 0x2c
 800a1ea:	9b03      	ldr	r3, [sp, #12]
 800a1ec:	bfb8      	it	lt
 800a1ee:	2600      	movlt	r6, #0
 800a1f0:	2b00      	cmp	r3, #0
 800a1f2:	bfb9      	ittee	lt
 800a1f4:	9b05      	ldrlt	r3, [sp, #20]
 800a1f6:	9a03      	ldrlt	r2, [sp, #12]
 800a1f8:	9d05      	ldrge	r5, [sp, #20]
 800a1fa:	9b03      	ldrge	r3, [sp, #12]
 800a1fc:	bfbc      	itt	lt
 800a1fe:	1a9d      	sublt	r5, r3, r2
 800a200:	2300      	movlt	r3, #0
 800a202:	e73e      	b.n	800a082 <_dtoa_r+0x70a>
 800a204:	9e08      	ldr	r6, [sp, #32]
 800a206:	9d05      	ldr	r5, [sp, #20]
 800a208:	9f09      	ldr	r7, [sp, #36]	; 0x24
 800a20a:	e745      	b.n	800a098 <_dtoa_r+0x720>
 800a20c:	9a08      	ldr	r2, [sp, #32]
 800a20e:	e76e      	b.n	800a0ee <_dtoa_r+0x776>
 800a210:	9b07      	ldr	r3, [sp, #28]
 800a212:	2b01      	cmp	r3, #1
 800a214:	dc19      	bgt.n	800a24a <_dtoa_r+0x8d2>
 800a216:	9b00      	ldr	r3, [sp, #0]
 800a218:	b9bb      	cbnz	r3, 800a24a <_dtoa_r+0x8d2>
 800a21a:	9b01      	ldr	r3, [sp, #4]
 800a21c:	f3c3 0313 	ubfx	r3, r3, #0, #20
 800a220:	b99b      	cbnz	r3, 800a24a <_dtoa_r+0x8d2>
 800a222:	9b01      	ldr	r3, [sp, #4]
 800a224:	f023 4300 	bic.w	r3, r3, #2147483648	; 0x80000000
 800a228:	0d1b      	lsrs	r3, r3, #20
 800a22a:	051b      	lsls	r3, r3, #20
 800a22c:	b183      	cbz	r3, 800a250 <_dtoa_r+0x8d8>
 800a22e:	9b05      	ldr	r3, [sp, #20]
 800a230:	3301      	adds	r3, #1
 800a232:	9305      	str	r3, [sp, #20]
 800a234:	9b06      	ldr	r3, [sp, #24]
 800a236:	3301      	adds	r3, #1
 800a238:	9306      	str	r3, [sp, #24]
 800a23a:	f04f 0801 	mov.w	r8, #1
 800a23e:	9b0b      	ldr	r3, [sp, #44]	; 0x2c
 800a240:	2b00      	cmp	r3, #0
 800a242:	f47f af6d 	bne.w	800a120 <_dtoa_r+0x7a8>
 800a246:	2001      	movs	r0, #1
 800a248:	e772      	b.n	800a130 <_dtoa_r+0x7b8>
 800a24a:	f04f 0800 	mov.w	r8, #0
 800a24e:	e7f6      	b.n	800a23e <_dtoa_r+0x8c6>
 800a250:	4698      	mov	r8, r3
 800a252:	e7f4      	b.n	800a23e <_dtoa_r+0x8c6>
 800a254:	d080      	beq.n	800a158 <_dtoa_r+0x7e0>
 800a256:	9a05      	ldr	r2, [sp, #20]
 800a258:	331c      	adds	r3, #28
 800a25a:	441a      	add	r2, r3
 800a25c:	9205      	str	r2, [sp, #20]
 800a25e:	9a06      	ldr	r2, [sp, #24]
 800a260:	441a      	add	r2, r3
 800a262:	441d      	add	r5, r3
 800a264:	4613      	mov	r3, r2
 800a266:	e776      	b.n	800a156 <_dtoa_r+0x7de>
 800a268:	4603      	mov	r3, r0
 800a26a:	e7f4      	b.n	800a256 <_dtoa_r+0x8de>
 800a26c:	9b03      	ldr	r3, [sp, #12]
 800a26e:	2b00      	cmp	r3, #0
 800a270:	dc36      	bgt.n	800a2e0 <_dtoa_r+0x968>
 800a272:	9b07      	ldr	r3, [sp, #28]
 800a274:	2b02      	cmp	r3, #2
 800a276:	dd33      	ble.n	800a2e0 <_dtoa_r+0x968>
 800a278:	9b03      	ldr	r3, [sp, #12]
 800a27a:	9304      	str	r3, [sp, #16]
 800a27c:	9b04      	ldr	r3, [sp, #16]
 800a27e:	b963      	cbnz	r3, 800a29a <_dtoa_r+0x922>
 800a280:	4631      	mov	r1, r6
 800a282:	2205      	movs	r2, #5
 800a284:	4620      	mov	r0, r4
 800a286:	f000 fbf8 	bl	800aa7a <__multadd>
 800a28a:	4601      	mov	r1, r0
 800a28c:	4606      	mov	r6, r0
 800a28e:	4650      	mov	r0, sl
 800a290:	f000 fdb1 	bl	800adf6 <__mcmp>
 800a294:	2800      	cmp	r0, #0
 800a296:	f73f adb6 	bgt.w	8009e06 <_dtoa_r+0x48e>
 800a29a:	9b0a      	ldr	r3, [sp, #40]	; 0x28
 800a29c:	9d02      	ldr	r5, [sp, #8]
 800a29e:	ea6f 0b03 	mvn.w	fp, r3
 800a2a2:	2300      	movs	r3, #0
 800a2a4:	9303      	str	r3, [sp, #12]
 800a2a6:	4631      	mov	r1, r6
 800a2a8:	4620      	mov	r0, r4
 800a2aa:	f000 fbcf 	bl	800aa4c <_Bfree>
 800a2ae:	2f00      	cmp	r7, #0
 800a2b0:	f43f aea6 	beq.w	800a000 <_dtoa_r+0x688>
 800a2b4:	9b03      	ldr	r3, [sp, #12]
 800a2b6:	b12b      	cbz	r3, 800a2c4 <_dtoa_r+0x94c>
 800a2b8:	42bb      	cmp	r3, r7
 800a2ba:	d003      	beq.n	800a2c4 <_dtoa_r+0x94c>
 800a2bc:	4619      	mov	r1, r3
 800a2be:	4620      	mov	r0, r4
 800a2c0:	f000 fbc4 	bl	800aa4c <_Bfree>
 800a2c4:	4639      	mov	r1, r7
 800a2c6:	4620      	mov	r0, r4
 800a2c8:	f000 fbc0 	bl	800aa4c <_Bfree>
 800a2cc:	e698      	b.n	800a000 <_dtoa_r+0x688>
 800a2ce:	2600      	movs	r6, #0
 800a2d0:	4637      	mov	r7, r6
 800a2d2:	e7e2      	b.n	800a29a <_dtoa_r+0x922>
 800a2d4:	46bb      	mov	fp, r7
 800a2d6:	4637      	mov	r7, r6
 800a2d8:	e595      	b.n	8009e06 <_dtoa_r+0x48e>
 800a2da:	bf00      	nop
 800a2dc:	40240000 	.word	0x40240000
 800a2e0:	9b09      	ldr	r3, [sp, #36]	; 0x24
 800a2e2:	bb93      	cbnz	r3, 800a34a <_dtoa_r+0x9d2>
 800a2e4:	9b03      	ldr	r3, [sp, #12]
 800a2e6:	9304      	str	r3, [sp, #16]
 800a2e8:	9d02      	ldr	r5, [sp, #8]
 800a2ea:	4631      	mov	r1, r6
 800a2ec:	4650      	mov	r0, sl
 800a2ee:	f7ff fab7 	bl	8009860 <quorem>
 800a2f2:	f100 0930 	add.w	r9, r0, #48	; 0x30
 800a2f6:	f805 9b01 	strb.w	r9, [r5], #1
 800a2fa:	9b02      	ldr	r3, [sp, #8]
 800a2fc:	9a04      	ldr	r2, [sp, #16]
 800a2fe:	1aeb      	subs	r3, r5, r3
 800a300:	429a      	cmp	r2, r3
 800a302:	f300 80dc 	bgt.w	800a4be <_dtoa_r+0xb46>
 800a306:	9b02      	ldr	r3, [sp, #8]
 800a308:	2a01      	cmp	r2, #1
 800a30a:	bfac      	ite	ge
 800a30c:	189b      	addge	r3, r3, r2
 800a30e:	3301      	addlt	r3, #1
 800a310:	4698      	mov	r8, r3
 800a312:	2300      	movs	r3, #0
 800a314:	9303      	str	r3, [sp, #12]
 800a316:	4651      	mov	r1, sl
 800a318:	2201      	movs	r2, #1
 800a31a:	4620      	mov	r0, r4
 800a31c:	f000 fd1a 	bl	800ad54 <__lshift>
 800a320:	4631      	mov	r1, r6
 800a322:	4682      	mov	sl, r0
 800a324:	f000 fd67 	bl	800adf6 <__mcmp>
 800a328:	2800      	cmp	r0, #0
 800a32a:	f300 808d 	bgt.w	800a448 <_dtoa_r+0xad0>
 800a32e:	d103      	bne.n	800a338 <_dtoa_r+0x9c0>
 800a330:	f019 0f01 	tst.w	r9, #1
 800a334:	f040 8088 	bne.w	800a448 <_dtoa_r+0xad0>
 800a338:	4645      	mov	r5, r8
 800a33a:	f815 3c01 	ldrb.w	r3, [r5, #-1]
 800a33e:	2b30      	cmp	r3, #48	; 0x30
 800a340:	f105 32ff 	add.w	r2, r5, #4294967295
 800a344:	d1af      	bne.n	800a2a6 <_dtoa_r+0x92e>
 800a346:	4615      	mov	r5, r2
 800a348:	e7f7      	b.n	800a33a <_dtoa_r+0x9c2>
 800a34a:	9b03      	ldr	r3, [sp, #12]
 800a34c:	9304      	str	r3, [sp, #16]
 800a34e:	2d00      	cmp	r5, #0
 800a350:	dd05      	ble.n	800a35e <_dtoa_r+0x9e6>
 800a352:	4639      	mov	r1, r7
 800a354:	462a      	mov	r2, r5
 800a356:	4620      	mov	r0, r4
 800a358:	f000 fcfc 	bl	800ad54 <__lshift>
 800a35c:	4607      	mov	r7, r0
 800a35e:	f1b8 0f00 	cmp.w	r8, #0
 800a362:	d04c      	beq.n	800a3fe <_dtoa_r+0xa86>
 800a364:	6879      	ldr	r1, [r7, #4]
 800a366:	4620      	mov	r0, r4
 800a368:	f000 fb3c 	bl	800a9e4 <_Balloc>
 800a36c:	693a      	ldr	r2, [r7, #16]
 800a36e:	3202      	adds	r2, #2
 800a370:	4605      	mov	r5, r0
 800a372:	0092      	lsls	r2, r2, #2
 800a374:	f107 010c 	add.w	r1, r7, #12
 800a378:	300c      	adds	r0, #12
 800a37a:	f7fe f85d 	bl	8008438 <memcpy>
 800a37e:	2201      	movs	r2, #1
 800a380:	4629      	mov	r1, r5
 800a382:	4620      	mov	r0, r4
 800a384:	f000 fce6 	bl	800ad54 <__lshift>
 800a388:	9b00      	ldr	r3, [sp, #0]
 800a38a:	f8dd 8008 	ldr.w	r8, [sp, #8]
 800a38e:	9703      	str	r7, [sp, #12]
 800a390:	f003 0301 	and.w	r3, r3, #1
 800a394:	4607      	mov	r7, r0
 800a396:	9305      	str	r3, [sp, #20]
 800a398:	4631      	mov	r1, r6
 800a39a:	4650      	mov	r0, sl
 800a39c:	f7ff fa60 	bl	8009860 <quorem>
 800a3a0:	9903      	ldr	r1, [sp, #12]
 800a3a2:	4605      	mov	r5, r0
 800a3a4:	f100 0930 	add.w	r9, r0, #48	; 0x30
 800a3a8:	4650      	mov	r0, sl
 800a3aa:	f000 fd24 	bl	800adf6 <__mcmp>
 800a3ae:	463a      	mov	r2, r7
 800a3b0:	9000      	str	r0, [sp, #0]
 800a3b2:	4631      	mov	r1, r6
 800a3b4:	4620      	mov	r0, r4
 800a3b6:	f000 fd38 	bl	800ae2a <__mdiff>
 800a3ba:	68c3      	ldr	r3, [r0, #12]
 800a3bc:	4602      	mov	r2, r0
 800a3be:	bb03      	cbnz	r3, 800a402 <_dtoa_r+0xa8a>
 800a3c0:	4601      	mov	r1, r0
 800a3c2:	9006      	str	r0, [sp, #24]
 800a3c4:	4650      	mov	r0, sl
 800a3c6:	f000 fd16 	bl	800adf6 <__mcmp>
 800a3ca:	9a06      	ldr	r2, [sp, #24]
 800a3cc:	4603      	mov	r3, r0
 800a3ce:	4611      	mov	r1, r2
 800a3d0:	4620      	mov	r0, r4
 800a3d2:	9306      	str	r3, [sp, #24]
 800a3d4:	f000 fb3a 	bl	800aa4c <_Bfree>
 800a3d8:	9b06      	ldr	r3, [sp, #24]
 800a3da:	b9a3      	cbnz	r3, 800a406 <_dtoa_r+0xa8e>
 800a3dc:	9a07      	ldr	r2, [sp, #28]
 800a3de:	b992      	cbnz	r2, 800a406 <_dtoa_r+0xa8e>
 800a3e0:	9a05      	ldr	r2, [sp, #20]
 800a3e2:	b982      	cbnz	r2, 800a406 <_dtoa_r+0xa8e>
 800a3e4:	f1b9 0f39 	cmp.w	r9, #57	; 0x39
 800a3e8:	d029      	beq.n	800a43e <_dtoa_r+0xac6>
 800a3ea:	9b00      	ldr	r3, [sp, #0]
 800a3ec:	2b00      	cmp	r3, #0
 800a3ee:	dd01      	ble.n	800a3f4 <_dtoa_r+0xa7c>
 800a3f0:	f105 0931 	add.w	r9, r5, #49	; 0x31
 800a3f4:	f108 0501 	add.w	r5, r8, #1
 800a3f8:	f888 9000 	strb.w	r9, [r8]
 800a3fc:	e753      	b.n	800a2a6 <_dtoa_r+0x92e>
 800a3fe:	4638      	mov	r0, r7
 800a400:	e7c2      	b.n	800a388 <_dtoa_r+0xa10>
 800a402:	2301      	movs	r3, #1
 800a404:	e7e3      	b.n	800a3ce <_dtoa_r+0xa56>
 800a406:	9a00      	ldr	r2, [sp, #0]
 800a408:	2a00      	cmp	r2, #0
 800a40a:	db04      	blt.n	800a416 <_dtoa_r+0xa9e>
 800a40c:	d125      	bne.n	800a45a <_dtoa_r+0xae2>
 800a40e:	9a07      	ldr	r2, [sp, #28]
 800a410:	bb1a      	cbnz	r2, 800a45a <_dtoa_r+0xae2>
 800a412:	9a05      	ldr	r2, [sp, #20]
 800a414:	bb0a      	cbnz	r2, 800a45a <_dtoa_r+0xae2>
 800a416:	2b00      	cmp	r3, #0
 800a418:	ddec      	ble.n	800a3f4 <_dtoa_r+0xa7c>
 800a41a:	4651      	mov	r1, sl
 800a41c:	2201      	movs	r2, #1
 800a41e:	4620      	mov	r0, r4
 800a420:	f000 fc98 	bl	800ad54 <__lshift>
 800a424:	4631      	mov	r1, r6
 800a426:	4682      	mov	sl, r0
 800a428:	f000 fce5 	bl	800adf6 <__mcmp>
 800a42c:	2800      	cmp	r0, #0
 800a42e:	dc03      	bgt.n	800a438 <_dtoa_r+0xac0>
 800a430:	d1e0      	bne.n	800a3f4 <_dtoa_r+0xa7c>
 800a432:	f019 0f01 	tst.w	r9, #1
 800a436:	d0dd      	beq.n	800a3f4 <_dtoa_r+0xa7c>
 800a438:	f1b9 0f39 	cmp.w	r9, #57	; 0x39
 800a43c:	d1d8      	bne.n	800a3f0 <_dtoa_r+0xa78>
 800a43e:	2339      	movs	r3, #57	; 0x39
 800a440:	f888 3000 	strb.w	r3, [r8]
 800a444:	f108 0801 	add.w	r8, r8, #1
 800a448:	4645      	mov	r5, r8
 800a44a:	f815 3c01 	ldrb.w	r3, [r5, #-1]
 800a44e:	2b39      	cmp	r3, #57	; 0x39
 800a450:	f105 32ff 	add.w	r2, r5, #4294967295
 800a454:	d03b      	beq.n	800a4ce <_dtoa_r+0xb56>
 800a456:	3301      	adds	r3, #1
 800a458:	e040      	b.n	800a4dc <_dtoa_r+0xb64>
 800a45a:	2b00      	cmp	r3, #0
 800a45c:	f108 0501 	add.w	r5, r8, #1
 800a460:	dd05      	ble.n	800a46e <_dtoa_r+0xaf6>
 800a462:	f1b9 0f39 	cmp.w	r9, #57	; 0x39
 800a466:	d0ea      	beq.n	800a43e <_dtoa_r+0xac6>
 800a468:	f109 0901 	add.w	r9, r9, #1
 800a46c:	e7c4      	b.n	800a3f8 <_dtoa_r+0xa80>
 800a46e:	9b02      	ldr	r3, [sp, #8]
 800a470:	9a04      	ldr	r2, [sp, #16]
 800a472:	f805 9c01 	strb.w	r9, [r5, #-1]
 800a476:	1aeb      	subs	r3, r5, r3
 800a478:	4293      	cmp	r3, r2
 800a47a:	46a8      	mov	r8, r5
 800a47c:	f43f af4b 	beq.w	800a316 <_dtoa_r+0x99e>
 800a480:	4651      	mov	r1, sl
 800a482:	2300      	movs	r3, #0
 800a484:	220a      	movs	r2, #10
 800a486:	4620      	mov	r0, r4
 800a488:	f000 faf7 	bl	800aa7a <__multadd>
 800a48c:	9b03      	ldr	r3, [sp, #12]
 800a48e:	9903      	ldr	r1, [sp, #12]
 800a490:	42bb      	cmp	r3, r7
 800a492:	4682      	mov	sl, r0
 800a494:	f04f 0300 	mov.w	r3, #0
 800a498:	f04f 020a 	mov.w	r2, #10
 800a49c:	4620      	mov	r0, r4
 800a49e:	d104      	bne.n	800a4aa <_dtoa_r+0xb32>
 800a4a0:	f000 faeb 	bl	800aa7a <__multadd>
 800a4a4:	9003      	str	r0, [sp, #12]
 800a4a6:	4607      	mov	r7, r0
 800a4a8:	e776      	b.n	800a398 <_dtoa_r+0xa20>
 800a4aa:	f000 fae6 	bl	800aa7a <__multadd>
 800a4ae:	2300      	movs	r3, #0
 800a4b0:	9003      	str	r0, [sp, #12]
 800a4b2:	220a      	movs	r2, #10
 800a4b4:	4639      	mov	r1, r7
 800a4b6:	4620      	mov	r0, r4
 800a4b8:	f000 fadf 	bl	800aa7a <__multadd>
 800a4bc:	e7f3      	b.n	800a4a6 <_dtoa_r+0xb2e>
 800a4be:	4651      	mov	r1, sl
 800a4c0:	2300      	movs	r3, #0
 800a4c2:	220a      	movs	r2, #10
 800a4c4:	4620      	mov	r0, r4
 800a4c6:	f000 fad8 	bl	800aa7a <__multadd>
 800a4ca:	4682      	mov	sl, r0
 800a4cc:	e70d      	b.n	800a2ea <_dtoa_r+0x972>
 800a4ce:	9b02      	ldr	r3, [sp, #8]
 800a4d0:	4293      	cmp	r3, r2
 800a4d2:	d105      	bne.n	800a4e0 <_dtoa_r+0xb68>
 800a4d4:	9a02      	ldr	r2, [sp, #8]
 800a4d6:	f10b 0b01 	add.w	fp, fp, #1
 800a4da:	2331      	movs	r3, #49	; 0x31
 800a4dc:	7013      	strb	r3, [r2, #0]
 800a4de:	e6e2      	b.n	800a2a6 <_dtoa_r+0x92e>
 800a4e0:	4615      	mov	r5, r2
 800a4e2:	e7b2      	b.n	800a44a <_dtoa_r+0xad2>
 800a4e4:	4b09      	ldr	r3, [pc, #36]	; (800a50c <_dtoa_r+0xb94>)
 800a4e6:	f7ff baae 	b.w	8009a46 <_dtoa_r+0xce>
 800a4ea:	9b21      	ldr	r3, [sp, #132]	; 0x84
 800a4ec:	2b00      	cmp	r3, #0
 800a4ee:	f47f aa88 	bne.w	8009a02 <_dtoa_r+0x8a>
 800a4f2:	4b07      	ldr	r3, [pc, #28]	; (800a510 <_dtoa_r+0xb98>)
 800a4f4:	f7ff baa7 	b.w	8009a46 <_dtoa_r+0xce>
 800a4f8:	9b04      	ldr	r3, [sp, #16]
 800a4fa:	2b00      	cmp	r3, #0
 800a4fc:	f73f aef4 	bgt.w	800a2e8 <_dtoa_r+0x970>
 800a500:	9b07      	ldr	r3, [sp, #28]
 800a502:	2b02      	cmp	r3, #2
 800a504:	f77f aef0 	ble.w	800a2e8 <_dtoa_r+0x970>
 800a508:	e6b8      	b.n	800a27c <_dtoa_r+0x904>
 800a50a:	bf00      	nop
 800a50c:	0800bcaa 	.word	0x0800bcaa
 800a510:	0800bccc 	.word	0x0800bccc

0800a514 <_fclose_r>:
 800a514:	b570      	push	{r4, r5, r6, lr}
 800a516:	4605      	mov	r5, r0
 800a518:	460c      	mov	r4, r1
 800a51a:	b911      	cbnz	r1, 800a522 <_fclose_r+0xe>
 800a51c:	2600      	movs	r6, #0
 800a51e:	4630      	mov	r0, r6
 800a520:	bd70      	pop	{r4, r5, r6, pc}
 800a522:	b118      	cbz	r0, 800a52c <_fclose_r+0x18>
 800a524:	6983      	ldr	r3, [r0, #24]
 800a526:	b90b      	cbnz	r3, 800a52c <_fclose_r+0x18>
 800a528:	f7fd fba0 	bl	8007c6c <__sinit>
 800a52c:	4b2c      	ldr	r3, [pc, #176]	; (800a5e0 <_fclose_r+0xcc>)
 800a52e:	429c      	cmp	r4, r3
 800a530:	d114      	bne.n	800a55c <_fclose_r+0x48>
 800a532:	686c      	ldr	r4, [r5, #4]
 800a534:	6e63      	ldr	r3, [r4, #100]	; 0x64
 800a536:	07d8      	lsls	r0, r3, #31
 800a538:	d405      	bmi.n	800a546 <_fclose_r+0x32>
 800a53a:	89a3      	ldrh	r3, [r4, #12]
 800a53c:	0599      	lsls	r1, r3, #22
 800a53e:	d402      	bmi.n	800a546 <_fclose_r+0x32>
 800a540:	6da0      	ldr	r0, [r4, #88]	; 0x58
 800a542:	f7fd fd69 	bl	8008018 <__retarget_lock_acquire_recursive>
 800a546:	f9b4 300c 	ldrsh.w	r3, [r4, #12]
 800a54a:	b98b      	cbnz	r3, 800a570 <_fclose_r+0x5c>
 800a54c:	6e66      	ldr	r6, [r4, #100]	; 0x64
 800a54e:	f016 0601 	ands.w	r6, r6, #1
 800a552:	d1e3      	bne.n	800a51c <_fclose_r+0x8>
 800a554:	6da0      	ldr	r0, [r4, #88]	; 0x58
 800a556:	f7fd fd60 	bl	800801a <__retarget_lock_release_recursive>
 800a55a:	e7e0      	b.n	800a51e <_fclose_r+0xa>
 800a55c:	4b21      	ldr	r3, [pc, #132]	; (800a5e4 <_fclose_r+0xd0>)
 800a55e:	429c      	cmp	r4, r3
 800a560:	d101      	bne.n	800a566 <_fclose_r+0x52>
 800a562:	68ac      	ldr	r4, [r5, #8]
 800a564:	e7e6      	b.n	800a534 <_fclose_r+0x20>
 800a566:	4b20      	ldr	r3, [pc, #128]	; (800a5e8 <_fclose_r+0xd4>)
 800a568:	429c      	cmp	r4, r3
 800a56a:	bf08      	it	eq
 800a56c:	68ec      	ldreq	r4, [r5, #12]
 800a56e:	e7e1      	b.n	800a534 <_fclose_r+0x20>
 800a570:	4621      	mov	r1, r4
 800a572:	4628      	mov	r0, r5
 800a574:	f7fd fa42 	bl	80079fc <__sflush_r>
 800a578:	6b23      	ldr	r3, [r4, #48]	; 0x30
 800a57a:	4606      	mov	r6, r0
 800a57c:	b133      	cbz	r3, 800a58c <_fclose_r+0x78>
 800a57e:	6a21      	ldr	r1, [r4, #32]
 800a580:	4628      	mov	r0, r5
 800a582:	4798      	blx	r3
 800a584:	2800      	cmp	r0, #0
 800a586:	bfb8      	it	lt
 800a588:	f04f 36ff 	movlt.w	r6, #4294967295
 800a58c:	89a3      	ldrh	r3, [r4, #12]
 800a58e:	061a      	lsls	r2, r3, #24
 800a590:	d503      	bpl.n	800a59a <_fclose_r+0x86>
 800a592:	6921      	ldr	r1, [r4, #16]
 800a594:	4628      	mov	r0, r5
 800a596:	f7fd fc3f 	bl	8007e18 <_free_r>
 800a59a:	6b61      	ldr	r1, [r4, #52]	; 0x34
 800a59c:	b141      	cbz	r1, 800a5b0 <_fclose_r+0x9c>
 800a59e:	f104 0344 	add.w	r3, r4, #68	; 0x44
 800a5a2:	4299      	cmp	r1, r3
 800a5a4:	d002      	beq.n	800a5ac <_fclose_r+0x98>
 800a5a6:	4628      	mov	r0, r5
 800a5a8:	f7fd fc36 	bl	8007e18 <_free_r>
 800a5ac:	2300      	movs	r3, #0
 800a5ae:	6363      	str	r3, [r4, #52]	; 0x34
 800a5b0:	6ca1      	ldr	r1, [r4, #72]	; 0x48
 800a5b2:	b121      	cbz	r1, 800a5be <_fclose_r+0xaa>
 800a5b4:	4628      	mov	r0, r5
 800a5b6:	f7fd fc2f 	bl	8007e18 <_free_r>
 800a5ba:	2300      	movs	r3, #0
 800a5bc:	64a3      	str	r3, [r4, #72]	; 0x48
 800a5be:	f7fd fb3d 	bl	8007c3c <__sfp_lock_acquire>
 800a5c2:	2300      	movs	r3, #0
 800a5c4:	81a3      	strh	r3, [r4, #12]
 800a5c6:	6e63      	ldr	r3, [r4, #100]	; 0x64
 800a5c8:	07db      	lsls	r3, r3, #31
 800a5ca:	d402      	bmi.n	800a5d2 <_fclose_r+0xbe>
 800a5cc:	6da0      	ldr	r0, [r4, #88]	; 0x58
 800a5ce:	f7fd fd24 	bl	800801a <__retarget_lock_release_recursive>
 800a5d2:	6da0      	ldr	r0, [r4, #88]	; 0x58
 800a5d4:	f7fd fd1f 	bl	8008016 <__retarget_lock_close_recursive>
 800a5d8:	f7fd fb36 	bl	8007c48 <__sfp_lock_release>
 800a5dc:	e79f      	b.n	800a51e <_fclose_r+0xa>
 800a5de:	bf00      	nop
 800a5e0:	0800bc34 	.word	0x0800bc34
 800a5e4:	0800bc54 	.word	0x0800bc54
 800a5e8:	0800bc14 	.word	0x0800bc14

0800a5ec <__sfvwrite_r>:
 800a5ec:	6893      	ldr	r3, [r2, #8]
 800a5ee:	e92d 4ff7 	stmdb	sp!, {r0, r1, r2, r4, r5, r6, r7, r8, r9, sl, fp, lr}
 800a5f2:	4607      	mov	r7, r0
 800a5f4:	460c      	mov	r4, r1
 800a5f6:	4690      	mov	r8, r2
 800a5f8:	b91b      	cbnz	r3, 800a602 <__sfvwrite_r+0x16>
 800a5fa:	2000      	movs	r0, #0
 800a5fc:	b003      	add	sp, #12
 800a5fe:	e8bd 8ff0 	ldmia.w	sp!, {r4, r5, r6, r7, r8, r9, sl, fp, pc}
 800a602:	898b      	ldrh	r3, [r1, #12]
 800a604:	0718      	lsls	r0, r3, #28
 800a606:	d526      	bpl.n	800a656 <__sfvwrite_r+0x6a>
 800a608:	690b      	ldr	r3, [r1, #16]
 800a60a:	b323      	cbz	r3, 800a656 <__sfvwrite_r+0x6a>
 800a60c:	89a3      	ldrh	r3, [r4, #12]
 800a60e:	f8d8 6000 	ldr.w	r6, [r8]
 800a612:	f013 0902 	ands.w	r9, r3, #2
 800a616:	d02d      	beq.n	800a674 <__sfvwrite_r+0x88>
 800a618:	f04f 0a00 	mov.w	sl, #0
 800a61c:	f8df b264 	ldr.w	fp, [pc, #612]	; 800a884 <__sfvwrite_r+0x298>
 800a620:	46d1      	mov	r9, sl
 800a622:	f1b9 0f00 	cmp.w	r9, #0
 800a626:	d01f      	beq.n	800a668 <__sfvwrite_r+0x7c>
 800a628:	45d9      	cmp	r9, fp
 800a62a:	464b      	mov	r3, r9
 800a62c:	4652      	mov	r2, sl
 800a62e:	bf28      	it	cs
 800a630:	465b      	movcs	r3, fp
 800a632:	6a21      	ldr	r1, [r4, #32]
 800a634:	6aa5      	ldr	r5, [r4, #40]	; 0x28
 800a636:	4638      	mov	r0, r7
 800a638:	47a8      	blx	r5
 800a63a:	2800      	cmp	r0, #0
 800a63c:	f340 8089 	ble.w	800a752 <__sfvwrite_r+0x166>
 800a640:	f8d8 3008 	ldr.w	r3, [r8, #8]
 800a644:	4482      	add	sl, r0
 800a646:	eba9 0900 	sub.w	r9, r9, r0
 800a64a:	1a18      	subs	r0, r3, r0
 800a64c:	f8c8 0008 	str.w	r0, [r8, #8]
 800a650:	2800      	cmp	r0, #0
 800a652:	d1e6      	bne.n	800a622 <__sfvwrite_r+0x36>
 800a654:	e7d1      	b.n	800a5fa <__sfvwrite_r+0xe>
 800a656:	4621      	mov	r1, r4
 800a658:	4638      	mov	r0, r7
 800a65a:	f7ff f883 	bl	8009764 <__swsetup_r>
 800a65e:	2800      	cmp	r0, #0
 800a660:	d0d4      	beq.n	800a60c <__sfvwrite_r+0x20>
 800a662:	f04f 30ff 	mov.w	r0, #4294967295
 800a666:	e7c9      	b.n	800a5fc <__sfvwrite_r+0x10>
 800a668:	f8d6 a000 	ldr.w	sl, [r6]
 800a66c:	f8d6 9004 	ldr.w	r9, [r6, #4]
 800a670:	3608      	adds	r6, #8
 800a672:	e7d6      	b.n	800a622 <__sfvwrite_r+0x36>
 800a674:	f013 0301 	ands.w	r3, r3, #1
 800a678:	d043      	beq.n	800a702 <__sfvwrite_r+0x116>
 800a67a:	4648      	mov	r0, r9
 800a67c:	46ca      	mov	sl, r9
 800a67e:	46cb      	mov	fp, r9
 800a680:	f1bb 0f00 	cmp.w	fp, #0
 800a684:	f000 80d9 	beq.w	800a83a <__sfvwrite_r+0x24e>
 800a688:	b950      	cbnz	r0, 800a6a0 <__sfvwrite_r+0xb4>
 800a68a:	465a      	mov	r2, fp
 800a68c:	210a      	movs	r1, #10
 800a68e:	4650      	mov	r0, sl
 800a690:	f7f5 fdb6 	bl	8000200 <memchr>
 800a694:	2800      	cmp	r0, #0
 800a696:	f000 80d5 	beq.w	800a844 <__sfvwrite_r+0x258>
 800a69a:	3001      	adds	r0, #1
 800a69c:	eba0 090a 	sub.w	r9, r0, sl
 800a6a0:	6820      	ldr	r0, [r4, #0]
 800a6a2:	6921      	ldr	r1, [r4, #16]
 800a6a4:	6962      	ldr	r2, [r4, #20]
 800a6a6:	45d9      	cmp	r9, fp
 800a6a8:	464b      	mov	r3, r9
 800a6aa:	bf28      	it	cs
 800a6ac:	465b      	movcs	r3, fp
 800a6ae:	4288      	cmp	r0, r1
 800a6b0:	f240 80cb 	bls.w	800a84a <__sfvwrite_r+0x25e>
 800a6b4:	68a5      	ldr	r5, [r4, #8]
 800a6b6:	4415      	add	r5, r2
 800a6b8:	42ab      	cmp	r3, r5
 800a6ba:	f340 80c6 	ble.w	800a84a <__sfvwrite_r+0x25e>
 800a6be:	4651      	mov	r1, sl
 800a6c0:	462a      	mov	r2, r5
 800a6c2:	f000 f975 	bl	800a9b0 <memmove>
 800a6c6:	6823      	ldr	r3, [r4, #0]
 800a6c8:	442b      	add	r3, r5
 800a6ca:	6023      	str	r3, [r4, #0]
 800a6cc:	4621      	mov	r1, r4
 800a6ce:	4638      	mov	r0, r7
 800a6d0:	f7fd fa26 	bl	8007b20 <_fflush_r>
 800a6d4:	2800      	cmp	r0, #0
 800a6d6:	d13c      	bne.n	800a752 <__sfvwrite_r+0x166>
 800a6d8:	ebb9 0905 	subs.w	r9, r9, r5
 800a6dc:	f040 80cf 	bne.w	800a87e <__sfvwrite_r+0x292>
 800a6e0:	4621      	mov	r1, r4
 800a6e2:	4638      	mov	r0, r7
 800a6e4:	f7fd fa1c 	bl	8007b20 <_fflush_r>
 800a6e8:	2800      	cmp	r0, #0
 800a6ea:	d132      	bne.n	800a752 <__sfvwrite_r+0x166>
 800a6ec:	f8d8 3008 	ldr.w	r3, [r8, #8]
 800a6f0:	44aa      	add	sl, r5
 800a6f2:	ebab 0b05 	sub.w	fp, fp, r5
 800a6f6:	1b5d      	subs	r5, r3, r5
 800a6f8:	f8c8 5008 	str.w	r5, [r8, #8]
 800a6fc:	2d00      	cmp	r5, #0
 800a6fe:	d1bf      	bne.n	800a680 <__sfvwrite_r+0x94>
 800a700:	e77b      	b.n	800a5fa <__sfvwrite_r+0xe>
 800a702:	4699      	mov	r9, r3
 800a704:	469a      	mov	sl, r3
 800a706:	f1ba 0f00 	cmp.w	sl, #0
 800a70a:	d027      	beq.n	800a75c <__sfvwrite_r+0x170>
 800a70c:	89a2      	ldrh	r2, [r4, #12]
 800a70e:	68a5      	ldr	r5, [r4, #8]
 800a710:	0591      	lsls	r1, r2, #22
 800a712:	d565      	bpl.n	800a7e0 <__sfvwrite_r+0x1f4>
 800a714:	45aa      	cmp	sl, r5
 800a716:	d33b      	bcc.n	800a790 <__sfvwrite_r+0x1a4>
 800a718:	f412 6f90 	tst.w	r2, #1152	; 0x480
 800a71c:	d036      	beq.n	800a78c <__sfvwrite_r+0x1a0>
 800a71e:	6921      	ldr	r1, [r4, #16]
 800a720:	6823      	ldr	r3, [r4, #0]
 800a722:	1a5b      	subs	r3, r3, r1
 800a724:	9301      	str	r3, [sp, #4]
 800a726:	6963      	ldr	r3, [r4, #20]
 800a728:	2002      	movs	r0, #2
 800a72a:	eb03 0343 	add.w	r3, r3, r3, lsl #1
 800a72e:	fb93 fbf0 	sdiv	fp, r3, r0
 800a732:	9b01      	ldr	r3, [sp, #4]
 800a734:	1c58      	adds	r0, r3, #1
 800a736:	4450      	add	r0, sl
 800a738:	4583      	cmp	fp, r0
 800a73a:	bf38      	it	cc
 800a73c:	4683      	movcc	fp, r0
 800a73e:	0553      	lsls	r3, r2, #21
 800a740:	d53e      	bpl.n	800a7c0 <__sfvwrite_r+0x1d4>
 800a742:	4659      	mov	r1, fp
 800a744:	4638      	mov	r0, r7
 800a746:	f7fd fc69 	bl	800801c <_malloc_r>
 800a74a:	4605      	mov	r5, r0
 800a74c:	b950      	cbnz	r0, 800a764 <__sfvwrite_r+0x178>
 800a74e:	230c      	movs	r3, #12
 800a750:	603b      	str	r3, [r7, #0]
 800a752:	89a3      	ldrh	r3, [r4, #12]
 800a754:	f043 0340 	orr.w	r3, r3, #64	; 0x40
 800a758:	81a3      	strh	r3, [r4, #12]
 800a75a:	e782      	b.n	800a662 <__sfvwrite_r+0x76>
 800a75c:	e896 0600 	ldmia.w	r6, {r9, sl}
 800a760:	3608      	adds	r6, #8
 800a762:	e7d0      	b.n	800a706 <__sfvwrite_r+0x11a>
 800a764:	9a01      	ldr	r2, [sp, #4]
 800a766:	6921      	ldr	r1, [r4, #16]
 800a768:	f7fd fe66 	bl	8008438 <memcpy>
 800a76c:	89a2      	ldrh	r2, [r4, #12]
 800a76e:	f422 6290 	bic.w	r2, r2, #1152	; 0x480
 800a772:	f042 0280 	orr.w	r2, r2, #128	; 0x80
 800a776:	81a2      	strh	r2, [r4, #12]
 800a778:	9b01      	ldr	r3, [sp, #4]
 800a77a:	6125      	str	r5, [r4, #16]
 800a77c:	441d      	add	r5, r3
 800a77e:	ebab 0303 	sub.w	r3, fp, r3
 800a782:	6025      	str	r5, [r4, #0]
 800a784:	f8c4 b014 	str.w	fp, [r4, #20]
 800a788:	4655      	mov	r5, sl
 800a78a:	60a3      	str	r3, [r4, #8]
 800a78c:	45aa      	cmp	sl, r5
 800a78e:	d200      	bcs.n	800a792 <__sfvwrite_r+0x1a6>
 800a790:	4655      	mov	r5, sl
 800a792:	462a      	mov	r2, r5
 800a794:	4649      	mov	r1, r9
 800a796:	6820      	ldr	r0, [r4, #0]
 800a798:	f000 f90a 	bl	800a9b0 <memmove>
 800a79c:	68a3      	ldr	r3, [r4, #8]
 800a79e:	1b5b      	subs	r3, r3, r5
 800a7a0:	60a3      	str	r3, [r4, #8]
 800a7a2:	6823      	ldr	r3, [r4, #0]
 800a7a4:	441d      	add	r5, r3
 800a7a6:	6025      	str	r5, [r4, #0]
 800a7a8:	4655      	mov	r5, sl
 800a7aa:	f8d8 3008 	ldr.w	r3, [r8, #8]
 800a7ae:	44a9      	add	r9, r5
 800a7b0:	ebaa 0a05 	sub.w	sl, sl, r5
 800a7b4:	1b5d      	subs	r5, r3, r5
 800a7b6:	f8c8 5008 	str.w	r5, [r8, #8]
 800a7ba:	2d00      	cmp	r5, #0
 800a7bc:	d1a3      	bne.n	800a706 <__sfvwrite_r+0x11a>
 800a7be:	e71c      	b.n	800a5fa <__sfvwrite_r+0xe>
 800a7c0:	465a      	mov	r2, fp
 800a7c2:	4638      	mov	r0, r7
 800a7c4:	f000 fc38 	bl	800b038 <_realloc_r>
 800a7c8:	4605      	mov	r5, r0
 800a7ca:	2800      	cmp	r0, #0
 800a7cc:	d1d4      	bne.n	800a778 <__sfvwrite_r+0x18c>
 800a7ce:	6921      	ldr	r1, [r4, #16]
 800a7d0:	4638      	mov	r0, r7
 800a7d2:	f7fd fb21 	bl	8007e18 <_free_r>
 800a7d6:	89a3      	ldrh	r3, [r4, #12]
 800a7d8:	f023 0380 	bic.w	r3, r3, #128	; 0x80
 800a7dc:	81a3      	strh	r3, [r4, #12]
 800a7de:	e7b6      	b.n	800a74e <__sfvwrite_r+0x162>
 800a7e0:	6820      	ldr	r0, [r4, #0]
 800a7e2:	6923      	ldr	r3, [r4, #16]
 800a7e4:	4298      	cmp	r0, r3
 800a7e6:	d802      	bhi.n	800a7ee <__sfvwrite_r+0x202>
 800a7e8:	6962      	ldr	r2, [r4, #20]
 800a7ea:	4592      	cmp	sl, r2
 800a7ec:	d215      	bcs.n	800a81a <__sfvwrite_r+0x22e>
 800a7ee:	4555      	cmp	r5, sl
 800a7f0:	bf28      	it	cs
 800a7f2:	4655      	movcs	r5, sl
 800a7f4:	462a      	mov	r2, r5
 800a7f6:	4649      	mov	r1, r9
 800a7f8:	f000 f8da 	bl	800a9b0 <memmove>
 800a7fc:	68a3      	ldr	r3, [r4, #8]
 800a7fe:	6822      	ldr	r2, [r4, #0]
 800a800:	1b5b      	subs	r3, r3, r5
 800a802:	442a      	add	r2, r5
 800a804:	60a3      	str	r3, [r4, #8]
 800a806:	6022      	str	r2, [r4, #0]
 800a808:	2b00      	cmp	r3, #0
 800a80a:	d1ce      	bne.n	800a7aa <__sfvwrite_r+0x1be>
 800a80c:	4621      	mov	r1, r4
 800a80e:	4638      	mov	r0, r7
 800a810:	f7fd f986 	bl	8007b20 <_fflush_r>
 800a814:	2800      	cmp	r0, #0
 800a816:	d0c8      	beq.n	800a7aa <__sfvwrite_r+0x1be>
 800a818:	e79b      	b.n	800a752 <__sfvwrite_r+0x166>
 800a81a:	f06f 4300 	mvn.w	r3, #2147483648	; 0x80000000
 800a81e:	4553      	cmp	r3, sl
 800a820:	bf28      	it	cs
 800a822:	4653      	movcs	r3, sl
 800a824:	6aa5      	ldr	r5, [r4, #40]	; 0x28
 800a826:	fb93 f3f2 	sdiv	r3, r3, r2
 800a82a:	6a21      	ldr	r1, [r4, #32]
 800a82c:	4353      	muls	r3, r2
 800a82e:	4638      	mov	r0, r7
 800a830:	464a      	mov	r2, r9
 800a832:	47a8      	blx	r5
 800a834:	1e05      	subs	r5, r0, #0
 800a836:	dcb8      	bgt.n	800a7aa <__sfvwrite_r+0x1be>
 800a838:	e78b      	b.n	800a752 <__sfvwrite_r+0x166>
 800a83a:	e896 0c00 	ldmia.w	r6, {sl, fp}
 800a83e:	2000      	movs	r0, #0
 800a840:	3608      	adds	r6, #8
 800a842:	e71d      	b.n	800a680 <__sfvwrite_r+0x94>
 800a844:	f10b 0901 	add.w	r9, fp, #1
 800a848:	e72a      	b.n	800a6a0 <__sfvwrite_r+0xb4>
 800a84a:	4293      	cmp	r3, r2
 800a84c:	db09      	blt.n	800a862 <__sfvwrite_r+0x276>
 800a84e:	6aa5      	ldr	r5, [r4, #40]	; 0x28
 800a850:	6a21      	ldr	r1, [r4, #32]
 800a852:	4613      	mov	r3, r2
 800a854:	4638      	mov	r0, r7
 800a856:	4652      	mov	r2, sl
 800a858:	47a8      	blx	r5
 800a85a:	1e05      	subs	r5, r0, #0
 800a85c:	f73f af3c 	bgt.w	800a6d8 <__sfvwrite_r+0xec>
 800a860:	e777      	b.n	800a752 <__sfvwrite_r+0x166>
 800a862:	461a      	mov	r2, r3
 800a864:	4651      	mov	r1, sl
 800a866:	9301      	str	r3, [sp, #4]
 800a868:	f000 f8a2 	bl	800a9b0 <memmove>
 800a86c:	9b01      	ldr	r3, [sp, #4]
 800a86e:	68a2      	ldr	r2, [r4, #8]
 800a870:	1ad2      	subs	r2, r2, r3
 800a872:	60a2      	str	r2, [r4, #8]
 800a874:	6822      	ldr	r2, [r4, #0]
 800a876:	441a      	add	r2, r3
 800a878:	6022      	str	r2, [r4, #0]
 800a87a:	461d      	mov	r5, r3
 800a87c:	e72c      	b.n	800a6d8 <__sfvwrite_r+0xec>
 800a87e:	2001      	movs	r0, #1
 800a880:	e734      	b.n	800a6ec <__sfvwrite_r+0x100>
 800a882:	bf00      	nop
 800a884:	7ffffc00 	.word	0x7ffffc00

0800a888 <_localeconv_r>:
 800a888:	4b04      	ldr	r3, [pc, #16]	; (800a89c <_localeconv_r+0x14>)
 800a88a:	681b      	ldr	r3, [r3, #0]
 800a88c:	6a18      	ldr	r0, [r3, #32]
 800a88e:	4b04      	ldr	r3, [pc, #16]	; (800a8a0 <_localeconv_r+0x18>)
 800a890:	2800      	cmp	r0, #0
 800a892:	bf08      	it	eq
 800a894:	4618      	moveq	r0, r3
 800a896:	30f0      	adds	r0, #240	; 0xf0
 800a898:	4770      	bx	lr
 800a89a:	bf00      	nop
 800a89c:	20000020 	.word	0x20000020
 800a8a0:	20000524 	.word	0x20000524

0800a8a4 <_lseek_r>:
 800a8a4:	b538      	push	{r3, r4, r5, lr}
 800a8a6:	4c07      	ldr	r4, [pc, #28]	; (800a8c4 <_lseek_r+0x20>)
 800a8a8:	4605      	mov	r5, r0
 800a8aa:	4608      	mov	r0, r1
 800a8ac:	4611      	mov	r1, r2
 800a8ae:	2200      	movs	r2, #0
 800a8b0:	6022      	str	r2, [r4, #0]
 800a8b2:	461a      	mov	r2, r3
 800a8b4:	f7fd f84c 	bl	8007950 <_lseek>
 800a8b8:	1c43      	adds	r3, r0, #1
 800a8ba:	d102      	bne.n	800a8c2 <_lseek_r+0x1e>
 800a8bc:	6823      	ldr	r3, [r4, #0]
 800a8be:	b103      	cbz	r3, 800a8c2 <_lseek_r+0x1e>
 800a8c0:	602b      	str	r3, [r5, #0]
 800a8c2:	bd38      	pop	{r3, r4, r5, pc}
 800a8c4:	20004468 	.word	0x20004468

0800a8c8 <__swhatbuf_r>:
 800a8c8:	b570      	push	{r4, r5, r6, lr}
 800a8ca:	460e      	mov	r6, r1
 800a8cc:	f9b1 100e 	ldrsh.w	r1, [r1, #14]
 800a8d0:	2900      	cmp	r1, #0
 800a8d2:	b090      	sub	sp, #64	; 0x40
 800a8d4:	4614      	mov	r4, r2
 800a8d6:	461d      	mov	r5, r3
 800a8d8:	da09      	bge.n	800a8ee <__swhatbuf_r+0x26>
 800a8da:	89b3      	ldrh	r3, [r6, #12]
 800a8dc:	2200      	movs	r2, #0
 800a8de:	f013 0080 	ands.w	r0, r3, #128	; 0x80
 800a8e2:	602a      	str	r2, [r5, #0]
 800a8e4:	d116      	bne.n	800a914 <__swhatbuf_r+0x4c>
 800a8e6:	f44f 6380 	mov.w	r3, #1024	; 0x400
 800a8ea:	6023      	str	r3, [r4, #0]
 800a8ec:	e015      	b.n	800a91a <__swhatbuf_r+0x52>
 800a8ee:	aa01      	add	r2, sp, #4
 800a8f0:	f000 fe4e 	bl	800b590 <_fstat_r>
 800a8f4:	2800      	cmp	r0, #0
 800a8f6:	dbf0      	blt.n	800a8da <__swhatbuf_r+0x12>
 800a8f8:	9a02      	ldr	r2, [sp, #8]
 800a8fa:	f402 4270 	and.w	r2, r2, #61440	; 0xf000
 800a8fe:	f5a2 5300 	sub.w	r3, r2, #8192	; 0x2000
 800a902:	425a      	negs	r2, r3
 800a904:	415a      	adcs	r2, r3
 800a906:	f44f 6380 	mov.w	r3, #1024	; 0x400
 800a90a:	602a      	str	r2, [r5, #0]
 800a90c:	f44f 6000 	mov.w	r0, #2048	; 0x800
 800a910:	6023      	str	r3, [r4, #0]
 800a912:	e002      	b.n	800a91a <__swhatbuf_r+0x52>
 800a914:	2340      	movs	r3, #64	; 0x40
 800a916:	6023      	str	r3, [r4, #0]
 800a918:	4610      	mov	r0, r2
 800a91a:	b010      	add	sp, #64	; 0x40
 800a91c:	bd70      	pop	{r4, r5, r6, pc}
	...

0800a920 <__smakebuf_r>:
 800a920:	898b      	ldrh	r3, [r1, #12]
 800a922:	b573      	push	{r0, r1, r4, r5, r6, lr}
 800a924:	079d      	lsls	r5, r3, #30
 800a926:	4606      	mov	r6, r0
 800a928:	460c      	mov	r4, r1
 800a92a:	d507      	bpl.n	800a93c <__smakebuf_r+0x1c>
 800a92c:	f104 0347 	add.w	r3, r4, #71	; 0x47
 800a930:	6023      	str	r3, [r4, #0]
 800a932:	6123      	str	r3, [r4, #16]
 800a934:	2301      	movs	r3, #1
 800a936:	6163      	str	r3, [r4, #20]
 800a938:	b002      	add	sp, #8
 800a93a:	bd70      	pop	{r4, r5, r6, pc}
 800a93c:	ab01      	add	r3, sp, #4
 800a93e:	466a      	mov	r2, sp
 800a940:	f7ff ffc2 	bl	800a8c8 <__swhatbuf_r>
 800a944:	9900      	ldr	r1, [sp, #0]
 800a946:	4605      	mov	r5, r0
 800a948:	4630      	mov	r0, r6
 800a94a:	f7fd fb67 	bl	800801c <_malloc_r>
 800a94e:	b948      	cbnz	r0, 800a964 <__smakebuf_r+0x44>
 800a950:	f9b4 300c 	ldrsh.w	r3, [r4, #12]
 800a954:	059a      	lsls	r2, r3, #22
 800a956:	d4ef      	bmi.n	800a938 <__smakebuf_r+0x18>
 800a958:	f023 0303 	bic.w	r3, r3, #3
 800a95c:	f043 0302 	orr.w	r3, r3, #2
 800a960:	81a3      	strh	r3, [r4, #12]
 800a962:	e7e3      	b.n	800a92c <__smakebuf_r+0xc>
 800a964:	4b0d      	ldr	r3, [pc, #52]	; (800a99c <__smakebuf_r+0x7c>)
 800a966:	62b3      	str	r3, [r6, #40]	; 0x28
 800a968:	89a3      	ldrh	r3, [r4, #12]
 800a96a:	6020      	str	r0, [r4, #0]
 800a96c:	f043 0380 	orr.w	r3, r3, #128	; 0x80
 800a970:	81a3      	strh	r3, [r4, #12]
 800a972:	9b00      	ldr	r3, [sp, #0]
 800a974:	6163      	str	r3, [r4, #20]
 800a976:	9b01      	ldr	r3, [sp, #4]
 800a978:	6120      	str	r0, [r4, #16]
 800a97a:	b15b      	cbz	r3, 800a994 <__smakebuf_r+0x74>
 800a97c:	f9b4 100e 	ldrsh.w	r1, [r4, #14]
 800a980:	4630      	mov	r0, r6
 800a982:	f000 fe17 	bl	800b5b4 <_isatty_r>
 800a986:	b128      	cbz	r0, 800a994 <__smakebuf_r+0x74>
 800a988:	89a3      	ldrh	r3, [r4, #12]
 800a98a:	f023 0303 	bic.w	r3, r3, #3
 800a98e:	f043 0301 	orr.w	r3, r3, #1
 800a992:	81a3      	strh	r3, [r4, #12]
 800a994:	89a3      	ldrh	r3, [r4, #12]
 800a996:	431d      	orrs	r5, r3
 800a998:	81a5      	strh	r5, [r4, #12]
 800a99a:	e7cd      	b.n	800a938 <__smakebuf_r+0x18>
 800a99c:	08007bbd 	.word	0x08007bbd

0800a9a0 <malloc>:
 800a9a0:	4b02      	ldr	r3, [pc, #8]	; (800a9ac <malloc+0xc>)
 800a9a2:	4601      	mov	r1, r0
 800a9a4:	6818      	ldr	r0, [r3, #0]
 800a9a6:	f7fd bb39 	b.w	800801c <_malloc_r>
 800a9aa:	bf00      	nop
 800a9ac:	20000020 	.word	0x20000020

0800a9b0 <memmove>:
 800a9b0:	4288      	cmp	r0, r1
 800a9b2:	b510      	push	{r4, lr}
 800a9b4:	eb01 0302 	add.w	r3, r1, r2
 800a9b8:	d803      	bhi.n	800a9c2 <memmove+0x12>
 800a9ba:	1e42      	subs	r2, r0, #1
 800a9bc:	4299      	cmp	r1, r3
 800a9be:	d10c      	bne.n	800a9da <memmove+0x2a>
 800a9c0:	bd10      	pop	{r4, pc}
 800a9c2:	4298      	cmp	r0, r3
 800a9c4:	d2f9      	bcs.n	800a9ba <memmove+0xa>
 800a9c6:	1881      	adds	r1, r0, r2
 800a9c8:	1ad2      	subs	r2, r2, r3
 800a9ca:	42d3      	cmn	r3, r2
 800a9cc:	d100      	bne.n	800a9d0 <memmove+0x20>
 800a9ce:	bd10      	pop	{r4, pc}
 800a9d0:	f813 4d01 	ldrb.w	r4, [r3, #-1]!
 800a9d4:	f801 4d01 	strb.w	r4, [r1, #-1]!
 800a9d8:	e7f7      	b.n	800a9ca <memmove+0x1a>
 800a9da:	f811 4b01 	ldrb.w	r4, [r1], #1
 800a9de:	f802 4f01 	strb.w	r4, [r2, #1]!
 800a9e2:	e7eb      	b.n	800a9bc <memmove+0xc>

0800a9e4 <_Balloc>:
 800a9e4:	b570      	push	{r4, r5, r6, lr}
 800a9e6:	6a45      	ldr	r5, [r0, #36]	; 0x24
 800a9e8:	4604      	mov	r4, r0
 800a9ea:	460e      	mov	r6, r1
 800a9ec:	b93d      	cbnz	r5, 800a9fe <_Balloc+0x1a>
 800a9ee:	2010      	movs	r0, #16
 800a9f0:	f7ff ffd6 	bl	800a9a0 <malloc>
 800a9f4:	6260      	str	r0, [r4, #36]	; 0x24
 800a9f6:	6045      	str	r5, [r0, #4]
 800a9f8:	6085      	str	r5, [r0, #8]
 800a9fa:	6005      	str	r5, [r0, #0]
 800a9fc:	60c5      	str	r5, [r0, #12]
 800a9fe:	6a65      	ldr	r5, [r4, #36]	; 0x24
 800aa00:	68eb      	ldr	r3, [r5, #12]
 800aa02:	b183      	cbz	r3, 800aa26 <_Balloc+0x42>
 800aa04:	6a63      	ldr	r3, [r4, #36]	; 0x24
 800aa06:	68db      	ldr	r3, [r3, #12]
 800aa08:	f853 0026 	ldr.w	r0, [r3, r6, lsl #2]
 800aa0c:	b9b8      	cbnz	r0, 800aa3e <_Balloc+0x5a>
 800aa0e:	2101      	movs	r1, #1
 800aa10:	fa01 f506 	lsl.w	r5, r1, r6
 800aa14:	1d6a      	adds	r2, r5, #5
 800aa16:	0092      	lsls	r2, r2, #2
 800aa18:	4620      	mov	r0, r4
 800aa1a:	f000 fd21 	bl	800b460 <_calloc_r>
 800aa1e:	b160      	cbz	r0, 800aa3a <_Balloc+0x56>
 800aa20:	6046      	str	r6, [r0, #4]
 800aa22:	6085      	str	r5, [r0, #8]
 800aa24:	e00e      	b.n	800aa44 <_Balloc+0x60>
 800aa26:	2221      	movs	r2, #33	; 0x21
 800aa28:	2104      	movs	r1, #4
 800aa2a:	4620      	mov	r0, r4
 800aa2c:	f000 fd18 	bl	800b460 <_calloc_r>
 800aa30:	6a63      	ldr	r3, [r4, #36]	; 0x24
 800aa32:	60e8      	str	r0, [r5, #12]
 800aa34:	68db      	ldr	r3, [r3, #12]
 800aa36:	2b00      	cmp	r3, #0
 800aa38:	d1e4      	bne.n	800aa04 <_Balloc+0x20>
 800aa3a:	2000      	movs	r0, #0
 800aa3c:	bd70      	pop	{r4, r5, r6, pc}
 800aa3e:	6802      	ldr	r2, [r0, #0]
 800aa40:	f843 2026 	str.w	r2, [r3, r6, lsl #2]
 800aa44:	2300      	movs	r3, #0
 800aa46:	6103      	str	r3, [r0, #16]
 800aa48:	60c3      	str	r3, [r0, #12]
 800aa4a:	bd70      	pop	{r4, r5, r6, pc}

0800aa4c <_Bfree>:
 800aa4c:	b570      	push	{r4, r5, r6, lr}
 800aa4e:	6a44      	ldr	r4, [r0, #36]	; 0x24
 800aa50:	4606      	mov	r6, r0
 800aa52:	460d      	mov	r5, r1
 800aa54:	b93c      	cbnz	r4, 800aa66 <_Bfree+0x1a>
 800aa56:	2010      	movs	r0, #16
 800aa58:	f7ff ffa2 	bl	800a9a0 <malloc>
 800aa5c:	6270      	str	r0, [r6, #36]	; 0x24
 800aa5e:	6044      	str	r4, [r0, #4]
 800aa60:	6084      	str	r4, [r0, #8]
 800aa62:	6004      	str	r4, [r0, #0]
 800aa64:	60c4      	str	r4, [r0, #12]
 800aa66:	b13d      	cbz	r5, 800aa78 <_Bfree+0x2c>
 800aa68:	6a73      	ldr	r3, [r6, #36]	; 0x24
 800aa6a:	686a      	ldr	r2, [r5, #4]
 800aa6c:	68db      	ldr	r3, [r3, #12]
 800aa6e:	f853 1022 	ldr.w	r1, [r3, r2, lsl #2]
 800aa72:	6029      	str	r1, [r5, #0]
 800aa74:	f843 5022 	str.w	r5, [r3, r2, lsl #2]
 800aa78:	bd70      	pop	{r4, r5, r6, pc}

0800aa7a <__multadd>:
 800aa7a:	e92d 41f0 	stmdb	sp!, {r4, r5, r6, r7, r8, lr}
 800aa7e:	690d      	ldr	r5, [r1, #16]
 800aa80:	461f      	mov	r7, r3
 800aa82:	4606      	mov	r6, r0
 800aa84:	460c      	mov	r4, r1
 800aa86:	f101 0e14 	add.w	lr, r1, #20
 800aa8a:	2300      	movs	r3, #0
 800aa8c:	f8de 0000 	ldr.w	r0, [lr]
 800aa90:	b281      	uxth	r1, r0
 800aa92:	fb02 7101 	mla	r1, r2, r1, r7
 800aa96:	0c0f      	lsrs	r7, r1, #16
 800aa98:	0c00      	lsrs	r0, r0, #16
 800aa9a:	fb02 7000 	mla	r0, r2, r0, r7
 800aa9e:	b289      	uxth	r1, r1
 800aaa0:	3301      	adds	r3, #1
 800aaa2:	eb01 4100 	add.w	r1, r1, r0, lsl #16
 800aaa6:	429d      	cmp	r5, r3
 800aaa8:	ea4f 4710 	mov.w	r7, r0, lsr #16
 800aaac:	f84e 1b04 	str.w	r1, [lr], #4
 800aab0:	dcec      	bgt.n	800aa8c <__multadd+0x12>
 800aab2:	b1d7      	cbz	r7, 800aaea <__multadd+0x70>
 800aab4:	68a3      	ldr	r3, [r4, #8]
 800aab6:	429d      	cmp	r5, r3
 800aab8:	db12      	blt.n	800aae0 <__multadd+0x66>
 800aaba:	6861      	ldr	r1, [r4, #4]
 800aabc:	4630      	mov	r0, r6
 800aabe:	3101      	adds	r1, #1
 800aac0:	f7ff ff90 	bl	800a9e4 <_Balloc>
 800aac4:	6922      	ldr	r2, [r4, #16]
 800aac6:	3202      	adds	r2, #2
 800aac8:	f104 010c 	add.w	r1, r4, #12
 800aacc:	4680      	mov	r8, r0
 800aace:	0092      	lsls	r2, r2, #2
 800aad0:	300c      	adds	r0, #12
 800aad2:	f7fd fcb1 	bl	8008438 <memcpy>
 800aad6:	4621      	mov	r1, r4
 800aad8:	4630      	mov	r0, r6
 800aada:	f7ff ffb7 	bl	800aa4c <_Bfree>
 800aade:	4644      	mov	r4, r8
 800aae0:	eb04 0385 	add.w	r3, r4, r5, lsl #2
 800aae4:	3501      	adds	r5, #1
 800aae6:	615f      	str	r7, [r3, #20]
 800aae8:	6125      	str	r5, [r4, #16]
 800aaea:	4620      	mov	r0, r4
 800aaec:	e8bd 81f0 	ldmia.w	sp!, {r4, r5, r6, r7, r8, pc}

0800aaf0 <__hi0bits>:
 800aaf0:	0c02      	lsrs	r2, r0, #16
 800aaf2:	0412      	lsls	r2, r2, #16
 800aaf4:	4603      	mov	r3, r0
 800aaf6:	b9b2      	cbnz	r2, 800ab26 <__hi0bits+0x36>
 800aaf8:	0403      	lsls	r3, r0, #16
 800aafa:	2010      	movs	r0, #16
 800aafc:	f013 4f7f 	tst.w	r3, #4278190080	; 0xff000000
 800ab00:	bf04      	itt	eq
 800ab02:	021b      	lsleq	r3, r3, #8
 800ab04:	3008      	addeq	r0, #8
 800ab06:	f013 4f70 	tst.w	r3, #4026531840	; 0xf0000000
 800ab0a:	bf04      	itt	eq
 800ab0c:	011b      	lsleq	r3, r3, #4
 800ab0e:	3004      	addeq	r0, #4
 800ab10:	f013 4f40 	tst.w	r3, #3221225472	; 0xc0000000
 800ab14:	bf04      	itt	eq
 800ab16:	009b      	lsleq	r3, r3, #2
 800ab18:	3002      	addeq	r0, #2
 800ab1a:	2b00      	cmp	r3, #0
 800ab1c:	db06      	blt.n	800ab2c <__hi0bits+0x3c>
 800ab1e:	005b      	lsls	r3, r3, #1
 800ab20:	d503      	bpl.n	800ab2a <__hi0bits+0x3a>
 800ab22:	3001      	adds	r0, #1
 800ab24:	4770      	bx	lr
 800ab26:	2000      	movs	r0, #0
 800ab28:	e7e8      	b.n	800aafc <__hi0bits+0xc>
 800ab2a:	2020      	movs	r0, #32
 800ab2c:	4770      	bx	lr

0800ab2e <__lo0bits>:
 800ab2e:	6803      	ldr	r3, [r0, #0]
 800ab30:	f013 0207 	ands.w	r2, r3, #7
 800ab34:	4601      	mov	r1, r0
 800ab36:	d00b      	beq.n	800ab50 <__lo0bits+0x22>
 800ab38:	07da      	lsls	r2, r3, #31
 800ab3a:	d423      	bmi.n	800ab84 <__lo0bits+0x56>
 800ab3c:	0798      	lsls	r0, r3, #30
 800ab3e:	bf49      	itett	mi
 800ab40:	085b      	lsrmi	r3, r3, #1
 800ab42:	089b      	lsrpl	r3, r3, #2
 800ab44:	2001      	movmi	r0, #1
 800ab46:	600b      	strmi	r3, [r1, #0]
 800ab48:	bf5c      	itt	pl
 800ab4a:	600b      	strpl	r3, [r1, #0]
 800ab4c:	2002      	movpl	r0, #2
 800ab4e:	4770      	bx	lr
 800ab50:	b298      	uxth	r0, r3
 800ab52:	b9a8      	cbnz	r0, 800ab80 <__lo0bits+0x52>
 800ab54:	0c1b      	lsrs	r3, r3, #16
 800ab56:	2010      	movs	r0, #16
 800ab58:	f013 0fff 	tst.w	r3, #255	; 0xff
 800ab5c:	bf04      	itt	eq
 800ab5e:	0a1b      	lsreq	r3, r3, #8
 800ab60:	3008      	addeq	r0, #8
 800ab62:	071a      	lsls	r2, r3, #28
 800ab64:	bf04      	itt	eq
 800ab66:	091b      	lsreq	r3, r3, #4
 800ab68:	3004      	addeq	r0, #4
 800ab6a:	079a      	lsls	r2, r3, #30
 800ab6c:	bf04      	itt	eq
 800ab6e:	089b      	lsreq	r3, r3, #2
 800ab70:	3002      	addeq	r0, #2
 800ab72:	07da      	lsls	r2, r3, #31
 800ab74:	d402      	bmi.n	800ab7c <__lo0bits+0x4e>
 800ab76:	085b      	lsrs	r3, r3, #1
 800ab78:	d006      	beq.n	800ab88 <__lo0bits+0x5a>
 800ab7a:	3001      	adds	r0, #1
 800ab7c:	600b      	str	r3, [r1, #0]
 800ab7e:	4770      	bx	lr
 800ab80:	4610      	mov	r0, r2
 800ab82:	e7e9      	b.n	800ab58 <__lo0bits+0x2a>
 800ab84:	2000      	movs	r0, #0
 800ab86:	4770      	bx	lr
 800ab88:	2020      	movs	r0, #32
 800ab8a:	4770      	bx	lr

0800ab8c <__i2b>:
 800ab8c:	b510      	push	{r4, lr}
 800ab8e:	460c      	mov	r4, r1
 800ab90:	2101      	movs	r1, #1
 800ab92:	f7ff ff27 	bl	800a9e4 <_Balloc>
 800ab96:	2201      	movs	r2, #1
 800ab98:	6144      	str	r4, [r0, #20]
 800ab9a:	6102      	str	r2, [r0, #16]
 800ab9c:	bd10      	pop	{r4, pc}

0800ab9e <__multiply>:
 800ab9e:	e92d 4ff7 	stmdb	sp!, {r0, r1, r2, r4, r5, r6, r7, r8, r9, sl, fp, lr}
 800aba2:	4614      	mov	r4, r2
 800aba4:	690a      	ldr	r2, [r1, #16]
 800aba6:	6923      	ldr	r3, [r4, #16]
 800aba8:	429a      	cmp	r2, r3
 800abaa:	bfb8      	it	lt
 800abac:	460b      	movlt	r3, r1
 800abae:	4689      	mov	r9, r1
 800abb0:	bfbc      	itt	lt
 800abb2:	46a1      	movlt	r9, r4
 800abb4:	461c      	movlt	r4, r3
 800abb6:	f8d9 7010 	ldr.w	r7, [r9, #16]
 800abba:	f8d4 a010 	ldr.w	sl, [r4, #16]
 800abbe:	f8d9 3008 	ldr.w	r3, [r9, #8]
 800abc2:	f8d9 1004 	ldr.w	r1, [r9, #4]
 800abc6:	eb07 060a 	add.w	r6, r7, sl
 800abca:	429e      	cmp	r6, r3
 800abcc:	bfc8      	it	gt
 800abce:	3101      	addgt	r1, #1
 800abd0:	f7ff ff08 	bl	800a9e4 <_Balloc>
 800abd4:	f100 0514 	add.w	r5, r0, #20
 800abd8:	eb05 0886 	add.w	r8, r5, r6, lsl #2
 800abdc:	462b      	mov	r3, r5
 800abde:	2200      	movs	r2, #0
 800abe0:	4543      	cmp	r3, r8
 800abe2:	d316      	bcc.n	800ac12 <__multiply+0x74>
 800abe4:	f104 0214 	add.w	r2, r4, #20
 800abe8:	f109 0114 	add.w	r1, r9, #20
 800abec:	eb02 038a 	add.w	r3, r2, sl, lsl #2
 800abf0:	eb01 0787 	add.w	r7, r1, r7, lsl #2
 800abf4:	9301      	str	r3, [sp, #4]
 800abf6:	9c01      	ldr	r4, [sp, #4]
 800abf8:	4294      	cmp	r4, r2
 800abfa:	4613      	mov	r3, r2
 800abfc:	d80c      	bhi.n	800ac18 <__multiply+0x7a>
 800abfe:	2e00      	cmp	r6, #0
 800ac00:	dd03      	ble.n	800ac0a <__multiply+0x6c>
 800ac02:	f858 3d04 	ldr.w	r3, [r8, #-4]!
 800ac06:	2b00      	cmp	r3, #0
 800ac08:	d054      	beq.n	800acb4 <__multiply+0x116>
 800ac0a:	6106      	str	r6, [r0, #16]
 800ac0c:	b003      	add	sp, #12
 800ac0e:	e8bd 8ff0 	ldmia.w	sp!, {r4, r5, r6, r7, r8, r9, sl, fp, pc}
 800ac12:	f843 2b04 	str.w	r2, [r3], #4
 800ac16:	e7e3      	b.n	800abe0 <__multiply+0x42>
 800ac18:	f8b3 a000 	ldrh.w	sl, [r3]
 800ac1c:	3204      	adds	r2, #4
 800ac1e:	f1ba 0f00 	cmp.w	sl, #0
 800ac22:	d020      	beq.n	800ac66 <__multiply+0xc8>
 800ac24:	46ae      	mov	lr, r5
 800ac26:	4689      	mov	r9, r1
 800ac28:	f04f 0c00 	mov.w	ip, #0
 800ac2c:	f859 4b04 	ldr.w	r4, [r9], #4
 800ac30:	f8be b000 	ldrh.w	fp, [lr]
 800ac34:	b2a3      	uxth	r3, r4
 800ac36:	fb0a b303 	mla	r3, sl, r3, fp
 800ac3a:	ea4f 4b14 	mov.w	fp, r4, lsr #16
 800ac3e:	f8de 4000 	ldr.w	r4, [lr]
 800ac42:	4463      	add	r3, ip
 800ac44:	ea4f 4c14 	mov.w	ip, r4, lsr #16
 800ac48:	fb0a c40b 	mla	r4, sl, fp, ip
 800ac4c:	eb04 4413 	add.w	r4, r4, r3, lsr #16
 800ac50:	b29b      	uxth	r3, r3
 800ac52:	ea43 4304 	orr.w	r3, r3, r4, lsl #16
 800ac56:	454f      	cmp	r7, r9
 800ac58:	ea4f 4c14 	mov.w	ip, r4, lsr #16
 800ac5c:	f84e 3b04 	str.w	r3, [lr], #4
 800ac60:	d8e4      	bhi.n	800ac2c <__multiply+0x8e>
 800ac62:	f8ce c000 	str.w	ip, [lr]
 800ac66:	f832 9c02 	ldrh.w	r9, [r2, #-2]
 800ac6a:	f1b9 0f00 	cmp.w	r9, #0
 800ac6e:	d01f      	beq.n	800acb0 <__multiply+0x112>
 800ac70:	682b      	ldr	r3, [r5, #0]
 800ac72:	46ae      	mov	lr, r5
 800ac74:	468c      	mov	ip, r1
 800ac76:	f04f 0a00 	mov.w	sl, #0
 800ac7a:	f8bc 4000 	ldrh.w	r4, [ip]
 800ac7e:	f8be b002 	ldrh.w	fp, [lr, #2]
 800ac82:	fb09 b404 	mla	r4, r9, r4, fp
 800ac86:	44a2      	add	sl, r4
 800ac88:	b29b      	uxth	r3, r3
 800ac8a:	ea43 430a 	orr.w	r3, r3, sl, lsl #16
 800ac8e:	f84e 3b04 	str.w	r3, [lr], #4
 800ac92:	f85c 3b04 	ldr.w	r3, [ip], #4
 800ac96:	f8be 4000 	ldrh.w	r4, [lr]
 800ac9a:	0c1b      	lsrs	r3, r3, #16
 800ac9c:	fb09 4303 	mla	r3, r9, r3, r4
 800aca0:	eb03 431a 	add.w	r3, r3, sl, lsr #16
 800aca4:	4567      	cmp	r7, ip
 800aca6:	ea4f 4a13 	mov.w	sl, r3, lsr #16
 800acaa:	d8e6      	bhi.n	800ac7a <__multiply+0xdc>
 800acac:	f8ce 3000 	str.w	r3, [lr]
 800acb0:	3504      	adds	r5, #4
 800acb2:	e7a0      	b.n	800abf6 <__multiply+0x58>
 800acb4:	3e01      	subs	r6, #1
 800acb6:	e7a2      	b.n	800abfe <__multiply+0x60>

0800acb8 <__pow5mult>:
 800acb8:	e92d 43f8 	stmdb	sp!, {r3, r4, r5, r6, r7, r8, r9, lr}
 800acbc:	4615      	mov	r5, r2
 800acbe:	f012 0203 	ands.w	r2, r2, #3
 800acc2:	4606      	mov	r6, r0
 800acc4:	460f      	mov	r7, r1
 800acc6:	d007      	beq.n	800acd8 <__pow5mult+0x20>
 800acc8:	3a01      	subs	r2, #1
 800acca:	4c21      	ldr	r4, [pc, #132]	; (800ad50 <__pow5mult+0x98>)
 800accc:	2300      	movs	r3, #0
 800acce:	f854 2022 	ldr.w	r2, [r4, r2, lsl #2]
 800acd2:	f7ff fed2 	bl	800aa7a <__multadd>
 800acd6:	4607      	mov	r7, r0
 800acd8:	10ad      	asrs	r5, r5, #2
 800acda:	d035      	beq.n	800ad48 <__pow5mult+0x90>
 800acdc:	6a74      	ldr	r4, [r6, #36]	; 0x24
 800acde:	b93c      	cbnz	r4, 800acf0 <__pow5mult+0x38>
 800ace0:	2010      	movs	r0, #16
 800ace2:	f7ff fe5d 	bl	800a9a0 <malloc>
 800ace6:	6270      	str	r0, [r6, #36]	; 0x24
 800ace8:	6044      	str	r4, [r0, #4]
 800acea:	6084      	str	r4, [r0, #8]
 800acec:	6004      	str	r4, [r0, #0]
 800acee:	60c4      	str	r4, [r0, #12]
 800acf0:	f8d6 8024 	ldr.w	r8, [r6, #36]	; 0x24
 800acf4:	f8d8 4008 	ldr.w	r4, [r8, #8]
 800acf8:	b94c      	cbnz	r4, 800ad0e <__pow5mult+0x56>
 800acfa:	f240 2171 	movw	r1, #625	; 0x271
 800acfe:	4630      	mov	r0, r6
 800ad00:	f7ff ff44 	bl	800ab8c <__i2b>
 800ad04:	2300      	movs	r3, #0
 800ad06:	f8c8 0008 	str.w	r0, [r8, #8]
 800ad0a:	4604      	mov	r4, r0
 800ad0c:	6003      	str	r3, [r0, #0]
 800ad0e:	f04f 0800 	mov.w	r8, #0
 800ad12:	07eb      	lsls	r3, r5, #31
 800ad14:	d50a      	bpl.n	800ad2c <__pow5mult+0x74>
 800ad16:	4639      	mov	r1, r7
 800ad18:	4622      	mov	r2, r4
 800ad1a:	4630      	mov	r0, r6
 800ad1c:	f7ff ff3f 	bl	800ab9e <__multiply>
 800ad20:	4639      	mov	r1, r7
 800ad22:	4681      	mov	r9, r0
 800ad24:	4630      	mov	r0, r6
 800ad26:	f7ff fe91 	bl	800aa4c <_Bfree>
 800ad2a:	464f      	mov	r7, r9
 800ad2c:	106d      	asrs	r5, r5, #1
 800ad2e:	d00b      	beq.n	800ad48 <__pow5mult+0x90>
 800ad30:	6820      	ldr	r0, [r4, #0]
 800ad32:	b938      	cbnz	r0, 800ad44 <__pow5mult+0x8c>
 800ad34:	4622      	mov	r2, r4
 800ad36:	4621      	mov	r1, r4
 800ad38:	4630      	mov	r0, r6
 800ad3a:	f7ff ff30 	bl	800ab9e <__multiply>
 800ad3e:	6020      	str	r0, [r4, #0]
 800ad40:	f8c0 8000 	str.w	r8, [r0]
 800ad44:	4604      	mov	r4, r0
 800ad46:	e7e4      	b.n	800ad12 <__pow5mult+0x5a>
 800ad48:	4638      	mov	r0, r7
 800ad4a:	e8bd 83f8 	ldmia.w	sp!, {r3, r4, r5, r6, r7, r8, r9, pc}
 800ad4e:	bf00      	nop
 800ad50:	0800bdd0 	.word	0x0800bdd0

0800ad54 <__lshift>:
 800ad54:	e92d 47f0 	stmdb	sp!, {r4, r5, r6, r7, r8, r9, sl, lr}
 800ad58:	460c      	mov	r4, r1
 800ad5a:	ea4f 1a62 	mov.w	sl, r2, asr #5
 800ad5e:	6923      	ldr	r3, [r4, #16]
 800ad60:	6849      	ldr	r1, [r1, #4]
 800ad62:	eb0a 0903 	add.w	r9, sl, r3
 800ad66:	68a3      	ldr	r3, [r4, #8]
 800ad68:	4607      	mov	r7, r0
 800ad6a:	4616      	mov	r6, r2
 800ad6c:	f109 0501 	add.w	r5, r9, #1
 800ad70:	42ab      	cmp	r3, r5
 800ad72:	db31      	blt.n	800add8 <__lshift+0x84>
 800ad74:	4638      	mov	r0, r7
 800ad76:	f7ff fe35 	bl	800a9e4 <_Balloc>
 800ad7a:	2200      	movs	r2, #0
 800ad7c:	4680      	mov	r8, r0
 800ad7e:	f100 0314 	add.w	r3, r0, #20
 800ad82:	4611      	mov	r1, r2
 800ad84:	4552      	cmp	r2, sl
 800ad86:	db2a      	blt.n	800adde <__lshift+0x8a>
 800ad88:	6920      	ldr	r0, [r4, #16]
 800ad8a:	ea2a 7aea 	bic.w	sl, sl, sl, asr #31
 800ad8e:	f104 0114 	add.w	r1, r4, #20
 800ad92:	f016 021f 	ands.w	r2, r6, #31
 800ad96:	eb03 038a 	add.w	r3, r3, sl, lsl #2
 800ad9a:	eb01 0e80 	add.w	lr, r1, r0, lsl #2
 800ad9e:	d022      	beq.n	800ade6 <__lshift+0x92>
 800ada0:	f1c2 0c20 	rsb	ip, r2, #32
 800ada4:	2000      	movs	r0, #0
 800ada6:	680e      	ldr	r6, [r1, #0]
 800ada8:	4096      	lsls	r6, r2
 800adaa:	4330      	orrs	r0, r6
 800adac:	f843 0b04 	str.w	r0, [r3], #4
 800adb0:	f851 0b04 	ldr.w	r0, [r1], #4
 800adb4:	458e      	cmp	lr, r1
 800adb6:	fa20 f00c 	lsr.w	r0, r0, ip
 800adba:	d8f4      	bhi.n	800ada6 <__lshift+0x52>
 800adbc:	6018      	str	r0, [r3, #0]
 800adbe:	b108      	cbz	r0, 800adc4 <__lshift+0x70>
 800adc0:	f109 0502 	add.w	r5, r9, #2
 800adc4:	3d01      	subs	r5, #1
 800adc6:	4638      	mov	r0, r7
 800adc8:	f8c8 5010 	str.w	r5, [r8, #16]
 800adcc:	4621      	mov	r1, r4
 800adce:	f7ff fe3d 	bl	800aa4c <_Bfree>
 800add2:	4640      	mov	r0, r8
 800add4:	e8bd 87f0 	ldmia.w	sp!, {r4, r5, r6, r7, r8, r9, sl, pc}
 800add8:	3101      	adds	r1, #1
 800adda:	005b      	lsls	r3, r3, #1
 800addc:	e7c8      	b.n	800ad70 <__lshift+0x1c>
 800adde:	f843 1022 	str.w	r1, [r3, r2, lsl #2]
 800ade2:	3201      	adds	r2, #1
 800ade4:	e7ce      	b.n	800ad84 <__lshift+0x30>
 800ade6:	3b04      	subs	r3, #4
 800ade8:	f851 2b04 	ldr.w	r2, [r1], #4
 800adec:	f843 2f04 	str.w	r2, [r3, #4]!
 800adf0:	458e      	cmp	lr, r1
 800adf2:	d8f9      	bhi.n	800ade8 <__lshift+0x94>
 800adf4:	e7e6      	b.n	800adc4 <__lshift+0x70>

0800adf6 <__mcmp>:
 800adf6:	6903      	ldr	r3, [r0, #16]
 800adf8:	690a      	ldr	r2, [r1, #16]
 800adfa:	1a9b      	subs	r3, r3, r2
 800adfc:	b530      	push	{r4, r5, lr}
 800adfe:	d10c      	bne.n	800ae1a <__mcmp+0x24>
 800ae00:	0092      	lsls	r2, r2, #2
 800ae02:	3014      	adds	r0, #20
 800ae04:	3114      	adds	r1, #20
 800ae06:	1884      	adds	r4, r0, r2
 800ae08:	4411      	add	r1, r2
 800ae0a:	f854 5d04 	ldr.w	r5, [r4, #-4]!
 800ae0e:	f851 2d04 	ldr.w	r2, [r1, #-4]!
 800ae12:	4295      	cmp	r5, r2
 800ae14:	d003      	beq.n	800ae1e <__mcmp+0x28>
 800ae16:	d305      	bcc.n	800ae24 <__mcmp+0x2e>
 800ae18:	2301      	movs	r3, #1
 800ae1a:	4618      	mov	r0, r3
 800ae1c:	bd30      	pop	{r4, r5, pc}
 800ae1e:	42a0      	cmp	r0, r4
 800ae20:	d3f3      	bcc.n	800ae0a <__mcmp+0x14>
 800ae22:	e7fa      	b.n	800ae1a <__mcmp+0x24>
 800ae24:	f04f 33ff 	mov.w	r3, #4294967295
 800ae28:	e7f7      	b.n	800ae1a <__mcmp+0x24>

0800ae2a <__mdiff>:
 800ae2a:	e92d 47f0 	stmdb	sp!, {r4, r5, r6, r7, r8, r9, sl, lr}
 800ae2e:	460d      	mov	r5, r1
 800ae30:	4607      	mov	r7, r0
 800ae32:	4611      	mov	r1, r2
 800ae34:	4628      	mov	r0, r5
 800ae36:	4614      	mov	r4, r2
 800ae38:	f7ff ffdd 	bl	800adf6 <__mcmp>
 800ae3c:	1e06      	subs	r6, r0, #0
 800ae3e:	d108      	bne.n	800ae52 <__mdiff+0x28>
 800ae40:	4631      	mov	r1, r6
 800ae42:	4638      	mov	r0, r7
 800ae44:	f7ff fdce 	bl	800a9e4 <_Balloc>
 800ae48:	2301      	movs	r3, #1
 800ae4a:	6103      	str	r3, [r0, #16]
 800ae4c:	6146      	str	r6, [r0, #20]
 800ae4e:	e8bd 87f0 	ldmia.w	sp!, {r4, r5, r6, r7, r8, r9, sl, pc}
 800ae52:	bfa4      	itt	ge
 800ae54:	4623      	movge	r3, r4
 800ae56:	462c      	movge	r4, r5
 800ae58:	4638      	mov	r0, r7
 800ae5a:	6861      	ldr	r1, [r4, #4]
 800ae5c:	bfa6      	itte	ge
 800ae5e:	461d      	movge	r5, r3
 800ae60:	2600      	movge	r6, #0
 800ae62:	2601      	movlt	r6, #1
 800ae64:	f7ff fdbe 	bl	800a9e4 <_Balloc>
 800ae68:	692b      	ldr	r3, [r5, #16]
 800ae6a:	60c6      	str	r6, [r0, #12]
 800ae6c:	6926      	ldr	r6, [r4, #16]
 800ae6e:	f105 0914 	add.w	r9, r5, #20
 800ae72:	f104 0214 	add.w	r2, r4, #20
 800ae76:	eb02 0786 	add.w	r7, r2, r6, lsl #2
 800ae7a:	eb09 0883 	add.w	r8, r9, r3, lsl #2
 800ae7e:	f100 0514 	add.w	r5, r0, #20
 800ae82:	f04f 0c00 	mov.w	ip, #0
 800ae86:	f852 ab04 	ldr.w	sl, [r2], #4
 800ae8a:	f859 4b04 	ldr.w	r4, [r9], #4
 800ae8e:	fa1c f18a 	uxtah	r1, ip, sl
 800ae92:	b2a3      	uxth	r3, r4
 800ae94:	1ac9      	subs	r1, r1, r3
 800ae96:	0c23      	lsrs	r3, r4, #16
 800ae98:	ebc3 431a 	rsb	r3, r3, sl, lsr #16
 800ae9c:	eb03 4321 	add.w	r3, r3, r1, asr #16
 800aea0:	b289      	uxth	r1, r1
 800aea2:	ea4f 4c23 	mov.w	ip, r3, asr #16
 800aea6:	45c8      	cmp	r8, r9
 800aea8:	ea41 4303 	orr.w	r3, r1, r3, lsl #16
 800aeac:	4696      	mov	lr, r2
 800aeae:	f845 3b04 	str.w	r3, [r5], #4
 800aeb2:	d8e8      	bhi.n	800ae86 <__mdiff+0x5c>
 800aeb4:	45be      	cmp	lr, r7
 800aeb6:	d305      	bcc.n	800aec4 <__mdiff+0x9a>
 800aeb8:	f855 3d04 	ldr.w	r3, [r5, #-4]!
 800aebc:	b18b      	cbz	r3, 800aee2 <__mdiff+0xb8>
 800aebe:	6106      	str	r6, [r0, #16]
 800aec0:	e8bd 87f0 	ldmia.w	sp!, {r4, r5, r6, r7, r8, r9, sl, pc}
 800aec4:	f85e 1b04 	ldr.w	r1, [lr], #4
 800aec8:	fa1c f381 	uxtah	r3, ip, r1
 800aecc:	141a      	asrs	r2, r3, #16
 800aece:	eb02 4211 	add.w	r2, r2, r1, lsr #16
 800aed2:	b29b      	uxth	r3, r3
 800aed4:	ea43 4302 	orr.w	r3, r3, r2, lsl #16
 800aed8:	ea4f 4c22 	mov.w	ip, r2, asr #16
 800aedc:	f845 3b04 	str.w	r3, [r5], #4
 800aee0:	e7e8      	b.n	800aeb4 <__mdiff+0x8a>
 800aee2:	3e01      	subs	r6, #1
 800aee4:	e7e8      	b.n	800aeb8 <__mdiff+0x8e>

0800aee6 <__d2b>:
 800aee6:	e92d 43f7 	stmdb	sp!, {r0, r1, r2, r4, r5, r6, r7, r8, r9, lr}
 800aeea:	460e      	mov	r6, r1
 800aeec:	2101      	movs	r1, #1
 800aeee:	ec59 8b10 	vmov	r8, r9, d0
 800aef2:	4615      	mov	r5, r2
 800aef4:	f7ff fd76 	bl	800a9e4 <_Balloc>
 800aef8:	f3c9 540a 	ubfx	r4, r9, #20, #11
 800aefc:	4607      	mov	r7, r0
 800aefe:	f3c9 0313 	ubfx	r3, r9, #0, #20
 800af02:	bb34      	cbnz	r4, 800af52 <__d2b+0x6c>
 800af04:	9301      	str	r3, [sp, #4]
 800af06:	f1b8 0f00 	cmp.w	r8, #0
 800af0a:	d027      	beq.n	800af5c <__d2b+0x76>
 800af0c:	a802      	add	r0, sp, #8
 800af0e:	f840 8d08 	str.w	r8, [r0, #-8]!
 800af12:	f7ff fe0c 	bl	800ab2e <__lo0bits>
 800af16:	9900      	ldr	r1, [sp, #0]
 800af18:	b1f0      	cbz	r0, 800af58 <__d2b+0x72>
 800af1a:	9a01      	ldr	r2, [sp, #4]
 800af1c:	f1c0 0320 	rsb	r3, r0, #32
 800af20:	fa02 f303 	lsl.w	r3, r2, r3
 800af24:	430b      	orrs	r3, r1
 800af26:	40c2      	lsrs	r2, r0
 800af28:	617b      	str	r3, [r7, #20]
 800af2a:	9201      	str	r2, [sp, #4]
 800af2c:	9b01      	ldr	r3, [sp, #4]
 800af2e:	61bb      	str	r3, [r7, #24]
 800af30:	2b00      	cmp	r3, #0
 800af32:	bf14      	ite	ne
 800af34:	2102      	movne	r1, #2
 800af36:	2101      	moveq	r1, #1
 800af38:	6139      	str	r1, [r7, #16]
 800af3a:	b1c4      	cbz	r4, 800af6e <__d2b+0x88>
 800af3c:	f2a4 4433 	subw	r4, r4, #1075	; 0x433
 800af40:	4404      	add	r4, r0
 800af42:	6034      	str	r4, [r6, #0]
 800af44:	f1c0 0035 	rsb	r0, r0, #53	; 0x35
 800af48:	6028      	str	r0, [r5, #0]
 800af4a:	4638      	mov	r0, r7
 800af4c:	b003      	add	sp, #12
 800af4e:	e8bd 83f0 	ldmia.w	sp!, {r4, r5, r6, r7, r8, r9, pc}
 800af52:	f443 1380 	orr.w	r3, r3, #1048576	; 0x100000
 800af56:	e7d5      	b.n	800af04 <__d2b+0x1e>
 800af58:	6179      	str	r1, [r7, #20]
 800af5a:	e7e7      	b.n	800af2c <__d2b+0x46>
 800af5c:	a801      	add	r0, sp, #4
 800af5e:	f7ff fde6 	bl	800ab2e <__lo0bits>
 800af62:	9b01      	ldr	r3, [sp, #4]
 800af64:	617b      	str	r3, [r7, #20]
 800af66:	2101      	movs	r1, #1
 800af68:	6139      	str	r1, [r7, #16]
 800af6a:	3020      	adds	r0, #32
 800af6c:	e7e5      	b.n	800af3a <__d2b+0x54>
 800af6e:	eb07 0381 	add.w	r3, r7, r1, lsl #2
 800af72:	f2a0 4032 	subw	r0, r0, #1074	; 0x432
 800af76:	6030      	str	r0, [r6, #0]
 800af78:	6918      	ldr	r0, [r3, #16]
 800af7a:	f7ff fdb9 	bl	800aaf0 <__hi0bits>
 800af7e:	ebc0 1041 	rsb	r0, r0, r1, lsl #5
 800af82:	e7e1      	b.n	800af48 <__d2b+0x62>

0800af84 <_putc_r>:
 800af84:	b570      	push	{r4, r5, r6, lr}
 800af86:	460d      	mov	r5, r1
 800af88:	4614      	mov	r4, r2
 800af8a:	4606      	mov	r6, r0
 800af8c:	b118      	cbz	r0, 800af96 <_putc_r+0x12>
 800af8e:	6983      	ldr	r3, [r0, #24]
 800af90:	b90b      	cbnz	r3, 800af96 <_putc_r+0x12>
 800af92:	f7fc fe6b 	bl	8007c6c <__sinit>
 800af96:	4b1c      	ldr	r3, [pc, #112]	; (800b008 <_putc_r+0x84>)
 800af98:	429c      	cmp	r4, r3
 800af9a:	d124      	bne.n	800afe6 <_putc_r+0x62>
 800af9c:	6874      	ldr	r4, [r6, #4]
 800af9e:	6e63      	ldr	r3, [r4, #100]	; 0x64
 800afa0:	07d8      	lsls	r0, r3, #31
 800afa2:	d405      	bmi.n	800afb0 <_putc_r+0x2c>
 800afa4:	89a3      	ldrh	r3, [r4, #12]
 800afa6:	0599      	lsls	r1, r3, #22
 800afa8:	d402      	bmi.n	800afb0 <_putc_r+0x2c>
 800afaa:	6da0      	ldr	r0, [r4, #88]	; 0x58
 800afac:	f7fd f834 	bl	8008018 <__retarget_lock_acquire_recursive>
 800afb0:	68a3      	ldr	r3, [r4, #8]
 800afb2:	3b01      	subs	r3, #1
 800afb4:	2b00      	cmp	r3, #0
 800afb6:	60a3      	str	r3, [r4, #8]
 800afb8:	da05      	bge.n	800afc6 <_putc_r+0x42>
 800afba:	69a2      	ldr	r2, [r4, #24]
 800afbc:	4293      	cmp	r3, r2
 800afbe:	db1c      	blt.n	800affa <_putc_r+0x76>
 800afc0:	b2eb      	uxtb	r3, r5
 800afc2:	2b0a      	cmp	r3, #10
 800afc4:	d019      	beq.n	800affa <_putc_r+0x76>
 800afc6:	6823      	ldr	r3, [r4, #0]
 800afc8:	1c5a      	adds	r2, r3, #1
 800afca:	6022      	str	r2, [r4, #0]
 800afcc:	701d      	strb	r5, [r3, #0]
 800afce:	b2ed      	uxtb	r5, r5
 800afd0:	6e63      	ldr	r3, [r4, #100]	; 0x64
 800afd2:	07da      	lsls	r2, r3, #31
 800afd4:	d405      	bmi.n	800afe2 <_putc_r+0x5e>
 800afd6:	89a3      	ldrh	r3, [r4, #12]
 800afd8:	059b      	lsls	r3, r3, #22
 800afda:	d402      	bmi.n	800afe2 <_putc_r+0x5e>
 800afdc:	6da0      	ldr	r0, [r4, #88]	; 0x58
 800afde:	f7fd f81c 	bl	800801a <__retarget_lock_release_recursive>
 800afe2:	4628      	mov	r0, r5
 800afe4:	bd70      	pop	{r4, r5, r6, pc}
 800afe6:	4b09      	ldr	r3, [pc, #36]	; (800b00c <_putc_r+0x88>)
 800afe8:	429c      	cmp	r4, r3
 800afea:	d101      	bne.n	800aff0 <_putc_r+0x6c>
 800afec:	68b4      	ldr	r4, [r6, #8]
 800afee:	e7d6      	b.n	800af9e <_putc_r+0x1a>
 800aff0:	4b07      	ldr	r3, [pc, #28]	; (800b010 <_putc_r+0x8c>)
 800aff2:	429c      	cmp	r4, r3
 800aff4:	bf08      	it	eq
 800aff6:	68f4      	ldreq	r4, [r6, #12]
 800aff8:	e7d1      	b.n	800af9e <_putc_r+0x1a>
 800affa:	4629      	mov	r1, r5
 800affc:	4622      	mov	r2, r4
 800affe:	4630      	mov	r0, r6
 800b000:	f000 f9d0 	bl	800b3a4 <__swbuf_r>
 800b004:	4605      	mov	r5, r0
 800b006:	e7e3      	b.n	800afd0 <_putc_r+0x4c>
 800b008:	0800bc34 	.word	0x0800bc34
 800b00c:	0800bc54 	.word	0x0800bc54
 800b010:	0800bc14 	.word	0x0800bc14

0800b014 <_read_r>:
 800b014:	b538      	push	{r3, r4, r5, lr}
 800b016:	4c07      	ldr	r4, [pc, #28]	; (800b034 <_read_r+0x20>)
 800b018:	4605      	mov	r5, r0
 800b01a:	4608      	mov	r0, r1
 800b01c:	4611      	mov	r1, r2
 800b01e:	2200      	movs	r2, #0
 800b020:	6022      	str	r2, [r4, #0]
 800b022:	461a      	mov	r2, r3
 800b024:	f7fc fc54 	bl	80078d0 <_read>
 800b028:	1c43      	adds	r3, r0, #1
 800b02a:	d102      	bne.n	800b032 <_read_r+0x1e>
 800b02c:	6823      	ldr	r3, [r4, #0]
 800b02e:	b103      	cbz	r3, 800b032 <_read_r+0x1e>
 800b030:	602b      	str	r3, [r5, #0]
 800b032:	bd38      	pop	{r3, r4, r5, pc}
 800b034:	20004468 	.word	0x20004468

0800b038 <_realloc_r>:
 800b038:	e92d 4ff7 	stmdb	sp!, {r0, r1, r2, r4, r5, r6, r7, r8, r9, sl, fp, lr}
 800b03c:	4682      	mov	sl, r0
 800b03e:	460c      	mov	r4, r1
 800b040:	b929      	cbnz	r1, 800b04e <_realloc_r+0x16>
 800b042:	4611      	mov	r1, r2
 800b044:	b003      	add	sp, #12
 800b046:	e8bd 4ff0 	ldmia.w	sp!, {r4, r5, r6, r7, r8, r9, sl, fp, lr}
 800b04a:	f7fc bfe7 	b.w	800801c <_malloc_r>
 800b04e:	9201      	str	r2, [sp, #4]
 800b050:	f7fd fa06 	bl	8008460 <__malloc_lock>
 800b054:	9a01      	ldr	r2, [sp, #4]
 800b056:	f854 5c04 	ldr.w	r5, [r4, #-4]
 800b05a:	f102 080b 	add.w	r8, r2, #11
 800b05e:	f1b8 0f16 	cmp.w	r8, #22
 800b062:	f1a4 0908 	sub.w	r9, r4, #8
 800b066:	f025 0603 	bic.w	r6, r5, #3
 800b06a:	d90a      	bls.n	800b082 <_realloc_r+0x4a>
 800b06c:	f038 0807 	bics.w	r8, r8, #7
 800b070:	d509      	bpl.n	800b086 <_realloc_r+0x4e>
 800b072:	230c      	movs	r3, #12
 800b074:	f8ca 3000 	str.w	r3, [sl]
 800b078:	2700      	movs	r7, #0
 800b07a:	4638      	mov	r0, r7
 800b07c:	b003      	add	sp, #12
 800b07e:	e8bd 8ff0 	ldmia.w	sp!, {r4, r5, r6, r7, r8, r9, sl, fp, pc}
 800b082:	f04f 0810 	mov.w	r8, #16
 800b086:	4590      	cmp	r8, r2
 800b088:	d3f3      	bcc.n	800b072 <_realloc_r+0x3a>
 800b08a:	45b0      	cmp	r8, r6
 800b08c:	f340 8145 	ble.w	800b31a <_realloc_r+0x2e2>
 800b090:	4ba8      	ldr	r3, [pc, #672]	; (800b334 <_realloc_r+0x2fc>)
 800b092:	f8d3 e008 	ldr.w	lr, [r3, #8]
 800b096:	eb09 0106 	add.w	r1, r9, r6
 800b09a:	4571      	cmp	r1, lr
 800b09c:	469b      	mov	fp, r3
 800b09e:	684b      	ldr	r3, [r1, #4]
 800b0a0:	d005      	beq.n	800b0ae <_realloc_r+0x76>
 800b0a2:	f023 0001 	bic.w	r0, r3, #1
 800b0a6:	4408      	add	r0, r1
 800b0a8:	6840      	ldr	r0, [r0, #4]
 800b0aa:	07c7      	lsls	r7, r0, #31
 800b0ac:	d447      	bmi.n	800b13e <_realloc_r+0x106>
 800b0ae:	f023 0303 	bic.w	r3, r3, #3
 800b0b2:	4571      	cmp	r1, lr
 800b0b4:	eb06 0703 	add.w	r7, r6, r3
 800b0b8:	d119      	bne.n	800b0ee <_realloc_r+0xb6>
 800b0ba:	f108 0010 	add.w	r0, r8, #16
 800b0be:	4287      	cmp	r7, r0
 800b0c0:	db3f      	blt.n	800b142 <_realloc_r+0x10a>
 800b0c2:	eb09 0308 	add.w	r3, r9, r8
 800b0c6:	eba7 0708 	sub.w	r7, r7, r8
 800b0ca:	f047 0701 	orr.w	r7, r7, #1
 800b0ce:	f8cb 3008 	str.w	r3, [fp, #8]
 800b0d2:	605f      	str	r7, [r3, #4]
 800b0d4:	f854 3c04 	ldr.w	r3, [r4, #-4]
 800b0d8:	f003 0301 	and.w	r3, r3, #1
 800b0dc:	ea43 0308 	orr.w	r3, r3, r8
 800b0e0:	f844 3c04 	str.w	r3, [r4, #-4]
 800b0e4:	4650      	mov	r0, sl
 800b0e6:	f7fd f9c1 	bl	800846c <__malloc_unlock>
 800b0ea:	4627      	mov	r7, r4
 800b0ec:	e7c5      	b.n	800b07a <_realloc_r+0x42>
 800b0ee:	45b8      	cmp	r8, r7
 800b0f0:	dc27      	bgt.n	800b142 <_realloc_r+0x10a>
 800b0f2:	68cb      	ldr	r3, [r1, #12]
 800b0f4:	688a      	ldr	r2, [r1, #8]
 800b0f6:	60d3      	str	r3, [r2, #12]
 800b0f8:	609a      	str	r2, [r3, #8]
 800b0fa:	eba7 0008 	sub.w	r0, r7, r8
 800b0fe:	280f      	cmp	r0, #15
 800b100:	f8d9 3004 	ldr.w	r3, [r9, #4]
 800b104:	eb09 0207 	add.w	r2, r9, r7
 800b108:	f240 8109 	bls.w	800b31e <_realloc_r+0x2e6>
 800b10c:	eb09 0108 	add.w	r1, r9, r8
 800b110:	f003 0301 	and.w	r3, r3, #1
 800b114:	ea43 0308 	orr.w	r3, r3, r8
 800b118:	f040 0001 	orr.w	r0, r0, #1
 800b11c:	f8c9 3004 	str.w	r3, [r9, #4]
 800b120:	6048      	str	r0, [r1, #4]
 800b122:	6853      	ldr	r3, [r2, #4]
 800b124:	f043 0301 	orr.w	r3, r3, #1
 800b128:	6053      	str	r3, [r2, #4]
 800b12a:	3108      	adds	r1, #8
 800b12c:	4650      	mov	r0, sl
 800b12e:	f7fc fe73 	bl	8007e18 <_free_r>
 800b132:	4650      	mov	r0, sl
 800b134:	f7fd f99a 	bl	800846c <__malloc_unlock>
 800b138:	f109 0708 	add.w	r7, r9, #8
 800b13c:	e79d      	b.n	800b07a <_realloc_r+0x42>
 800b13e:	2300      	movs	r3, #0
 800b140:	4619      	mov	r1, r3
 800b142:	07e8      	lsls	r0, r5, #31
 800b144:	f100 8084 	bmi.w	800b250 <_realloc_r+0x218>
 800b148:	f854 5c08 	ldr.w	r5, [r4, #-8]
 800b14c:	eba9 0505 	sub.w	r5, r9, r5
 800b150:	6868      	ldr	r0, [r5, #4]
 800b152:	f020 0003 	bic.w	r0, r0, #3
 800b156:	4430      	add	r0, r6
 800b158:	2900      	cmp	r1, #0
 800b15a:	d076      	beq.n	800b24a <_realloc_r+0x212>
 800b15c:	4571      	cmp	r1, lr
 800b15e:	d150      	bne.n	800b202 <_realloc_r+0x1ca>
 800b160:	4403      	add	r3, r0
 800b162:	f108 0110 	add.w	r1, r8, #16
 800b166:	428b      	cmp	r3, r1
 800b168:	db6f      	blt.n	800b24a <_realloc_r+0x212>
 800b16a:	462f      	mov	r7, r5
 800b16c:	68ea      	ldr	r2, [r5, #12]
 800b16e:	f857 1f08 	ldr.w	r1, [r7, #8]!
 800b172:	60ca      	str	r2, [r1, #12]
 800b174:	6091      	str	r1, [r2, #8]
 800b176:	1f32      	subs	r2, r6, #4
 800b178:	2a24      	cmp	r2, #36	; 0x24
 800b17a:	d83b      	bhi.n	800b1f4 <_realloc_r+0x1bc>
 800b17c:	2a13      	cmp	r2, #19
 800b17e:	d936      	bls.n	800b1ee <_realloc_r+0x1b6>
 800b180:	6821      	ldr	r1, [r4, #0]
 800b182:	60a9      	str	r1, [r5, #8]
 800b184:	6861      	ldr	r1, [r4, #4]
 800b186:	60e9      	str	r1, [r5, #12]
 800b188:	2a1b      	cmp	r2, #27
 800b18a:	d81c      	bhi.n	800b1c6 <_realloc_r+0x18e>
 800b18c:	f105 0210 	add.w	r2, r5, #16
 800b190:	f104 0108 	add.w	r1, r4, #8
 800b194:	6808      	ldr	r0, [r1, #0]
 800b196:	6010      	str	r0, [r2, #0]
 800b198:	6848      	ldr	r0, [r1, #4]
 800b19a:	6050      	str	r0, [r2, #4]
 800b19c:	6889      	ldr	r1, [r1, #8]
 800b19e:	6091      	str	r1, [r2, #8]
 800b1a0:	eb05 0208 	add.w	r2, r5, r8
 800b1a4:	eba3 0308 	sub.w	r3, r3, r8
 800b1a8:	f043 0301 	orr.w	r3, r3, #1
 800b1ac:	f8cb 2008 	str.w	r2, [fp, #8]
 800b1b0:	6053      	str	r3, [r2, #4]
 800b1b2:	686b      	ldr	r3, [r5, #4]
 800b1b4:	f003 0301 	and.w	r3, r3, #1
 800b1b8:	ea43 0308 	orr.w	r3, r3, r8
 800b1bc:	606b      	str	r3, [r5, #4]
 800b1be:	4650      	mov	r0, sl
 800b1c0:	f7fd f954 	bl	800846c <__malloc_unlock>
 800b1c4:	e759      	b.n	800b07a <_realloc_r+0x42>
 800b1c6:	68a1      	ldr	r1, [r4, #8]
 800b1c8:	6129      	str	r1, [r5, #16]
 800b1ca:	68e1      	ldr	r1, [r4, #12]
 800b1cc:	6169      	str	r1, [r5, #20]
 800b1ce:	2a24      	cmp	r2, #36	; 0x24
 800b1d0:	bf01      	itttt	eq
 800b1d2:	6922      	ldreq	r2, [r4, #16]
 800b1d4:	61aa      	streq	r2, [r5, #24]
 800b1d6:	6960      	ldreq	r0, [r4, #20]
 800b1d8:	61e8      	streq	r0, [r5, #28]
 800b1da:	bf19      	ittee	ne
 800b1dc:	f105 0218 	addne.w	r2, r5, #24
 800b1e0:	f104 0110 	addne.w	r1, r4, #16
 800b1e4:	f105 0220 	addeq.w	r2, r5, #32
 800b1e8:	f104 0118 	addeq.w	r1, r4, #24
 800b1ec:	e7d2      	b.n	800b194 <_realloc_r+0x15c>
 800b1ee:	463a      	mov	r2, r7
 800b1f0:	4621      	mov	r1, r4
 800b1f2:	e7cf      	b.n	800b194 <_realloc_r+0x15c>
 800b1f4:	4621      	mov	r1, r4
 800b1f6:	4638      	mov	r0, r7
 800b1f8:	9301      	str	r3, [sp, #4]
 800b1fa:	f7ff fbd9 	bl	800a9b0 <memmove>
 800b1fe:	9b01      	ldr	r3, [sp, #4]
 800b200:	e7ce      	b.n	800b1a0 <_realloc_r+0x168>
 800b202:	18c7      	adds	r7, r0, r3
 800b204:	45b8      	cmp	r8, r7
 800b206:	dc20      	bgt.n	800b24a <_realloc_r+0x212>
 800b208:	68cb      	ldr	r3, [r1, #12]
 800b20a:	688a      	ldr	r2, [r1, #8]
 800b20c:	60d3      	str	r3, [r2, #12]
 800b20e:	609a      	str	r2, [r3, #8]
 800b210:	4628      	mov	r0, r5
 800b212:	68eb      	ldr	r3, [r5, #12]
 800b214:	f850 2f08 	ldr.w	r2, [r0, #8]!
 800b218:	60d3      	str	r3, [r2, #12]
 800b21a:	609a      	str	r2, [r3, #8]
 800b21c:	1f32      	subs	r2, r6, #4
 800b21e:	2a24      	cmp	r2, #36	; 0x24
 800b220:	d842      	bhi.n	800b2a8 <_realloc_r+0x270>
 800b222:	2a13      	cmp	r2, #19
 800b224:	d93e      	bls.n	800b2a4 <_realloc_r+0x26c>
 800b226:	6823      	ldr	r3, [r4, #0]
 800b228:	60ab      	str	r3, [r5, #8]
 800b22a:	6863      	ldr	r3, [r4, #4]
 800b22c:	60eb      	str	r3, [r5, #12]
 800b22e:	2a1b      	cmp	r2, #27
 800b230:	d824      	bhi.n	800b27c <_realloc_r+0x244>
 800b232:	f105 0010 	add.w	r0, r5, #16
 800b236:	f104 0308 	add.w	r3, r4, #8
 800b23a:	681a      	ldr	r2, [r3, #0]
 800b23c:	6002      	str	r2, [r0, #0]
 800b23e:	685a      	ldr	r2, [r3, #4]
 800b240:	6042      	str	r2, [r0, #4]
 800b242:	689b      	ldr	r3, [r3, #8]
 800b244:	6083      	str	r3, [r0, #8]
 800b246:	46a9      	mov	r9, r5
 800b248:	e757      	b.n	800b0fa <_realloc_r+0xc2>
 800b24a:	4580      	cmp	r8, r0
 800b24c:	4607      	mov	r7, r0
 800b24e:	dddf      	ble.n	800b210 <_realloc_r+0x1d8>
 800b250:	4611      	mov	r1, r2
 800b252:	4650      	mov	r0, sl
 800b254:	f7fc fee2 	bl	800801c <_malloc_r>
 800b258:	4607      	mov	r7, r0
 800b25a:	2800      	cmp	r0, #0
 800b25c:	d0af      	beq.n	800b1be <_realloc_r+0x186>
 800b25e:	f854 3c04 	ldr.w	r3, [r4, #-4]
 800b262:	f023 0301 	bic.w	r3, r3, #1
 800b266:	f1a0 0208 	sub.w	r2, r0, #8
 800b26a:	444b      	add	r3, r9
 800b26c:	429a      	cmp	r2, r3
 800b26e:	d11f      	bne.n	800b2b0 <_realloc_r+0x278>
 800b270:	f850 7c04 	ldr.w	r7, [r0, #-4]
 800b274:	f027 0703 	bic.w	r7, r7, #3
 800b278:	4437      	add	r7, r6
 800b27a:	e73e      	b.n	800b0fa <_realloc_r+0xc2>
 800b27c:	68a3      	ldr	r3, [r4, #8]
 800b27e:	612b      	str	r3, [r5, #16]
 800b280:	68e3      	ldr	r3, [r4, #12]
 800b282:	616b      	str	r3, [r5, #20]
 800b284:	2a24      	cmp	r2, #36	; 0x24
 800b286:	bf01      	itttt	eq
 800b288:	6923      	ldreq	r3, [r4, #16]
 800b28a:	61ab      	streq	r3, [r5, #24]
 800b28c:	6962      	ldreq	r2, [r4, #20]
 800b28e:	61ea      	streq	r2, [r5, #28]
 800b290:	bf19      	ittee	ne
 800b292:	f105 0018 	addne.w	r0, r5, #24
 800b296:	f104 0310 	addne.w	r3, r4, #16
 800b29a:	f105 0020 	addeq.w	r0, r5, #32
 800b29e:	f104 0318 	addeq.w	r3, r4, #24
 800b2a2:	e7ca      	b.n	800b23a <_realloc_r+0x202>
 800b2a4:	4623      	mov	r3, r4
 800b2a6:	e7c8      	b.n	800b23a <_realloc_r+0x202>
 800b2a8:	4621      	mov	r1, r4
 800b2aa:	f7ff fb81 	bl	800a9b0 <memmove>
 800b2ae:	e7ca      	b.n	800b246 <_realloc_r+0x20e>
 800b2b0:	1f32      	subs	r2, r6, #4
 800b2b2:	2a24      	cmp	r2, #36	; 0x24
 800b2b4:	d82d      	bhi.n	800b312 <_realloc_r+0x2da>
 800b2b6:	2a13      	cmp	r2, #19
 800b2b8:	d928      	bls.n	800b30c <_realloc_r+0x2d4>
 800b2ba:	6823      	ldr	r3, [r4, #0]
 800b2bc:	6003      	str	r3, [r0, #0]
 800b2be:	6863      	ldr	r3, [r4, #4]
 800b2c0:	6043      	str	r3, [r0, #4]
 800b2c2:	2a1b      	cmp	r2, #27
 800b2c4:	d80e      	bhi.n	800b2e4 <_realloc_r+0x2ac>
 800b2c6:	f100 0308 	add.w	r3, r0, #8
 800b2ca:	f104 0208 	add.w	r2, r4, #8
 800b2ce:	6811      	ldr	r1, [r2, #0]
 800b2d0:	6019      	str	r1, [r3, #0]
 800b2d2:	6851      	ldr	r1, [r2, #4]
 800b2d4:	6059      	str	r1, [r3, #4]
 800b2d6:	6892      	ldr	r2, [r2, #8]
 800b2d8:	609a      	str	r2, [r3, #8]
 800b2da:	4621      	mov	r1, r4
 800b2dc:	4650      	mov	r0, sl
 800b2de:	f7fc fd9b 	bl	8007e18 <_free_r>
 800b2e2:	e76c      	b.n	800b1be <_realloc_r+0x186>
 800b2e4:	68a3      	ldr	r3, [r4, #8]
 800b2e6:	6083      	str	r3, [r0, #8]
 800b2e8:	68e3      	ldr	r3, [r4, #12]
 800b2ea:	60c3      	str	r3, [r0, #12]
 800b2ec:	2a24      	cmp	r2, #36	; 0x24
 800b2ee:	bf01      	itttt	eq
 800b2f0:	6923      	ldreq	r3, [r4, #16]
 800b2f2:	6103      	streq	r3, [r0, #16]
 800b2f4:	6961      	ldreq	r1, [r4, #20]
 800b2f6:	6141      	streq	r1, [r0, #20]
 800b2f8:	bf19      	ittee	ne
 800b2fa:	f100 0310 	addne.w	r3, r0, #16
 800b2fe:	f104 0210 	addne.w	r2, r4, #16
 800b302:	f100 0318 	addeq.w	r3, r0, #24
 800b306:	f104 0218 	addeq.w	r2, r4, #24
 800b30a:	e7e0      	b.n	800b2ce <_realloc_r+0x296>
 800b30c:	4603      	mov	r3, r0
 800b30e:	4622      	mov	r2, r4
 800b310:	e7dd      	b.n	800b2ce <_realloc_r+0x296>
 800b312:	4621      	mov	r1, r4
 800b314:	f7ff fb4c 	bl	800a9b0 <memmove>
 800b318:	e7df      	b.n	800b2da <_realloc_r+0x2a2>
 800b31a:	4637      	mov	r7, r6
 800b31c:	e6ed      	b.n	800b0fa <_realloc_r+0xc2>
 800b31e:	f003 0301 	and.w	r3, r3, #1
 800b322:	431f      	orrs	r7, r3
 800b324:	f8c9 7004 	str.w	r7, [r9, #4]
 800b328:	6853      	ldr	r3, [r2, #4]
 800b32a:	f043 0301 	orr.w	r3, r3, #1
 800b32e:	6053      	str	r3, [r2, #4]
 800b330:	e6ff      	b.n	800b132 <_realloc_r+0xfa>
 800b332:	bf00      	nop
 800b334:	20000114 	.word	0x20000114

0800b338 <__sprint_r>:
 800b338:	e92d 4ff8 	stmdb	sp!, {r3, r4, r5, r6, r7, r8, r9, sl, fp, lr}
 800b33c:	6893      	ldr	r3, [r2, #8]
 800b33e:	4680      	mov	r8, r0
 800b340:	460f      	mov	r7, r1
 800b342:	4614      	mov	r4, r2
 800b344:	b91b      	cbnz	r3, 800b34e <__sprint_r+0x16>
 800b346:	6053      	str	r3, [r2, #4]
 800b348:	4618      	mov	r0, r3
 800b34a:	e8bd 8ff8 	ldmia.w	sp!, {r3, r4, r5, r6, r7, r8, r9, sl, fp, pc}
 800b34e:	6e4b      	ldr	r3, [r1, #100]	; 0x64
 800b350:	049d      	lsls	r5, r3, #18
 800b352:	d523      	bpl.n	800b39c <__sprint_r+0x64>
 800b354:	6815      	ldr	r5, [r2, #0]
 800b356:	68a0      	ldr	r0, [r4, #8]
 800b358:	3508      	adds	r5, #8
 800b35a:	b920      	cbnz	r0, 800b366 <__sprint_r+0x2e>
 800b35c:	2300      	movs	r3, #0
 800b35e:	60a3      	str	r3, [r4, #8]
 800b360:	6063      	str	r3, [r4, #4]
 800b362:	e8bd 8ff8 	ldmia.w	sp!, {r3, r4, r5, r6, r7, r8, r9, sl, fp, pc}
 800b366:	f855 6c04 	ldr.w	r6, [r5, #-4]
 800b36a:	f855 bc08 	ldr.w	fp, [r5, #-8]
 800b36e:	ea4f 0a96 	mov.w	sl, r6, lsr #2
 800b372:	f04f 0900 	mov.w	r9, #0
 800b376:	45ca      	cmp	sl, r9
 800b378:	dc05      	bgt.n	800b386 <__sprint_r+0x4e>
 800b37a:	68a3      	ldr	r3, [r4, #8]
 800b37c:	f026 0603 	bic.w	r6, r6, #3
 800b380:	1b9e      	subs	r6, r3, r6
 800b382:	60a6      	str	r6, [r4, #8]
 800b384:	e7e7      	b.n	800b356 <__sprint_r+0x1e>
 800b386:	463a      	mov	r2, r7
 800b388:	f85b 1029 	ldr.w	r1, [fp, r9, lsl #2]
 800b38c:	4640      	mov	r0, r8
 800b38e:	f000 f8d5 	bl	800b53c <_fputwc_r>
 800b392:	1c43      	adds	r3, r0, #1
 800b394:	d0e2      	beq.n	800b35c <__sprint_r+0x24>
 800b396:	f109 0901 	add.w	r9, r9, #1
 800b39a:	e7ec      	b.n	800b376 <__sprint_r+0x3e>
 800b39c:	f7ff f926 	bl	800a5ec <__sfvwrite_r>
 800b3a0:	e7dc      	b.n	800b35c <__sprint_r+0x24>
	...

0800b3a4 <__swbuf_r>:
 800b3a4:	b5f8      	push	{r3, r4, r5, r6, r7, lr}
 800b3a6:	460e      	mov	r6, r1
 800b3a8:	4614      	mov	r4, r2
 800b3aa:	4605      	mov	r5, r0
 800b3ac:	b118      	cbz	r0, 800b3b6 <__swbuf_r+0x12>
 800b3ae:	6983      	ldr	r3, [r0, #24]
 800b3b0:	b90b      	cbnz	r3, 800b3b6 <__swbuf_r+0x12>
 800b3b2:	f7fc fc5b 	bl	8007c6c <__sinit>
 800b3b6:	4b27      	ldr	r3, [pc, #156]	; (800b454 <__swbuf_r+0xb0>)
 800b3b8:	429c      	cmp	r4, r3
 800b3ba:	d12f      	bne.n	800b41c <__swbuf_r+0x78>
 800b3bc:	686c      	ldr	r4, [r5, #4]
 800b3be:	69a3      	ldr	r3, [r4, #24]
 800b3c0:	60a3      	str	r3, [r4, #8]
 800b3c2:	89a3      	ldrh	r3, [r4, #12]
 800b3c4:	0719      	lsls	r1, r3, #28
 800b3c6:	d533      	bpl.n	800b430 <__swbuf_r+0x8c>
 800b3c8:	6923      	ldr	r3, [r4, #16]
 800b3ca:	2b00      	cmp	r3, #0
 800b3cc:	d030      	beq.n	800b430 <__swbuf_r+0x8c>
 800b3ce:	f9b4 300c 	ldrsh.w	r3, [r4, #12]
 800b3d2:	b2f6      	uxtb	r6, r6
 800b3d4:	049a      	lsls	r2, r3, #18
 800b3d6:	4637      	mov	r7, r6
 800b3d8:	d534      	bpl.n	800b444 <__swbuf_r+0xa0>
 800b3da:	6923      	ldr	r3, [r4, #16]
 800b3dc:	6820      	ldr	r0, [r4, #0]
 800b3de:	1ac0      	subs	r0, r0, r3
 800b3e0:	6963      	ldr	r3, [r4, #20]
 800b3e2:	4298      	cmp	r0, r3
 800b3e4:	db04      	blt.n	800b3f0 <__swbuf_r+0x4c>
 800b3e6:	4621      	mov	r1, r4
 800b3e8:	4628      	mov	r0, r5
 800b3ea:	f7fc fb99 	bl	8007b20 <_fflush_r>
 800b3ee:	bb28      	cbnz	r0, 800b43c <__swbuf_r+0x98>
 800b3f0:	68a3      	ldr	r3, [r4, #8]
 800b3f2:	3b01      	subs	r3, #1
 800b3f4:	60a3      	str	r3, [r4, #8]
 800b3f6:	6823      	ldr	r3, [r4, #0]
 800b3f8:	1c5a      	adds	r2, r3, #1
 800b3fa:	6022      	str	r2, [r4, #0]
 800b3fc:	701e      	strb	r6, [r3, #0]
 800b3fe:	6963      	ldr	r3, [r4, #20]
 800b400:	3001      	adds	r0, #1
 800b402:	4298      	cmp	r0, r3
 800b404:	d004      	beq.n	800b410 <__swbuf_r+0x6c>
 800b406:	89a3      	ldrh	r3, [r4, #12]
 800b408:	07db      	lsls	r3, r3, #31
 800b40a:	d519      	bpl.n	800b440 <__swbuf_r+0x9c>
 800b40c:	2e0a      	cmp	r6, #10
 800b40e:	d117      	bne.n	800b440 <__swbuf_r+0x9c>
 800b410:	4621      	mov	r1, r4
 800b412:	4628      	mov	r0, r5
 800b414:	f7fc fb84 	bl	8007b20 <_fflush_r>
 800b418:	b190      	cbz	r0, 800b440 <__swbuf_r+0x9c>
 800b41a:	e00f      	b.n	800b43c <__swbuf_r+0x98>
 800b41c:	4b0e      	ldr	r3, [pc, #56]	; (800b458 <__swbuf_r+0xb4>)
 800b41e:	429c      	cmp	r4, r3
 800b420:	d101      	bne.n	800b426 <__swbuf_r+0x82>
 800b422:	68ac      	ldr	r4, [r5, #8]
 800b424:	e7cb      	b.n	800b3be <__swbuf_r+0x1a>
 800b426:	4b0d      	ldr	r3, [pc, #52]	; (800b45c <__swbuf_r+0xb8>)
 800b428:	429c      	cmp	r4, r3
 800b42a:	bf08      	it	eq
 800b42c:	68ec      	ldreq	r4, [r5, #12]
 800b42e:	e7c6      	b.n	800b3be <__swbuf_r+0x1a>
 800b430:	4621      	mov	r1, r4
 800b432:	4628      	mov	r0, r5
 800b434:	f7fe f996 	bl	8009764 <__swsetup_r>
 800b438:	2800      	cmp	r0, #0
 800b43a:	d0c8      	beq.n	800b3ce <__swbuf_r+0x2a>
 800b43c:	f04f 37ff 	mov.w	r7, #4294967295
 800b440:	4638      	mov	r0, r7
 800b442:	bdf8      	pop	{r3, r4, r5, r6, r7, pc}
 800b444:	f443 5300 	orr.w	r3, r3, #8192	; 0x2000
 800b448:	81a3      	strh	r3, [r4, #12]
 800b44a:	6e63      	ldr	r3, [r4, #100]	; 0x64
 800b44c:	f423 5300 	bic.w	r3, r3, #8192	; 0x2000
 800b450:	6663      	str	r3, [r4, #100]	; 0x64
 800b452:	e7c2      	b.n	800b3da <__swbuf_r+0x36>
 800b454:	0800bc34 	.word	0x0800bc34
 800b458:	0800bc54 	.word	0x0800bc54
 800b45c:	0800bc14 	.word	0x0800bc14

0800b460 <_calloc_r>:
 800b460:	b510      	push	{r4, lr}
 800b462:	4351      	muls	r1, r2
 800b464:	f7fc fdda 	bl	800801c <_malloc_r>
 800b468:	4604      	mov	r4, r0
 800b46a:	b198      	cbz	r0, 800b494 <_calloc_r+0x34>
 800b46c:	f850 2c04 	ldr.w	r2, [r0, #-4]
 800b470:	f022 0203 	bic.w	r2, r2, #3
 800b474:	3a04      	subs	r2, #4
 800b476:	2a24      	cmp	r2, #36	; 0x24
 800b478:	d81b      	bhi.n	800b4b2 <_calloc_r+0x52>
 800b47a:	2a13      	cmp	r2, #19
 800b47c:	d917      	bls.n	800b4ae <_calloc_r+0x4e>
 800b47e:	2100      	movs	r1, #0
 800b480:	2a1b      	cmp	r2, #27
 800b482:	6001      	str	r1, [r0, #0]
 800b484:	6041      	str	r1, [r0, #4]
 800b486:	d807      	bhi.n	800b498 <_calloc_r+0x38>
 800b488:	f100 0308 	add.w	r3, r0, #8
 800b48c:	2200      	movs	r2, #0
 800b48e:	601a      	str	r2, [r3, #0]
 800b490:	605a      	str	r2, [r3, #4]
 800b492:	609a      	str	r2, [r3, #8]
 800b494:	4620      	mov	r0, r4
 800b496:	bd10      	pop	{r4, pc}
 800b498:	2a24      	cmp	r2, #36	; 0x24
 800b49a:	6081      	str	r1, [r0, #8]
 800b49c:	60c1      	str	r1, [r0, #12]
 800b49e:	bf11      	iteee	ne
 800b4a0:	f100 0310 	addne.w	r3, r0, #16
 800b4a4:	6101      	streq	r1, [r0, #16]
 800b4a6:	f100 0318 	addeq.w	r3, r0, #24
 800b4aa:	6141      	streq	r1, [r0, #20]
 800b4ac:	e7ee      	b.n	800b48c <_calloc_r+0x2c>
 800b4ae:	4603      	mov	r3, r0
 800b4b0:	e7ec      	b.n	800b48c <_calloc_r+0x2c>
 800b4b2:	2100      	movs	r1, #0
 800b4b4:	f7fc ffcb 	bl	800844e <memset>
 800b4b8:	e7ec      	b.n	800b494 <_calloc_r+0x34>

0800b4ba <__fputwc>:
 800b4ba:	e92d 43f7 	stmdb	sp!, {r0, r1, r2, r4, r5, r6, r7, r8, r9, lr}
 800b4be:	4680      	mov	r8, r0
 800b4c0:	460e      	mov	r6, r1
 800b4c2:	4614      	mov	r4, r2
 800b4c4:	f000 f886 	bl	800b5d4 <__locale_mb_cur_max>
 800b4c8:	2801      	cmp	r0, #1
 800b4ca:	d11c      	bne.n	800b506 <__fputwc+0x4c>
 800b4cc:	1e73      	subs	r3, r6, #1
 800b4ce:	2bfe      	cmp	r3, #254	; 0xfe
 800b4d0:	d819      	bhi.n	800b506 <__fputwc+0x4c>
 800b4d2:	f88d 6004 	strb.w	r6, [sp, #4]
 800b4d6:	4605      	mov	r5, r0
 800b4d8:	2700      	movs	r7, #0
 800b4da:	f10d 0904 	add.w	r9, sp, #4
 800b4de:	42af      	cmp	r7, r5
 800b4e0:	d020      	beq.n	800b524 <__fputwc+0x6a>
 800b4e2:	68a3      	ldr	r3, [r4, #8]
 800b4e4:	f817 1009 	ldrb.w	r1, [r7, r9]
 800b4e8:	3b01      	subs	r3, #1
 800b4ea:	2b00      	cmp	r3, #0
 800b4ec:	60a3      	str	r3, [r4, #8]
 800b4ee:	da04      	bge.n	800b4fa <__fputwc+0x40>
 800b4f0:	69a2      	ldr	r2, [r4, #24]
 800b4f2:	4293      	cmp	r3, r2
 800b4f4:	db1a      	blt.n	800b52c <__fputwc+0x72>
 800b4f6:	290a      	cmp	r1, #10
 800b4f8:	d018      	beq.n	800b52c <__fputwc+0x72>
 800b4fa:	6823      	ldr	r3, [r4, #0]
 800b4fc:	1c5a      	adds	r2, r3, #1
 800b4fe:	6022      	str	r2, [r4, #0]
 800b500:	7019      	strb	r1, [r3, #0]
 800b502:	3701      	adds	r7, #1
 800b504:	e7eb      	b.n	800b4de <__fputwc+0x24>
 800b506:	4632      	mov	r2, r6
 800b508:	f104 035c 	add.w	r3, r4, #92	; 0x5c
 800b50c:	a901      	add	r1, sp, #4
 800b50e:	4640      	mov	r0, r8
 800b510:	f000 f880 	bl	800b614 <_wcrtomb_r>
 800b514:	1c42      	adds	r2, r0, #1
 800b516:	4605      	mov	r5, r0
 800b518:	d1de      	bne.n	800b4d8 <__fputwc+0x1e>
 800b51a:	89a3      	ldrh	r3, [r4, #12]
 800b51c:	f043 0340 	orr.w	r3, r3, #64	; 0x40
 800b520:	81a3      	strh	r3, [r4, #12]
 800b522:	4606      	mov	r6, r0
 800b524:	4630      	mov	r0, r6
 800b526:	b003      	add	sp, #12
 800b528:	e8bd 83f0 	ldmia.w	sp!, {r4, r5, r6, r7, r8, r9, pc}
 800b52c:	4622      	mov	r2, r4
 800b52e:	4640      	mov	r0, r8
 800b530:	f7ff ff38 	bl	800b3a4 <__swbuf_r>
 800b534:	1c43      	adds	r3, r0, #1
 800b536:	d1e4      	bne.n	800b502 <__fputwc+0x48>
 800b538:	4606      	mov	r6, r0
 800b53a:	e7f3      	b.n	800b524 <__fputwc+0x6a>

0800b53c <_fputwc_r>:
 800b53c:	6e53      	ldr	r3, [r2, #100]	; 0x64
 800b53e:	07db      	lsls	r3, r3, #31
 800b540:	b570      	push	{r4, r5, r6, lr}
 800b542:	4605      	mov	r5, r0
 800b544:	460e      	mov	r6, r1
 800b546:	4614      	mov	r4, r2
 800b548:	d405      	bmi.n	800b556 <_fputwc_r+0x1a>
 800b54a:	8993      	ldrh	r3, [r2, #12]
 800b54c:	0598      	lsls	r0, r3, #22
 800b54e:	d402      	bmi.n	800b556 <_fputwc_r+0x1a>
 800b550:	6d90      	ldr	r0, [r2, #88]	; 0x58
 800b552:	f7fc fd61 	bl	8008018 <__retarget_lock_acquire_recursive>
 800b556:	f9b4 300c 	ldrsh.w	r3, [r4, #12]
 800b55a:	0499      	lsls	r1, r3, #18
 800b55c:	d406      	bmi.n	800b56c <_fputwc_r+0x30>
 800b55e:	f443 5300 	orr.w	r3, r3, #8192	; 0x2000
 800b562:	81a3      	strh	r3, [r4, #12]
 800b564:	6e63      	ldr	r3, [r4, #100]	; 0x64
 800b566:	f443 5300 	orr.w	r3, r3, #8192	; 0x2000
 800b56a:	6663      	str	r3, [r4, #100]	; 0x64
 800b56c:	4622      	mov	r2, r4
 800b56e:	4628      	mov	r0, r5
 800b570:	4631      	mov	r1, r6
 800b572:	f7ff ffa2 	bl	800b4ba <__fputwc>
 800b576:	6e63      	ldr	r3, [r4, #100]	; 0x64
 800b578:	07da      	lsls	r2, r3, #31
 800b57a:	4605      	mov	r5, r0
 800b57c:	d405      	bmi.n	800b58a <_fputwc_r+0x4e>
 800b57e:	89a3      	ldrh	r3, [r4, #12]
 800b580:	059b      	lsls	r3, r3, #22
 800b582:	d402      	bmi.n	800b58a <_fputwc_r+0x4e>
 800b584:	6da0      	ldr	r0, [r4, #88]	; 0x58
 800b586:	f7fc fd48 	bl	800801a <__retarget_lock_release_recursive>
 800b58a:	4628      	mov	r0, r5
 800b58c:	bd70      	pop	{r4, r5, r6, pc}
	...

0800b590 <_fstat_r>:
 800b590:	b538      	push	{r3, r4, r5, lr}
 800b592:	4c07      	ldr	r4, [pc, #28]	; (800b5b0 <_fstat_r+0x20>)
 800b594:	2300      	movs	r3, #0
 800b596:	4605      	mov	r5, r0
 800b598:	4608      	mov	r0, r1
 800b59a:	4611      	mov	r1, r2
 800b59c:	6023      	str	r3, [r4, #0]
 800b59e:	f7fc f9d0 	bl	8007942 <_fstat>
 800b5a2:	1c43      	adds	r3, r0, #1
 800b5a4:	d102      	bne.n	800b5ac <_fstat_r+0x1c>
 800b5a6:	6823      	ldr	r3, [r4, #0]
 800b5a8:	b103      	cbz	r3, 800b5ac <_fstat_r+0x1c>
 800b5aa:	602b      	str	r3, [r5, #0]
 800b5ac:	bd38      	pop	{r3, r4, r5, pc}
 800b5ae:	bf00      	nop
 800b5b0:	20004468 	.word	0x20004468

0800b5b4 <_isatty_r>:
 800b5b4:	b538      	push	{r3, r4, r5, lr}
 800b5b6:	4c06      	ldr	r4, [pc, #24]	; (800b5d0 <_isatty_r+0x1c>)
 800b5b8:	2300      	movs	r3, #0
 800b5ba:	4605      	mov	r5, r0
 800b5bc:	4608      	mov	r0, r1
 800b5be:	6023      	str	r3, [r4, #0]
 800b5c0:	f7fc f9c4 	bl	800794c <_isatty>
 800b5c4:	1c43      	adds	r3, r0, #1
 800b5c6:	d102      	bne.n	800b5ce <_isatty_r+0x1a>
 800b5c8:	6823      	ldr	r3, [r4, #0]
 800b5ca:	b103      	cbz	r3, 800b5ce <_isatty_r+0x1a>
 800b5cc:	602b      	str	r3, [r5, #0]
 800b5ce:	bd38      	pop	{r3, r4, r5, pc}
 800b5d0:	20004468 	.word	0x20004468

0800b5d4 <__locale_mb_cur_max>:
 800b5d4:	4b04      	ldr	r3, [pc, #16]	; (800b5e8 <__locale_mb_cur_max+0x14>)
 800b5d6:	4a05      	ldr	r2, [pc, #20]	; (800b5ec <__locale_mb_cur_max+0x18>)
 800b5d8:	681b      	ldr	r3, [r3, #0]
 800b5da:	6a1b      	ldr	r3, [r3, #32]
 800b5dc:	2b00      	cmp	r3, #0
 800b5de:	bf08      	it	eq
 800b5e0:	4613      	moveq	r3, r2
 800b5e2:	f893 0128 	ldrb.w	r0, [r3, #296]	; 0x128
 800b5e6:	4770      	bx	lr
 800b5e8:	20000020 	.word	0x20000020
 800b5ec:	20000524 	.word	0x20000524

0800b5f0 <__ascii_mbtowc>:
 800b5f0:	b082      	sub	sp, #8
 800b5f2:	b901      	cbnz	r1, 800b5f6 <__ascii_mbtowc+0x6>
 800b5f4:	a901      	add	r1, sp, #4
 800b5f6:	b142      	cbz	r2, 800b60a <__ascii_mbtowc+0x1a>
 800b5f8:	b14b      	cbz	r3, 800b60e <__ascii_mbtowc+0x1e>
 800b5fa:	7813      	ldrb	r3, [r2, #0]
 800b5fc:	600b      	str	r3, [r1, #0]
 800b5fe:	7812      	ldrb	r2, [r2, #0]
 800b600:	1c10      	adds	r0, r2, #0
 800b602:	bf18      	it	ne
 800b604:	2001      	movne	r0, #1
 800b606:	b002      	add	sp, #8
 800b608:	4770      	bx	lr
 800b60a:	4610      	mov	r0, r2
 800b60c:	e7fb      	b.n	800b606 <__ascii_mbtowc+0x16>
 800b60e:	f06f 0001 	mvn.w	r0, #1
 800b612:	e7f8      	b.n	800b606 <__ascii_mbtowc+0x16>

0800b614 <_wcrtomb_r>:
 800b614:	b5f0      	push	{r4, r5, r6, r7, lr}
 800b616:	4605      	mov	r5, r0
 800b618:	b085      	sub	sp, #20
 800b61a:	461e      	mov	r6, r3
 800b61c:	460f      	mov	r7, r1
 800b61e:	4c0f      	ldr	r4, [pc, #60]	; (800b65c <_wcrtomb_r+0x48>)
 800b620:	b991      	cbnz	r1, 800b648 <_wcrtomb_r+0x34>
 800b622:	6822      	ldr	r2, [r4, #0]
 800b624:	490e      	ldr	r1, [pc, #56]	; (800b660 <_wcrtomb_r+0x4c>)
 800b626:	6a12      	ldr	r2, [r2, #32]
 800b628:	2a00      	cmp	r2, #0
 800b62a:	bf08      	it	eq
 800b62c:	460a      	moveq	r2, r1
 800b62e:	a901      	add	r1, sp, #4
 800b630:	f8d2 40e0 	ldr.w	r4, [r2, #224]	; 0xe0
 800b634:	463a      	mov	r2, r7
 800b636:	47a0      	blx	r4
 800b638:	1c43      	adds	r3, r0, #1
 800b63a:	bf01      	itttt	eq
 800b63c:	2300      	moveq	r3, #0
 800b63e:	6033      	streq	r3, [r6, #0]
 800b640:	238a      	moveq	r3, #138	; 0x8a
 800b642:	602b      	streq	r3, [r5, #0]
 800b644:	b005      	add	sp, #20
 800b646:	bdf0      	pop	{r4, r5, r6, r7, pc}
 800b648:	6824      	ldr	r4, [r4, #0]
 800b64a:	4f05      	ldr	r7, [pc, #20]	; (800b660 <_wcrtomb_r+0x4c>)
 800b64c:	6a24      	ldr	r4, [r4, #32]
 800b64e:	2c00      	cmp	r4, #0
 800b650:	bf08      	it	eq
 800b652:	463c      	moveq	r4, r7
 800b654:	f8d4 40e0 	ldr.w	r4, [r4, #224]	; 0xe0
 800b658:	e7ed      	b.n	800b636 <_wcrtomb_r+0x22>
 800b65a:	bf00      	nop
 800b65c:	20000020 	.word	0x20000020
 800b660:	20000524 	.word	0x20000524

0800b664 <__ascii_wctomb>:
 800b664:	b149      	cbz	r1, 800b67a <__ascii_wctomb+0x16>
 800b666:	2aff      	cmp	r2, #255	; 0xff
 800b668:	bf85      	ittet	hi
 800b66a:	238a      	movhi	r3, #138	; 0x8a
 800b66c:	6003      	strhi	r3, [r0, #0]
 800b66e:	700a      	strbls	r2, [r1, #0]
 800b670:	f04f 30ff 	movhi.w	r0, #4294967295
 800b674:	bf98      	it	ls
 800b676:	2001      	movls	r0, #1
 800b678:	4770      	bx	lr
 800b67a:	4608      	mov	r0, r1
 800b67c:	4770      	bx	lr

0800b67e <abort>:
 800b67e:	b508      	push	{r3, lr}
 800b680:	2006      	movs	r0, #6
 800b682:	f000 f82b 	bl	800b6dc <raise>
 800b686:	2001      	movs	r0, #1
 800b688:	f7fc f91c 	bl	80078c4 <_exit>

0800b68c <_raise_r>:
 800b68c:	291f      	cmp	r1, #31
 800b68e:	b538      	push	{r3, r4, r5, lr}
 800b690:	4604      	mov	r4, r0
 800b692:	460d      	mov	r5, r1
 800b694:	d904      	bls.n	800b6a0 <_raise_r+0x14>
 800b696:	2316      	movs	r3, #22
 800b698:	6003      	str	r3, [r0, #0]
 800b69a:	f04f 30ff 	mov.w	r0, #4294967295
 800b69e:	bd38      	pop	{r3, r4, r5, pc}
 800b6a0:	6c42      	ldr	r2, [r0, #68]	; 0x44
 800b6a2:	b112      	cbz	r2, 800b6aa <_raise_r+0x1e>
 800b6a4:	f852 3021 	ldr.w	r3, [r2, r1, lsl #2]
 800b6a8:	b94b      	cbnz	r3, 800b6be <_raise_r+0x32>
 800b6aa:	4620      	mov	r0, r4
 800b6ac:	f000 f830 	bl	800b710 <_getpid_r>
 800b6b0:	462a      	mov	r2, r5
 800b6b2:	4601      	mov	r1, r0
 800b6b4:	4620      	mov	r0, r4
 800b6b6:	e8bd 4038 	ldmia.w	sp!, {r3, r4, r5, lr}
 800b6ba:	f000 b817 	b.w	800b6ec <_kill_r>
 800b6be:	2b01      	cmp	r3, #1
 800b6c0:	d00a      	beq.n	800b6d8 <_raise_r+0x4c>
 800b6c2:	1c59      	adds	r1, r3, #1
 800b6c4:	d103      	bne.n	800b6ce <_raise_r+0x42>
 800b6c6:	2316      	movs	r3, #22
 800b6c8:	6003      	str	r3, [r0, #0]
 800b6ca:	2001      	movs	r0, #1
 800b6cc:	bd38      	pop	{r3, r4, r5, pc}
 800b6ce:	2400      	movs	r4, #0
 800b6d0:	f842 4025 	str.w	r4, [r2, r5, lsl #2]
 800b6d4:	4628      	mov	r0, r5
 800b6d6:	4798      	blx	r3
 800b6d8:	2000      	movs	r0, #0
 800b6da:	bd38      	pop	{r3, r4, r5, pc}

0800b6dc <raise>:
 800b6dc:	4b02      	ldr	r3, [pc, #8]	; (800b6e8 <raise+0xc>)
 800b6de:	4601      	mov	r1, r0
 800b6e0:	6818      	ldr	r0, [r3, #0]
 800b6e2:	f7ff bfd3 	b.w	800b68c <_raise_r>
 800b6e6:	bf00      	nop
 800b6e8:	20000020 	.word	0x20000020

0800b6ec <_kill_r>:
 800b6ec:	b538      	push	{r3, r4, r5, lr}
 800b6ee:	4c07      	ldr	r4, [pc, #28]	; (800b70c <_kill_r+0x20>)
 800b6f0:	2300      	movs	r3, #0
 800b6f2:	4605      	mov	r5, r0
 800b6f4:	4608      	mov	r0, r1
 800b6f6:	4611      	mov	r1, r2
 800b6f8:	6023      	str	r3, [r4, #0]
 800b6fa:	f7fc f8db 	bl	80078b4 <_kill>
 800b6fe:	1c43      	adds	r3, r0, #1
 800b700:	d102      	bne.n	800b708 <_kill_r+0x1c>
 800b702:	6823      	ldr	r3, [r4, #0]
 800b704:	b103      	cbz	r3, 800b708 <_kill_r+0x1c>
 800b706:	602b      	str	r3, [r5, #0]
 800b708:	bd38      	pop	{r3, r4, r5, pc}
 800b70a:	bf00      	nop
 800b70c:	20004468 	.word	0x20004468

0800b710 <_getpid_r>:
 800b710:	f7fc b8ce 	b.w	80078b0 <_getpid>

0800b714 <_init>:
 800b714:	b5f8      	push	{r3, r4, r5, r6, r7, lr}
 800b716:	bf00      	nop
 800b718:	bcf8      	pop	{r3, r4, r5, r6, r7}
 800b71a:	bc08      	pop	{r3}
 800b71c:	469e      	mov	lr, r3
 800b71e:	4770      	bx	lr

0800b720 <_fini>:
 800b720:	b5f8      	push	{r3, r4, r5, r6, r7, lr}
 800b722:	bf00      	nop
 800b724:	bcf8      	pop	{r3, r4, r5, r6, r7}
 800b726:	bc08      	pop	{r3}
 800b728:	469e      	mov	lr, r3
 800b72a:	4770      	bx	lr
